gplink-1.2.0 #983 (Jul 12 2013)
Map File - Created 1-17-2014  08:51:29

                                 Section Info
                  Section       Type    Address   Location Size(Bytes)
                ---------  ---------  ---------  ---------  ---------
                   .cinit    romdata   0x004d18    program   0x00000e
                 .idata_i    romdata   0x004d38    program   0x000006
           S_main___entry       code   0x000c00    program   0x000004
     S_main__StartOfFrame       code   0x000c04    program   0x000004
S_main_ivec_0x1_high_priority_isr       code   0x000c08    program   0x000004
       S_main__IO_digital       code   0x000c0c    program   0x00000c
S_main_ivec_0x2_low_priority_isr       code   0x000c18    program   0x000004
           S_main__pprint       code   0x000c1c    program   0x000a2c
         S_main__pprintfl       code   0x001648    program   0x0005aa
          S_main__pprinti       code   0x001bf2    program   0x000368
         S_main__CDCprint       code   0x001f5a    program   0x000300
          S_main__pinmode       code   0x00225a    program   0x00025e
     S_main__digitalwrite       code   0x0024b8    program   0x00025e
                    .code       code   0x002716    program   0x00020e
      S_main__InDataStage       code   0x002924    program   0x0001c0
S_main__eeprom_byte_read_seq       code   0x002ae4    program   0x0001b0
          S_main__pprints       code   0x002c94    program   0x0001a4
      S_main__digitalread       code   0x002e38    program   0x000196
     S_main__OutDataStage       code   0x002fce    program   0x000136
       S_main__SetFeature       code   0x003104    program   0x000136
S_main__eeprom_page_write       code   0x00323a    program   0x000134
    S_modulong___modulong       code   0x00336e    program   0x000126
          S_main__CDCgets       code   0x003494    program   0x00011e
          S_main__CDCputs       code   0x0035b2    program   0x00011c
    S_divulong___divulong       code   0x0036ce    program   0x000118
        S_main__GetStatus       code   0x0037e6    program   0x000114
    S_main__GetDescriptor       code   0x0038fa    program   0x000102
          S_main__pprintc       code   0x0039fc    program   0x0000f8
S_main__ProcessStandardRequest       code   0x003af4    program   0x0000da
       S_main__SetupStage       code   0x003bce    program   0x0000d2
       S_main__CDCprintln       code   0x003ca0    program   0x0000c8
         S_main___startup       code   0x003d68    program   0x0000ae
S_main__ProcessCDCRequest       code   0x003e16    program   0x0000a8
         S_main__I2C_init       code   0x003ebe    program   0x0000a6
S_main__ProcessControlTransfer       code   0x003f64    program   0x0000a6
        S_main__psprintf2       code   0x00400a    program   0x0000a4
          S_main__pprintf       code   0x0040ae    program   0x0000a0
S_main__eeprom_byte_write       code   0x00414e    program   0x000092
         S_main__psprintf       code   0x0041e0    program   0x000092
     S_main__CDCgetstring       code   0x004272    program   0x00008e
        S_main__CDCprintf       code   0x004300    program   0x00008c
         S_main__CDC_init       code   0x00438c    program   0x00008a
            S_main__setup       code   0x004416    program   0x000084
             S_main__loop       code   0x00449a    program   0x000082
S_main__ProcessUSBTransactions       code   0x00451c    program   0x00007c
S_main__high_priority_isr       code   0x004598    program   0x000076
 S_main__eeprom_byte_read       code   0x00460e    program   0x000076
 S_main__low_priority_isr       code   0x004684    program   0x000072
        S_main__I2C_write       code   0x0046f6    program   0x00006c
  S_main__CDCInitEndpoint       code   0x004762    program   0x000064
          S_main__Delayms       code   0x0047c6    program   0x000056
          S_main__Delayus       code   0x00481c    program   0x000050
         S_main__BusReset       code   0x00486c    program   0x00004c
             S_main__main       code   0x0048b8    program   0x000046
           S_main__toggle       code   0x0048fe    program   0x000042
    S_gptrget4___gptrget4       code   0x004940    program   0x000040
        S_main__I2C_slave       code   0x004980    program   0x00003e
       S_main__I2C_master       code   0x0049be    program   0x00003e
    S_gptrget3___gptrget3       code   0x0049fc    program   0x000036
         S_main__I2C_read       code   0x004a32    program   0x000034
  S_main__EnableUSBModule       code   0x004a66    program   0x000032
     S_main__I2C_sendNack       code   0x004a98    program   0x000030
      S_main__I2C_sendAck       code   0x004ac8    program   0x000030
         S_main__IO_remap       code   0x004af8    program   0x00002c
      S_main__I2C_restart       code   0x004b24    program   0x00002c
         S_main__I2C_stop       code   0x004b50    program   0x00002c
        S_main__I2C_start       code   0x004b7c    program   0x00002c
         S_main__CDCwrite       code   0x004ba8    program   0x00002c
    S_gptrget2___gptrget2       code   0x004bd4    program   0x00002c
          S_main__IO_init       code   0x004c00    program   0x000028
        S_main__CDCgetkey       code   0x004c28    program   0x000028
          S_main__Suspend       code   0x004c50    program   0x000024
            S_main__Stall       code   0x004c74    program   0x000022
    S_gptrget1___gptrget1       code   0x004c96    program   0x000022
    S_gptrput3___gptrput3       code   0x004cb8    program   0x00001e
S_main__WaitForSetupStage       code   0x004cd6    program   0x00001a
    S_gptrput1___gptrput1       code   0x004cf0    program   0x000016
    S_main__CDC_interrupt       code   0x004d06    program   0x000012
        S_main__UnSuspend       code   0x004d26    program   0x00000a
         S_main__I2C_wait       code   0x004d30    program   0x000008
    S___eeprom_gptr_stubs       code   0x004d3e    program   0x000002
                   .idata      idata   0x000173       data   0x000005
               .registers      udata   0x000000       data   0x000021
            udata_main_27      udata   0x000060       data   0x000050
            udata_main_25      udata   0x0000b0       data   0x000040
            udata_main_17      udata   0x0000f0       data   0x000010
            udata_main_26      udata   0x000100       data   0x000040
            udata_main_18      udata   0x000140       data   0x00000c
            udata_main_19      udata   0x00014c       data   0x00000c
            udata_main_20      udata   0x000158       data   0x00000c
            udata_main_16      udata   0x000164       data   0x000008
            udata_main_15      udata   0x00016c       data   0x000007
            udata_main_21      udata   0x000178       data   0x000004
             udata_main_5      udata   0x00017c       data   0x000003
             udata_main_7      udata   0x00017f       data   0x000003
             udata_main_9      udata   0x000182       data   0x000003
            udata_main_23      udata   0x000185       data   0x000003
             udata_main_8      udata   0x000188       data   0x000002
            udata_main_22      udata   0x00018a       data   0x000002
             udata_main_0      udata   0x00018c       data   0x000001
             udata_main_1      udata   0x00018d       data   0x000001
             udata_main_2      udata   0x00018e       data   0x000001
             udata_main_3      udata   0x00018f       data   0x000001
             udata_main_4      udata   0x000190       data   0x000001
             udata_main_6      udata   0x000191       data   0x000001
            udata_main_10      udata   0x000192       data   0x000001
            udata_main_11      udata   0x000193       data   0x000001
            udata_main_12      udata   0x000194       data   0x000001
            udata_main_13      udata   0x000195       data   0x000001
            udata_main_14      udata   0x000196       data   0x000001
            udata_main_24      udata   0x000197       data   0x000001
            stack_section      udata   0x000400       data   0x000100
                  usbram5      udata   0x000500       data   0x000100
            ustat_main_00      udata   0x000d00       data   0x000080
     ustat_pic18f47j53_00      udata   0x000eb8       data   0x000005
     ustat_pic18f47j53_01      udata   0x000ebf       data   0x00000f
     ustat_pic18f47j53_02      udata   0x000ed1       data   0x000008
     ustat_pic18f47j53_03      udata   0x000ee1       data   0x000004
     ustat_pic18f47j53_04      udata   0x000ee6       data   0x000005
     ustat_pic18f47j53_05      udata   0x000ef2       data   0x000003
     ustat_pic18f47j53_06      udata   0x000ef7       data   0x000002
     ustat_pic18f47j53_07      udata   0x000efc       data   0x000047
     ustat_pic18f47j53_08      udata   0x000f44       data   0x000090
     ustat_pic18f47j53_09      udata   0x000fd5       data   0x00002b



                              Program Memory Usage
                               Start         End
                           ---------   ---------
                            0x004d38    0x004d3d
                            0x000c00    0x000c03
                            0x000c08    0x000c0b
                            0x000c18    0x000c1b
                            0x0048b8    0x0048fd
                            0x004684    0x0046f5
                            0x004598    0x00460d
                            0x00449a    0x00451b
                            0x004416    0x004499
                            0x002ae4    0x002c93
                            0x00460e    0x004683
                            0x00323a    0x00336d
                            0x00414e    0x0041df
                            0x004af8    0x004b23
                            0x000c0c    0x000c17
                            0x004c00    0x004c27
                            0x004a98    0x004ac7
                            0x004ac8    0x004af7
                            0x004b24    0x004b4f
                            0x004b50    0x004b7b
                            0x004b7c    0x004ba7
                            0x004d30    0x004d37
                            0x004a32    0x004a65
                            0x0046f6    0x004761
                            0x003ebe    0x003f63
                            0x004980    0x0049bd
                            0x0049be    0x0049fb
                            0x0048fe    0x00493f
                            0x00225a    0x0024b7
                            0x002e38    0x002fcd
                            0x0024b8    0x002715
                            0x004d06    0x004d17
                            0x004272    0x0042ff
                            0x004c28    0x004c4f
                            0x003ca0    0x003d67
                            0x001f5a    0x002259
                            0x004300    0x00438b
                            0x004ba8    0x004bd3
                            0x00438c    0x004415
                            0x0041e0    0x004271
                            0x00400a    0x0040ad
                            0x0040ae    0x00414d
                            0x000c1c    0x001647
                            0x001648    0x001bf1
                            0x001bf2    0x001f59
                            0x002c94    0x002e37
                            0x0039fc    0x003af3
                            0x00481c    0x00486b
                            0x0047c6    0x00481b
                            0x004762    0x0047c5
                            0x0035b2    0x0036cd
                            0x003494    0x0035b1
                            0x003e16    0x003ebd
                            0x00451c    0x004597
                            0x00486c    0x0048b7
                            0x004c50    0x004c73
                            0x004c74    0x004c95
                            0x000c04    0x000c07
                            0x004d26    0x004d2f
                            0x004a66    0x004a97
                            0x003f64    0x004009
                            0x004cd6    0x004cef
                            0x003bce    0x003c9f
                            0x002fce    0x003103
                            0x002924    0x002ae3
                            0x003af4    0x003bcd
                            0x003104    0x003239
                            0x0037e6    0x0038f9
                            0x0038fa    0x0039fb
                            0x003d68    0x003e15
                            0x002716    0x002923
                            0x00336e    0x003493
                            0x004cf0    0x004d05
                            0x004bd4    0x004bff
                            0x004cb8    0x004cd5
                            0x004940    0x00497f
                            0x0036ce    0x0037e5
                            0x004c96    0x004cb7
                            0x0049fc    0x004a31
                            0x004d3e    0x004d3f
                            0x004d18    0x004d25
                            16704 program addresses used



                              Symbols - Sorted by Name
                     Name    Address   Location    Storage File
                ---------  ---------  ---------  --------- ---------
             @delay10_end   0x002922    program     static /dvpt/sdcc/sources/sdcc/device/lib/pic16/libc/delay/delay10tcy.S
            @delay10_loop   0x002916    program     static /dvpt/sdcc/sources/sdcc/device/lib/pic16/libc/delay/delay10tcy.S
             @delay1k_end   0x00290a    program     static /dvpt/sdcc/sources/sdcc/device/lib/pic16/libc/delay/delay1ktcy.S
            @delay1k_loop   0x0028f6    program     static /dvpt/sdcc/sources/sdcc/device/lib/pic16/libc/delay/delay1ktcy.S
              _.code_0008   0x002914    program     static /dvpt/sdcc/sources/sdcc/device/lib/pic16/libc/delay/delay10tcy.S
              _.code_000A   0x002916    program     static /dvpt/sdcc/sources/sdcc/device/lib/pic16/libc/delay/delay10tcy.S
              _.code_000C   0x002918    program     static /dvpt/sdcc/sources/sdcc/device/lib/pic16/libc/delay/delay10tcy.S
              _.code_000E   0x0028f4    program     static /dvpt/sdcc/sources/sdcc/device/lib/pic16/libc/delay/delay1ktcy.S
              _.code_000E   0x00291a    program     static /dvpt/sdcc/sources/sdcc/device/lib/pic16/libc/delay/delay10tcy.S
              _.code_0018   0x0028fe    program     static /dvpt/sdcc/sources/sdcc/device/lib/pic16/libc/delay/delay1ktcy.S
              _.code_001A   0x002900    program     static /dvpt/sdcc/sources/sdcc/device/lib/pic16/libc/delay/delay1ktcy.S
               _00106_DS_   0x003410    program     static modulong.asm
               _00107_DS_   0x0033d6    program     static modulong.asm
               _00109_DS_   0x00374a    program     static divulong.asm
               _00110_DS_   0x003796    program     static divulong.asm
               _00111_DS_   0x003440    program     static modulong.asm
               _00112_DS_   0x003418    program     static modulong.asm
               _00118_DS_   0x0039de    program     static /dvpt/pinguino/git/pinguino-ide/pinguino/source/main.asm
               _00121_DS_   0x003974    program     static /dvpt/pinguino/git/pinguino-ide/pinguino/source/main.asm
               _00124_DS_   0x003940    program     static /dvpt/pinguino/git/pinguino-ide/pinguino/source/main.asm
               _00128_DS_   0x0039ea    program     static /dvpt/pinguino/git/pinguino-ide/pinguino/source/main.asm
               _00128_DS_   0x003782    program     static divulong.asm
               _00136_DS_   0x003402    program     static modulong.asm
               _00137_DS_   0x00342e    program     static modulong.asm
               _00146_DS_   0x003914    program     static /dvpt/pinguino/git/pinguino-ide/pinguino/source/main.asm
               _00160_DS_   0x003824    program     static /dvpt/pinguino/git/pinguino-ide/pinguino/source/main.asm
               _00164_DS_   0x00389e    program     static /dvpt/pinguino/git/pinguino-ide/pinguino/source/main.asm
               _00170_DS_   0x003844    program     static /dvpt/pinguino/git/pinguino-ide/pinguino/source/main.asm
               _00173_DS_   0x003836    program     static /dvpt/pinguino/git/pinguino-ide/pinguino/source/main.asm
               _00174_DS_   0x0038c4    program     static /dvpt/pinguino/git/pinguino-ide/pinguino/source/main.asm
               _00177_DS_   0x0038e0    program     static /dvpt/pinguino/git/pinguino-ide/pinguino/source/main.asm
               _00209_DS_   0x00384c    program     static /dvpt/pinguino/git/pinguino-ide/pinguino/source/main.asm
               _00218_DS_   0x00314a    program     static /dvpt/pinguino/git/pinguino-ide/pinguino/source/main.asm
               _00223_DS_   0x0031b6    program     static /dvpt/pinguino/git/pinguino-ide/pinguino/source/main.asm
               _00225_DS_   0x003202    program     static /dvpt/pinguino/git/pinguino-ide/pinguino/source/main.asm
               _00228_DS_   0x0031de    program     static /dvpt/pinguino/git/pinguino-ide/pinguino/source/main.asm
               _00236_DS_   0x003150    program     static /dvpt/pinguino/git/pinguino-ide/pinguino/source/main.asm
               _00238_DS_   0x003220    program     static /dvpt/pinguino/git/pinguino-ide/pinguino/source/main.asm
               _00269_DS_   0x003134    program     static /dvpt/pinguino/git/pinguino-ide/pinguino/source/main.asm
               _00273_DS_   0x003158    program     static /dvpt/pinguino/git/pinguino-ide/pinguino/source/main.asm
               _00287_DS_   0x003b48    program     static /dvpt/pinguino/git/pinguino-ide/pinguino/source/main.asm
               _00296_DS_   0x003bbc    program     static /dvpt/pinguino/git/pinguino-ide/pinguino/source/main.asm
               _00298_DS_   0x003b8e    program     static /dvpt/pinguino/git/pinguino-ide/pinguino/source/main.asm
               _00299_DS_   0x003b94    program     static /dvpt/pinguino/git/pinguino-ide/pinguino/source/main.asm
               _00303_DS_   0x003b82    program     static /dvpt/pinguino/git/pinguino-ide/pinguino/source/main.asm
               _00306_DS_   0x003b78    program     static /dvpt/pinguino/git/pinguino-ide/pinguino/source/main.asm
               _00309_DS_   0x003b54    program     static /dvpt/pinguino/git/pinguino-ide/pinguino/source/main.asm
               _00312_DS_   0x003b2a    program     static /dvpt/pinguino/git/pinguino-ide/pinguino/source/main.asm
               _00315_DS_   0x003b1e    program     static /dvpt/pinguino/git/pinguino-ide/pinguino/source/main.asm
               _00317_DS_   0x003bc8    program     static /dvpt/pinguino/git/pinguino-ide/pinguino/source/main.asm
               _00372_DS_   0x00296e    program     static /dvpt/pinguino/git/pinguino-ide/pinguino/source/main.asm
               _00373_DS_   0x002974    program     static /dvpt/pinguino/git/pinguino-ide/pinguino/source/main.asm
               _00376_DS_   0x002a52    program     static /dvpt/pinguino/git/pinguino-ide/pinguino/source/main.asm
               _00378_DS_   0x002aba    program     static /dvpt/pinguino/git/pinguino-ide/pinguino/source/main.asm
               _00390_DS_   0x002962    program     static /dvpt/pinguino/git/pinguino-ide/pinguino/source/main.asm
               _00396_DS_   0x002a62    program     static /dvpt/pinguino/git/pinguino-ide/pinguino/source/main.asm
               _00397_DS_   0x002a98    program     static /dvpt/pinguino/git/pinguino-ide/pinguino/source/main.asm
               _00398_DS_   0x002ab6    program     static /dvpt/pinguino/git/pinguino-ide/pinguino/source/main.asm
               _00405_DS_   0x003072    program     static /dvpt/pinguino/git/pinguino-ide/pinguino/source/main.asm
               _00407_DS_   0x0030d6    program     static /dvpt/pinguino/git/pinguino-ide/pinguino/source/main.asm
               _00418_DS_   0x00307c    program     static /dvpt/pinguino/git/pinguino-ide/pinguino/source/main.asm
               _00419_DS_   0x0030b2    program     static /dvpt/pinguino/git/pinguino-ide/pinguino/source/main.asm
               _00420_DS_   0x0030d0    program     static /dvpt/pinguino/git/pinguino-ide/pinguino/source/main.asm
               _00426_DS_   0x003c0c    program     static /dvpt/pinguino/git/pinguino-ide/pinguino/source/main.asm
               _00428_DS_   0x003c4a    program     static /dvpt/pinguino/git/pinguino-ide/pinguino/source/main.asm
               _00430_DS_   0x003c7a    program     static /dvpt/pinguino/git/pinguino-ide/pinguino/source/main.asm
               _00433_DS_   0x003c28    program     static /dvpt/pinguino/git/pinguino-ide/pinguino/source/main.asm
               _00434_DS_   0x003c98    program     static /dvpt/pinguino/git/pinguino-ide/pinguino/source/main.asm
               _00456_DS_   0x003c40    program     static /dvpt/pinguino/git/pinguino-ide/pinguino/source/main.asm
               _00467_DS_   0x003fa2    program     static /dvpt/pinguino/git/pinguino-ide/pinguino/source/main.asm
               _00470_DS_   0x003faa    program     static /dvpt/pinguino/git/pinguino-ide/pinguino/source/main.asm
               _00473_DS_   0x003f84    program     static /dvpt/pinguino/git/pinguino-ide/pinguino/source/main.asm
               _00478_DS_   0x003fda    program     static /dvpt/pinguino/git/pinguino-ide/pinguino/source/main.asm
               _00481_DS_   0x003ff8    program     static /dvpt/pinguino/git/pinguino-ide/pinguino/source/main.asm
               _00484_DS_   0x004000    program     static /dvpt/pinguino/git/pinguino-ide/pinguino/source/main.asm
               _00489_DS_   0x003fb0    program     static /dvpt/pinguino/git/pinguino-ide/pinguino/source/main.asm
               _00491_DS_   0x004004    program     static /dvpt/pinguino/git/pinguino-ide/pinguino/source/main.asm
               _00529_DS_   0x003fbc    program     static /dvpt/pinguino/git/pinguino-ide/pinguino/source/main.asm
               _00539_DS_   0x004a78    program     static /dvpt/pinguino/git/pinguino-ide/pinguino/source/main.asm
               _00543_DS_   0x004a96    program     static /dvpt/pinguino/git/pinguino-ide/pinguino/source/main.asm
               _00571_DS_   0x004c8e    program     static /dvpt/pinguino/git/pinguino-ide/pinguino/source/main.asm
               _00588_DS_   0x00488a    program     static /dvpt/pinguino/git/pinguino-ide/pinguino/source/main.asm
               _00590_DS_   0x00489a    program     static /dvpt/pinguino/git/pinguino-ide/pinguino/source/main.asm
               _00608_DS_   0x004534    program     static /dvpt/pinguino/git/pinguino-ide/pinguino/source/main.asm
               _00613_DS_   0x00454c    program     static /dvpt/pinguino/git/pinguino-ide/pinguino/source/main.asm
               _00616_DS_   0x004558    program     static /dvpt/pinguino/git/pinguino-ide/pinguino/source/main.asm
               _00619_DS_   0x004564    program     static /dvpt/pinguino/git/pinguino-ide/pinguino/source/main.asm
               _00622_DS_   0x004570    program     static /dvpt/pinguino/git/pinguino-ide/pinguino/source/main.asm
               _00625_DS_   0x00457a    program     static /dvpt/pinguino/git/pinguino-ide/pinguino/source/main.asm
               _00632_DS_   0x004592    program     static /dvpt/pinguino/git/pinguino-ide/pinguino/source/main.asm
               _00693_DS_   0x003e26    program     static /dvpt/pinguino/git/pinguino-ide/pinguino/source/main.asm
               _00696_DS_   0x003e4c    program     static /dvpt/pinguino/git/pinguino-ide/pinguino/source/main.asm
               _00697_DS_   0x003e6a    program     static /dvpt/pinguino/git/pinguino-ide/pinguino/source/main.asm
               _00698_DS_   0x003e88    program     static /dvpt/pinguino/git/pinguino-ide/pinguino/source/main.asm
               _00700_DS_   0x003e98    program     static /dvpt/pinguino/git/pinguino-ide/pinguino/source/main.asm
               _00701_DS_   0x003e9c    program     static /dvpt/pinguino/git/pinguino-ide/pinguino/source/main.asm
               _00703_DS_   0x003eb8    program     static /dvpt/pinguino/git/pinguino-ide/pinguino/source/main.asm
               _00730_DS_   0x003e30    program     static /dvpt/pinguino/git/pinguino-ide/pinguino/source/main.asm
               _00732_DS_   0x003e38    program     static /dvpt/pinguino/git/pinguino-ide/pinguino/source/main.asm
               _00746_DS_   0x0034e4    program     static /dvpt/pinguino/git/pinguino-ide/pinguino/source/main.asm
               _00748_DS_   0x0034ee    program     static /dvpt/pinguino/git/pinguino-ide/pinguino/source/main.asm
               _00753_DS_   0x003582    program     static /dvpt/pinguino/git/pinguino-ide/pinguino/source/main.asm
               _00755_DS_   0x003500    program     static /dvpt/pinguino/git/pinguino-ide/pinguino/source/main.asm
               _00757_DS_   0x003584    program     static /dvpt/pinguino/git/pinguino-ide/pinguino/source/main.asm
               _00765_DS_   0x003548    program     static /dvpt/pinguino/git/pinguino-ide/pinguino/source/main.asm
               _00787_DS_   0x003608    program     static /dvpt/pinguino/git/pinguino-ide/pinguino/source/main.asm
               _00789_DS_   0x003612    program     static /dvpt/pinguino/git/pinguino-ide/pinguino/source/main.asm
               _00794_DS_   0x00369e    program     static /dvpt/pinguino/git/pinguino-ide/pinguino/source/main.asm
               _00796_DS_   0x003624    program     static /dvpt/pinguino/git/pinguino-ide/pinguino/source/main.asm
               _00798_DS_   0x0036a0    program     static /dvpt/pinguino/git/pinguino-ide/pinguino/source/main.asm
               _00805_DS_   0x003622    program     static /dvpt/pinguino/git/pinguino-ide/pinguino/source/main.asm
               _00806_DS_   0x003664    program     static /dvpt/pinguino/git/pinguino-ide/pinguino/source/main.asm
               _00834_DS_   0x0047ee    program     static /dvpt/pinguino/git/pinguino-ide/pinguino/source/main.asm
               _00836_DS_   0x004806    program     static /dvpt/pinguino/git/pinguino-ide/pinguino/source/main.asm
               _00845_DS_   0x0047f8    program     static /dvpt/pinguino/git/pinguino-ide/pinguino/source/main.asm
               _00852_DS_   0x004844    program     static /dvpt/pinguino/git/pinguino-ide/pinguino/source/main.asm
               _00854_DS_   0x004856    program     static /dvpt/pinguino/git/pinguino-ide/pinguino/source/main.asm
               _00863_DS_   0x00484e    program     static /dvpt/pinguino/git/pinguino-ide/pinguino/source/main.asm
               _00869_DS_   0x003aa6    program     static /dvpt/pinguino/git/pinguino-ide/pinguino/source/main.asm
               _00871_DS_   0x003ad2    program     static /dvpt/pinguino/git/pinguino-ide/pinguino/source/main.asm
               _00876_DS_   0x003a8a    program     static /dvpt/pinguino/git/pinguino-ide/pinguino/source/main.asm
               _00877_DS_   0x003ad0    program     static /dvpt/pinguino/git/pinguino-ide/pinguino/source/main.asm
               _00882_DS_   0x002d40    program     static /dvpt/pinguino/git/pinguino-ide/pinguino/source/main.asm
               _00884_DS_   0x002d4a    program     static /dvpt/pinguino/git/pinguino-ide/pinguino/source/main.asm
               _00885_DS_   0x002d4e    program     static /dvpt/pinguino/git/pinguino-ide/pinguino/source/main.asm
               _00889_DS_   0x002d56    program     static /dvpt/pinguino/git/pinguino-ide/pinguino/source/main.asm
               _00894_DS_   0x002df2    program     static /dvpt/pinguino/git/pinguino-ide/pinguino/source/main.asm
               _00896_DS_   0x002d20    program     static /dvpt/pinguino/git/pinguino-ide/pinguino/source/main.asm
               _00898_DS_   0x002d6e    program     static /dvpt/pinguino/git/pinguino-ide/pinguino/source/main.asm
               _00899_DS_   0x002d60    program     static /dvpt/pinguino/git/pinguino-ide/pinguino/source/main.asm
               _00902_DS_   0x002d90    program     static /dvpt/pinguino/git/pinguino-ide/pinguino/source/main.asm
               _00905_DS_   0x002dd0    program     static /dvpt/pinguino/git/pinguino-ide/pinguino/source/main.asm
               _00921_DS_   0x002d8c    program     static /dvpt/pinguino/git/pinguino-ide/pinguino/source/main.asm
               _00923_DS_   0x002dc8    program     static /dvpt/pinguino/git/pinguino-ide/pinguino/source/main.asm
               _00952_DS_   0x002d3e    program     static /dvpt/pinguino/git/pinguino-ide/pinguino/source/main.asm
               _00956_DS_   0x002dc6    program     static /dvpt/pinguino/git/pinguino-ide/pinguino/source/main.asm
               _00962_DS_   0x001d0c    program     static /dvpt/pinguino/git/pinguino-ide/pinguino/source/main.asm
               _00964_DS_   0x001d52    program     static /dvpt/pinguino/git/pinguino-ide/pinguino/source/main.asm
               _00970_DS_   0x001d7c    program     static /dvpt/pinguino/git/pinguino-ide/pinguino/source/main.asm
               _00973_DS_   0x001e0c    program     static /dvpt/pinguino/git/pinguino-ide/pinguino/source/main.asm
               _00974_DS_   0x001da2    program     static /dvpt/pinguino/git/pinguino-ide/pinguino/source/main.asm
               _00978_DS_   0x001e9a    program     static /dvpt/pinguino/git/pinguino-ide/pinguino/source/main.asm
               _00982_DS_   0x001eb4    program     static /dvpt/pinguino/git/pinguino-ide/pinguino/source/main.asm
               _00983_DS_   0x001ee4    program     static /dvpt/pinguino/git/pinguino-ide/pinguino/source/main.asm
               _00998_DS_   0x001e62    program     static /dvpt/pinguino/git/pinguino-ide/pinguino/source/main.asm
               _01029_DS_   0x001dfe    program     static /dvpt/pinguino/git/pinguino-ide/pinguino/source/main.asm
               _01036_DS_   0x001780    program     static /dvpt/pinguino/git/pinguino-ide/pinguino/source/main.asm
               _01040_DS_   0x00179e    program     static /dvpt/pinguino/git/pinguino-ide/pinguino/source/main.asm
               _01042_DS_   0x0018fc    program     static /dvpt/pinguino/git/pinguino-ide/pinguino/source/main.asm
               _01045_DS_   0x00185e    program     static /dvpt/pinguino/git/pinguino-ide/pinguino/source/main.asm
               _01047_DS_   0x0017ce    program     static /dvpt/pinguino/git/pinguino-ide/pinguino/source/main.asm
               _01048_DS_   0x00180c    program     static /dvpt/pinguino/git/pinguino-ide/pinguino/source/main.asm
               _01049_DS_   0x001946    program     static /dvpt/pinguino/git/pinguino-ide/pinguino/source/main.asm
               _01051_DS_   0x001980    program     static /dvpt/pinguino/git/pinguino-ide/pinguino/source/main.asm
               _01054_DS_   0x001a14    program     static /dvpt/pinguino/git/pinguino-ide/pinguino/source/main.asm
               _01059_DS_   0x001a5e    program     static /dvpt/pinguino/git/pinguino-ide/pinguino/source/main.asm
               _01061_DS_   0x001a68    program     static /dvpt/pinguino/git/pinguino-ide/pinguino/source/main.asm
               _01066_DS_   0x001b28    program     static /dvpt/pinguino/git/pinguino-ide/pinguino/source/main.asm
               _01068_DS_   0x001aa2    program     static /dvpt/pinguino/git/pinguino-ide/pinguino/source/main.asm
               _01070_DS_   0x001b68    program     static /dvpt/pinguino/git/pinguino-ide/pinguino/source/main.asm
               _01080_DS_   0x00196e    program     static /dvpt/pinguino/git/pinguino-ide/pinguino/source/main.asm
               _01088_DS_   0x001a04    program     static /dvpt/pinguino/git/pinguino-ide/pinguino/source/main.asm
               _01089_DS_   0x001a52    program     static /dvpt/pinguino/git/pinguino-ide/pinguino/source/main.asm
               _01090_DS_   0x001b1c    program     static /dvpt/pinguino/git/pinguino-ide/pinguino/source/main.asm
               _01124_DS_   0x00179a    program     static /dvpt/pinguino/git/pinguino-ide/pinguino/source/main.asm
               _01131_DS_   0x00185c    program     static /dvpt/pinguino/git/pinguino-ide/pinguino/source/main.asm
               _01132_DS_   0x001840    program     static /dvpt/pinguino/git/pinguino-ide/pinguino/source/main.asm
               _01133_DS_   0x001850    program     static /dvpt/pinguino/git/pinguino-ide/pinguino/source/main.asm
               _01134_DS_   0x00184e    program     static /dvpt/pinguino/git/pinguino-ide/pinguino/source/main.asm
               _01135_DS_   0x0018b2    program     static /dvpt/pinguino/git/pinguino-ide/pinguino/source/main.asm
               _01136_DS_   0x001896    program     static /dvpt/pinguino/git/pinguino-ide/pinguino/source/main.asm
               _01137_DS_   0x0018a6    program     static /dvpt/pinguino/git/pinguino-ide/pinguino/source/main.asm
               _01138_DS_   0x0018a4    program     static /dvpt/pinguino/git/pinguino-ide/pinguino/source/main.asm
               _01139_DS_   0x0018ec    program     static /dvpt/pinguino/git/pinguino-ide/pinguino/source/main.asm
               _01140_DS_   0x0018d0    program     static /dvpt/pinguino/git/pinguino-ide/pinguino/source/main.asm
               _01141_DS_   0x0018e0    program     static /dvpt/pinguino/git/pinguino-ide/pinguino/source/main.asm
               _01142_DS_   0x0018de    program     static /dvpt/pinguino/git/pinguino-ide/pinguino/source/main.asm
               _01147_DS_   0x00192a    program     static /dvpt/pinguino/git/pinguino-ide/pinguino/source/main.asm
               _01148_DS_   0x00193a    program     static /dvpt/pinguino/git/pinguino-ide/pinguino/source/main.asm
               _01149_DS_   0x001938    program     static /dvpt/pinguino/git/pinguino-ide/pinguino/source/main.asm
               _01150_DS_   0x00196a    program     static /dvpt/pinguino/git/pinguino-ide/pinguino/source/main.asm
               _01151_DS_   0x0019ce    program     static /dvpt/pinguino/git/pinguino-ide/pinguino/source/main.asm
               _01152_DS_   0x001a50    program     static /dvpt/pinguino/git/pinguino-ide/pinguino/source/main.asm
               _01156_DS_   0x001a94    program     static /dvpt/pinguino/git/pinguino-ide/pinguino/source/main.asm
               _01158_DS_   0x001b16    program     static /dvpt/pinguino/git/pinguino-ide/pinguino/source/main.asm
               _01169_DS_   0x000d38    program     static /dvpt/pinguino/git/pinguino-ide/pinguino/source/main.asm
               _01175_DS_   0x000e18    program     static /dvpt/pinguino/git/pinguino-ide/pinguino/source/main.asm
               _01177_DS_   0x000eae    program     static /dvpt/pinguino/git/pinguino-ide/pinguino/source/main.asm
               _01179_DS_   0x000f40    program     static /dvpt/pinguino/git/pinguino-ide/pinguino/source/main.asm
               _01181_DS_   0x000f52    program     static /dvpt/pinguino/git/pinguino-ide/pinguino/source/main.asm
               _01183_DS_   0x001040    program     static /dvpt/pinguino/git/pinguino-ide/pinguino/source/main.asm
               _01184_DS_   0x00104e    program     static /dvpt/pinguino/git/pinguino-ide/pinguino/source/main.asm
               _01185_DS_   0x001138    program     static /dvpt/pinguino/git/pinguino-ide/pinguino/source/main.asm
               _01187_DS_   0x001146    program     static /dvpt/pinguino/git/pinguino-ide/pinguino/source/main.asm
               _01188_DS_   0x00122c    program     static /dvpt/pinguino/git/pinguino-ide/pinguino/source/main.asm
               _01190_DS_   0x00123a    program     static /dvpt/pinguino/git/pinguino-ide/pinguino/source/main.asm
               _01191_DS_   0x001320    program     static /dvpt/pinguino/git/pinguino-ide/pinguino/source/main.asm
               _01194_DS_   0x00140e    program     static /dvpt/pinguino/git/pinguino-ide/pinguino/source/main.asm
               _01196_DS_   0x0014fc    program     static /dvpt/pinguino/git/pinguino-ide/pinguino/source/main.asm
               _01199_DS_   0x001576    program     static /dvpt/pinguino/git/pinguino-ide/pinguino/source/main.asm
               _01203_DS_   0x00159c    program     static /dvpt/pinguino/git/pinguino-ide/pinguino/source/main.asm
               _01204_DS_   0x0015a8    program     static /dvpt/pinguino/git/pinguino-ide/pinguino/source/main.asm
               _01206_DS_   0x0015d8    program     static /dvpt/pinguino/git/pinguino-ide/pinguino/source/main.asm
               _01209_DS_   0x000d56    program     static /dvpt/pinguino/git/pinguino-ide/pinguino/source/main.asm
               _01213_DS_   0x000dd0    program     static /dvpt/pinguino/git/pinguino-ide/pinguino/source/main.asm
               _01216_DS_   0x000cc8    program     static /dvpt/pinguino/git/pinguino-ide/pinguino/source/main.asm
               _01220_DS_   0x000f08    program     static /dvpt/pinguino/git/pinguino-ide/pinguino/source/main.asm
               _01221_DS_   0x000fb2    program     static /dvpt/pinguino/git/pinguino-ide/pinguino/source/main.asm
               _01222_DS_   0x000ffa    program     static /dvpt/pinguino/git/pinguino-ide/pinguino/source/main.asm
               _01223_DS_   0x001098    program     static /dvpt/pinguino/git/pinguino-ide/pinguino/source/main.asm
               _01224_DS_   0x0010e0    program     static /dvpt/pinguino/git/pinguino-ide/pinguino/source/main.asm
               _01225_DS_   0x001190    program     static /dvpt/pinguino/git/pinguino-ide/pinguino/source/main.asm
               _01226_DS_   0x0011d8    program     static /dvpt/pinguino/git/pinguino-ide/pinguino/source/main.asm
               _01227_DS_   0x001284    program     static /dvpt/pinguino/git/pinguino-ide/pinguino/source/main.asm
               _01228_DS_   0x0012cc    program     static /dvpt/pinguino/git/pinguino-ide/pinguino/source/main.asm
               _01229_DS_   0x001372    program     static /dvpt/pinguino/git/pinguino-ide/pinguino/source/main.asm
               _01230_DS_   0x0013ba    program     static /dvpt/pinguino/git/pinguino-ide/pinguino/source/main.asm
               _01231_DS_   0x001460    program     static /dvpt/pinguino/git/pinguino-ide/pinguino/source/main.asm
               _01232_DS_   0x0014a8    program     static /dvpt/pinguino/git/pinguino-ide/pinguino/source/main.asm
               _01239_DS_   0x000d2c    program     static /dvpt/pinguino/git/pinguino-ide/pinguino/source/main.asm
               _01267_DS_   0x000d92    program     static /dvpt/pinguino/git/pinguino-ide/pinguino/source/main.asm
               _01268_DS_   0x000e0c    program     static /dvpt/pinguino/git/pinguino-ide/pinguino/source/main.asm
               _01336_DS_   0x000ce0    program     static /dvpt/pinguino/git/pinguino-ide/pinguino/source/main.asm
               _01338_DS_   0x000cec    program     static /dvpt/pinguino/git/pinguino-ide/pinguino/source/main.asm
               _01339_DS_   0x000cf8    program     static /dvpt/pinguino/git/pinguino-ide/pinguino/source/main.asm
               _01341_DS_   0x000d1a    program     static /dvpt/pinguino/git/pinguino-ide/pinguino/source/main.asm
               _01344_DS_   0x000d28    program     static /dvpt/pinguino/git/pinguino-ide/pinguino/source/main.asm
               _01347_DS_   0x000d52    program     static /dvpt/pinguino/git/pinguino-ide/pinguino/source/main.asm
               _01351_DS_   0x000d90    program     static /dvpt/pinguino/git/pinguino-ide/pinguino/source/main.asm
               _01356_DS_   0x000e0a    program     static /dvpt/pinguino/git/pinguino-ide/pinguino/source/main.asm
               _01358_DS_   0x000e2e    program     static /dvpt/pinguino/git/pinguino-ide/pinguino/source/main.asm
               _01360_DS_   0x000eb6    program     static /dvpt/pinguino/git/pinguino-ide/pinguino/source/main.asm
               _01363_DS_   0x000f4e    program     static /dvpt/pinguino/git/pinguino-ide/pinguino/source/main.asm
               _01365_DS_   0x000f68    program     static /dvpt/pinguino/git/pinguino-ide/pinguino/source/main.asm
               _01379_DS_   0x001328    program     static /dvpt/pinguino/git/pinguino-ide/pinguino/source/main.asm
               _01381_DS_   0x001416    program     static /dvpt/pinguino/git/pinguino-ide/pinguino/source/main.asm
               _01383_DS_   0x001504    program     static /dvpt/pinguino/git/pinguino-ide/pinguino/source/main.asm
               _01384_DS_   0x0015a4    program     static /dvpt/pinguino/git/pinguino-ide/pinguino/source/main.asm
               _01404_DS_   0x0043f8    program     static /dvpt/pinguino/git/pinguino-ide/pinguino/source/main.asm
               _01406_DS_   0x00440a    program     static /dvpt/pinguino/git/pinguino-ide/pinguino/source/main.asm
               _01432_DS_   0x00201e    program     static /dvpt/pinguino/git/pinguino-ide/pinguino/source/main.asm
               _01433_DS_   0x002078    program     static /dvpt/pinguino/git/pinguino-ide/pinguino/source/main.asm
               _01434_DS_   0x0020d2    program     static /dvpt/pinguino/git/pinguino-ide/pinguino/source/main.asm
               _01435_DS_   0x00212c    program     static /dvpt/pinguino/git/pinguino-ide/pinguino/source/main.asm
               _01436_DS_   0x002186    program     static /dvpt/pinguino/git/pinguino-ide/pinguino/source/main.asm
               _01437_DS_   0x0021e0    program     static /dvpt/pinguino/git/pinguino-ide/pinguino/source/main.asm
               _01439_DS_   0x002248    program     static /dvpt/pinguino/git/pinguino-ide/pinguino/source/main.asm
               _01460_DS_   0x001f9e    program     static /dvpt/pinguino/git/pinguino-ide/pinguino/source/main.asm
               _01462_DS_   0x001fa6    program     static /dvpt/pinguino/git/pinguino-ide/pinguino/source/main.asm
               _01464_DS_   0x001fae    program     static /dvpt/pinguino/git/pinguino-ide/pinguino/source/main.asm
               _01468_DS_   0x001fbc    program     static /dvpt/pinguino/git/pinguino-ide/pinguino/source/main.asm
               _01470_DS_   0x001fc4    program     static /dvpt/pinguino/git/pinguino-ide/pinguino/source/main.asm
               _01480_DS_   0x004c2c    program     static /dvpt/pinguino/git/pinguino-ide/pinguino/source/main.asm
               _01488_DS_   0x004284    program     static /dvpt/pinguino/git/pinguino-ide/pinguino/source/main.asm
               _01508_DS_   0x004d16    program     static /dvpt/pinguino/git/pinguino-ide/pinguino/source/main.asm
               _01513_DS_   0x00253e    program     static /dvpt/pinguino/git/pinguino-ide/pinguino/source/main.asm
               _01515_DS_   0x00256c    program     static /dvpt/pinguino/git/pinguino-ide/pinguino/source/main.asm
               _01517_DS_   0x002598    program     static /dvpt/pinguino/git/pinguino-ide/pinguino/source/main.asm
               _01519_DS_   0x0025c6    program     static /dvpt/pinguino/git/pinguino-ide/pinguino/source/main.asm
               _01521_DS_   0x0025f2    program     static /dvpt/pinguino/git/pinguino-ide/pinguino/source/main.asm
               _01523_DS_   0x002620    program     static /dvpt/pinguino/git/pinguino-ide/pinguino/source/main.asm
               _01525_DS_   0x00264c    program     static /dvpt/pinguino/git/pinguino-ide/pinguino/source/main.asm
               _01527_DS_   0x00267a    program     static /dvpt/pinguino/git/pinguino-ide/pinguino/source/main.asm
               _01529_DS_   0x0026a6    program     static /dvpt/pinguino/git/pinguino-ide/pinguino/source/main.asm
               _01531_DS_   0x0026d4    program     static /dvpt/pinguino/git/pinguino-ide/pinguino/source/main.asm
               _01534_DS_   0x0026fc    program     static /dvpt/pinguino/git/pinguino-ide/pinguino/source/main.asm
               _01555_DS_   0x00252a    program     static /dvpt/pinguino/git/pinguino-ide/pinguino/source/main.asm
               _01560_DS_   0x002eb4    program     static /dvpt/pinguino/git/pinguino-ide/pinguino/source/main.asm
               _01562_DS_   0x002ee4    program     static /dvpt/pinguino/git/pinguino-ide/pinguino/source/main.asm
               _01564_DS_   0x002ee8    program     static /dvpt/pinguino/git/pinguino-ide/pinguino/source/main.asm
               _01566_DS_   0x002f18    program     static /dvpt/pinguino/git/pinguino-ide/pinguino/source/main.asm
               _01568_DS_   0x002f1c    program     static /dvpt/pinguino/git/pinguino-ide/pinguino/source/main.asm
               _01570_DS_   0x002f4c    program     static /dvpt/pinguino/git/pinguino-ide/pinguino/source/main.asm
               _01572_DS_   0x002f50    program     static /dvpt/pinguino/git/pinguino-ide/pinguino/source/main.asm
               _01574_DS_   0x002f80    program     static /dvpt/pinguino/git/pinguino-ide/pinguino/source/main.asm
               _01576_DS_   0x002f84    program     static /dvpt/pinguino/git/pinguino-ide/pinguino/source/main.asm
               _01578_DS_   0x002fb2    program     static /dvpt/pinguino/git/pinguino-ide/pinguino/source/main.asm
               _01580_DS_   0x002fb6    program     static /dvpt/pinguino/git/pinguino-ide/pinguino/source/main.asm
               _01581_DS_   0x002fb8    program     static /dvpt/pinguino/git/pinguino-ide/pinguino/source/main.asm
               _01602_DS_   0x002ea0    program     static /dvpt/pinguino/git/pinguino-ide/pinguino/source/main.asm
               _01607_DS_   0x0022e0    program     static /dvpt/pinguino/git/pinguino-ide/pinguino/source/main.asm
               _01609_DS_   0x00230e    program     static /dvpt/pinguino/git/pinguino-ide/pinguino/source/main.asm
               _01611_DS_   0x00233a    program     static /dvpt/pinguino/git/pinguino-ide/pinguino/source/main.asm
               _01613_DS_   0x002368    program     static /dvpt/pinguino/git/pinguino-ide/pinguino/source/main.asm
               _01615_DS_   0x002394    program     static /dvpt/pinguino/git/pinguino-ide/pinguino/source/main.asm
               _01617_DS_   0x0023c2    program     static /dvpt/pinguino/git/pinguino-ide/pinguino/source/main.asm
               _01619_DS_   0x0023ee    program     static /dvpt/pinguino/git/pinguino-ide/pinguino/source/main.asm
               _01621_DS_   0x00241c    program     static /dvpt/pinguino/git/pinguino-ide/pinguino/source/main.asm
               _01623_DS_   0x002448    program     static /dvpt/pinguino/git/pinguino-ide/pinguino/source/main.asm
               _01625_DS_   0x002476    program     static /dvpt/pinguino/git/pinguino-ide/pinguino/source/main.asm
               _01628_DS_   0x00249e    program     static /dvpt/pinguino/git/pinguino-ide/pinguino/source/main.asm
               _01649_DS_   0x0022cc    program     static /dvpt/pinguino/git/pinguino-ide/pinguino/source/main.asm
               _01671_DS_   0x003f04    program     static /dvpt/pinguino/git/pinguino-ide/pinguino/source/main.asm
               _01672_DS_   0x003f08    program     static /dvpt/pinguino/git/pinguino-ide/pinguino/source/main.asm
               _01674_DS_   0x003f0e    program     static /dvpt/pinguino/git/pinguino-ide/pinguino/source/main.asm
               _01676_DS_   0x003f3e    program     static /dvpt/pinguino/git/pinguino-ide/pinguino/source/main.asm
               _01678_DS_   0x003f46    program     static /dvpt/pinguino/git/pinguino-ide/pinguino/source/main.asm
               _01680_DS_   0x003f4c    program     static /dvpt/pinguino/git/pinguino-ide/pinguino/source/main.asm
               _01705_DS_   0x003efc    program     static /dvpt/pinguino/git/pinguino-ide/pinguino/source/main.asm
               _01707_DS_   0x003f1c    program     static /dvpt/pinguino/git/pinguino-ide/pinguino/source/main.asm
               _01709_DS_   0x003f28    program     static /dvpt/pinguino/git/pinguino-ide/pinguino/source/main.asm
               _01710_DS_   0x003f34    program     static /dvpt/pinguino/git/pinguino-ide/pinguino/source/main.asm
               _01711_DS_   0x003f36    program     static /dvpt/pinguino/git/pinguino-ide/pinguino/source/main.asm
               _01716_DS_   0x004710    program     static /dvpt/pinguino/git/pinguino-ide/pinguino/source/main.asm
               _01719_DS_   0x004728    program     static /dvpt/pinguino/git/pinguino-ide/pinguino/source/main.asm
               _01727_DS_   0x004a3a    program     static /dvpt/pinguino/git/pinguino-ide/pinguino/source/main.asm
               _01730_DS_   0x004a52    program     static /dvpt/pinguino/git/pinguino-ide/pinguino/source/main.asm
               _01738_DS_   0x004d30    program     static /dvpt/pinguino/git/pinguino-ide/pinguino/source/main.asm
               _01746_DS_   0x004b84    program     static /dvpt/pinguino/git/pinguino-ide/pinguino/source/main.asm
               _01749_DS_   0x004b9a    program     static /dvpt/pinguino/git/pinguino-ide/pinguino/source/main.asm
               _01757_DS_   0x004b58    program     static /dvpt/pinguino/git/pinguino-ide/pinguino/source/main.asm
               _01760_DS_   0x004b6e    program     static /dvpt/pinguino/git/pinguino-ide/pinguino/source/main.asm
               _01768_DS_   0x004b2c    program     static /dvpt/pinguino/git/pinguino-ide/pinguino/source/main.asm
               _01771_DS_   0x004b42    program     static /dvpt/pinguino/git/pinguino-ide/pinguino/source/main.asm
               _01779_DS_   0x004ad0    program     static /dvpt/pinguino/git/pinguino-ide/pinguino/source/main.asm
               _01782_DS_   0x004aea    program     static /dvpt/pinguino/git/pinguino-ide/pinguino/source/main.asm
               _01790_DS_   0x004aa0    program     static /dvpt/pinguino/git/pinguino-ide/pinguino/source/main.asm
               _01793_DS_   0x004aba    program     static /dvpt/pinguino/git/pinguino-ide/pinguino/source/main.asm
               _01822_DS_   0x0032e6    program     static /dvpt/pinguino/git/pinguino-ide/pinguino/source/main.asm
               _01845_DS_   0x002c04    program     static /dvpt/pinguino/git/pinguino-ide/pinguino/source/main.asm
               _01847_DS_   0x002c0c    program     static /dvpt/pinguino/git/pinguino-ide/pinguino/source/main.asm
               _01849_DS_   0x002b8c    program     static /dvpt/pinguino/git/pinguino-ide/pinguino/source/main.asm
               _01850_DS_   0x002c08    program     static /dvpt/pinguino/git/pinguino-ide/pinguino/source/main.asm
               _01863_DS_   0x002ba4    program     static /dvpt/pinguino/git/pinguino-ide/pinguino/source/main.asm
               _01864_DS_   0x002bfc    program     static /dvpt/pinguino/git/pinguino-ide/pinguino/source/main.asm
               _01880_DS_   0x0048c0    program     static /dvpt/pinguino/git/pinguino-ide/pinguino/source/main.asm
               _01881_DS_   0x0048ca    program     static /dvpt/pinguino/git/pinguino-ide/pinguino/source/main.asm
               _01885_DS_   0x0048f6    program     static /dvpt/pinguino/git/pinguino-ide/pinguino/source/main.asm
               _11897_DS_   0x0030b2    program     static /dvpt/pinguino/git/pinguino-ide/pinguino/source/main.asm
               _21898_DS_   0x0030d0    program     static /dvpt/pinguino/git/pinguino-ide/pinguino/source/main.asm
               _31899_DS_   0x002a98    program     static /dvpt/pinguino/git/pinguino-ide/pinguino/source/main.asm
               _41900_DS_   0x002ab6    program     static /dvpt/pinguino/git/pinguino-ide/pinguino/source/main.asm
                  _ADCON0   0x000fc2       data     extern libdev18f47j53_a-pic18f47j53.asm
              _ADCON0bits   0x000fc2       data     extern libdev18f47j53_a-pic18f47j53.asm
                  _ADCON1   0x000fc1       data     extern libdev18f47j53_a-pic18f47j53.asm
              _ADCON1bits   0x000fc1       data     extern libdev18f47j53_a-pic18f47j53.asm
                 _ADCTRIG   0x000eb8       data     extern libdev18f47j53_a-pic18f47j53.asm
             _ADCTRIGbits   0x000eb8       data     extern libdev18f47j53_a-pic18f47j53.asm
                   _ADRES   0x000fc3       data     extern libdev18f47j53_a-pic18f47j53.asm
                  _ADRESH   0x000fc4       data     extern libdev18f47j53_a-pic18f47j53.asm
                  _ADRESL   0x000fc3       data     extern libdev18f47j53_a-pic18f47j53.asm
                 _ALRMCFG   0x000f47       data     extern libdev18f47j53_a-pic18f47j53.asm
             _ALRMCFGbits   0x000f47       data     extern libdev18f47j53_a-pic18f47j53.asm
                 _ALRMRPT   0x000f46       data     extern libdev18f47j53_a-pic18f47j53.asm
             _ALRMRPTbits   0x000f46       data     extern libdev18f47j53_a-pic18f47j53.asm
                _ALRMVALH   0x000f45       data     extern libdev18f47j53_a-pic18f47j53.asm
                _ALRMVALL   0x000f44       data     extern libdev18f47j53_a-pic18f47j53.asm
                  _ANCON0   0x000f48       data     extern libdev18f47j53_a-pic18f47j53.asm
              _ANCON0bits   0x000f48       data     extern libdev18f47j53_a-pic18f47j53.asm
                  _ANCON1   0x000f49       data     extern libdev18f47j53_a-pic18f47j53.asm
              _ANCON1bits   0x000f49       data     extern libdev18f47j53_a-pic18f47j53.asm
                 _BAUDCON   0x000f7e       data     extern libdev18f47j53_a-pic18f47j53.asm
                _BAUDCON1   0x000f7e       data     extern libdev18f47j53_a-pic18f47j53.asm
            _BAUDCON1bits   0x000f7e       data     extern libdev18f47j53_a-pic18f47j53.asm
                _BAUDCON2   0x000f7c       data     extern libdev18f47j53_a-pic18f47j53.asm
            _BAUDCON2bits   0x000f7c       data     extern libdev18f47j53_a-pic18f47j53.asm
             _BAUDCONbits   0x000f7e       data     extern libdev18f47j53_a-pic18f47j53.asm
                 _BAUDCTL   0x000f7e       data     extern libdev18f47j53_a-pic18f47j53.asm
             _BAUDCTLbits   0x000f7e       data     extern libdev18f47j53_a-pic18f47j53.asm
                     _BSR   0x000fe0       data     extern libdev18f47j53_a-pic18f47j53.asm
                _BusReset   0x00486c    program     extern /dvpt/pinguino/git/pinguino-ide/pinguino/source/main.asm
                _CCP10CON   0x000f00       data     extern libdev18f47j53_a-pic18f47j53.asm
            _CCP10CONbits   0x000f00       data     extern libdev18f47j53_a-pic18f47j53.asm
                 _CCP1CON   0x000fba       data     extern libdev18f47j53_a-pic18f47j53.asm
             _CCP1CONbits   0x000fba       data     extern libdev18f47j53_a-pic18f47j53.asm
                 _CCP2CON   0x000fb4       data     extern libdev18f47j53_a-pic18f47j53.asm
             _CCP2CONbits   0x000fb4       data     extern libdev18f47j53_a-pic18f47j53.asm
                 _CCP3CON   0x000f15       data     extern libdev18f47j53_a-pic18f47j53.asm
             _CCP3CONbits   0x000f15       data     extern libdev18f47j53_a-pic18f47j53.asm
                 _CCP4CON   0x000f12       data     extern libdev18f47j53_a-pic18f47j53.asm
             _CCP4CONbits   0x000f12       data     extern libdev18f47j53_a-pic18f47j53.asm
                 _CCP5CON   0x000f0f       data     extern libdev18f47j53_a-pic18f47j53.asm
             _CCP5CONbits   0x000f0f       data     extern libdev18f47j53_a-pic18f47j53.asm
                 _CCP6CON   0x000f0c       data     extern libdev18f47j53_a-pic18f47j53.asm
             _CCP6CONbits   0x000f0c       data     extern libdev18f47j53_a-pic18f47j53.asm
                 _CCP7CON   0x000f09       data     extern libdev18f47j53_a-pic18f47j53.asm
             _CCP7CONbits   0x000f09       data     extern libdev18f47j53_a-pic18f47j53.asm
                 _CCP8CON   0x000f06       data     extern libdev18f47j53_a-pic18f47j53.asm
             _CCP8CONbits   0x000f06       data     extern libdev18f47j53_a-pic18f47j53.asm
                 _CCP9CON   0x000f03       data     extern libdev18f47j53_a-pic18f47j53.asm
             _CCP9CONbits   0x000f03       data     extern libdev18f47j53_a-pic18f47j53.asm
                   _CCPR1   0x000fbb       data     extern libdev18f47j53_a-pic18f47j53.asm
                 _CCPR10H   0x000f02       data     extern libdev18f47j53_a-pic18f47j53.asm
                 _CCPR10L   0x000f01       data     extern libdev18f47j53_a-pic18f47j53.asm
                  _CCPR1H   0x000fbc       data     extern libdev18f47j53_a-pic18f47j53.asm
                  _CCPR1L   0x000fbb       data     extern libdev18f47j53_a-pic18f47j53.asm
                   _CCPR2   0x000fb5       data     extern libdev18f47j53_a-pic18f47j53.asm
                  _CCPR2H   0x000fb6       data     extern libdev18f47j53_a-pic18f47j53.asm
                  _CCPR2L   0x000fb5       data     extern libdev18f47j53_a-pic18f47j53.asm
                  _CCPR3H   0x000f17       data     extern libdev18f47j53_a-pic18f47j53.asm
                  _CCPR3L   0x000f16       data     extern libdev18f47j53_a-pic18f47j53.asm
                  _CCPR4H   0x000f14       data     extern libdev18f47j53_a-pic18f47j53.asm
                  _CCPR4L   0x000f13       data     extern libdev18f47j53_a-pic18f47j53.asm
                  _CCPR5H   0x000f11       data     extern libdev18f47j53_a-pic18f47j53.asm
                  _CCPR5L   0x000f10       data     extern libdev18f47j53_a-pic18f47j53.asm
                  _CCPR6H   0x000f0e       data     extern libdev18f47j53_a-pic18f47j53.asm
                  _CCPR6L   0x000f0d       data     extern libdev18f47j53_a-pic18f47j53.asm
                  _CCPR7H   0x000f0b       data     extern libdev18f47j53_a-pic18f47j53.asm
                  _CCPR7L   0x000f0a       data     extern libdev18f47j53_a-pic18f47j53.asm
                  _CCPR8H   0x000f08       data     extern libdev18f47j53_a-pic18f47j53.asm
                  _CCPR8L   0x000f07       data     extern libdev18f47j53_a-pic18f47j53.asm
                  _CCPR9H   0x000f05       data     extern libdev18f47j53_a-pic18f47j53.asm
                  _CCPR9L   0x000f04       data     extern libdev18f47j53_a-pic18f47j53.asm
                _CCPTMRS0   0x000f52       data     extern libdev18f47j53_a-pic18f47j53.asm
            _CCPTMRS0bits   0x000f52       data     extern libdev18f47j53_a-pic18f47j53.asm
                _CCPTMRS1   0x000f51       data     extern libdev18f47j53_a-pic18f47j53.asm
            _CCPTMRS1bits   0x000f51       data     extern libdev18f47j53_a-pic18f47j53.asm
                _CCPTMRS2   0x000f50       data     extern libdev18f47j53_a-pic18f47j53.asm
            _CCPTMRS2bits   0x000f50       data     extern libdev18f47j53_a-pic18f47j53.asm
        _CDCControlBuffer   0x0000f0       data     extern /dvpt/pinguino/git/pinguino-ide/pinguino/source/main.asm
         _CDCInitEndpoint   0x004762    program     extern /dvpt/pinguino/git/pinguino-ide/pinguino/source/main.asm
             _CDCRxBuffer   0x000580       data     extern /dvpt/pinguino/git/pinguino-ide/pinguino/source/main.asm
             _CDCTxBuffer   0x0005c0       data     extern /dvpt/pinguino/git/pinguino-ide/pinguino/source/main.asm
                _CDC_init   0x00438c    program     extern /dvpt/pinguino/git/pinguino-ide/pinguino/source/main.asm
           _CDC_interrupt   0x004d06    program     extern /dvpt/pinguino/git/pinguino-ide/pinguino/source/main.asm
               _CDCgetkey   0x004c28    program     extern /dvpt/pinguino/git/pinguino-ide/pinguino/source/main.asm
  _CDCgetkey_buffer_1_213   0x000100       data     static /dvpt/pinguino/git/pinguino-ide/pinguino/source/main.asm
                 _CDCgets   0x003494    program     extern /dvpt/pinguino/git/pinguino-ide/pinguino/source/main.asm
            _CDCgetstring   0x004272    program     extern /dvpt/pinguino/git/pinguino-ide/pinguino/source/main.asm
_CDCgetstring_buffer_1_215   0x000060       data     static /dvpt/pinguino/git/pinguino-ide/pinguino/source/main.asm
                _CDCprint   0x001f5a    program     extern /dvpt/pinguino/git/pinguino-ide/pinguino/source/main.asm
               _CDCprintf   0x004300    program     extern /dvpt/pinguino/git/pinguino-ide/pinguino/source/main.asm
              _CDCprintln   0x003ca0    program     extern /dvpt/pinguino/git/pinguino-ide/pinguino/source/main.asm
                 _CDCputs   0x0035b2    program     extern /dvpt/pinguino/git/pinguino-ide/pinguino/source/main.asm
                _CDCwrite   0x004ba8    program     extern /dvpt/pinguino/git/pinguino-ide/pinguino/source/main.asm
        _CDCwrite_c_1_203   0x000197       data     static /dvpt/pinguino/git/pinguino-ide/pinguino/source/main.asm
                  _CM1CON   0x000fd2       data     extern libdev18f47j53_a-pic18f47j53.asm
                 _CM1CON1   0x000fd2       data     extern libdev18f47j53_a-pic18f47j53.asm
             _CM1CON1bits   0x000fd2       data     extern libdev18f47j53_a-pic18f47j53.asm
              _CM1CONbits   0x000fd2       data     extern libdev18f47j53_a-pic18f47j53.asm
                  _CM2CON   0x000fd1       data     extern libdev18f47j53_a-pic18f47j53.asm
                 _CM2CON1   0x000fd1       data     extern libdev18f47j53_a-pic18f47j53.asm
             _CM2CON1bits   0x000fd1       data     extern libdev18f47j53_a-pic18f47j53.asm
              _CM2CONbits   0x000fd1       data     extern libdev18f47j53_a-pic18f47j53.asm
                  _CM3CON   0x000f25       data     extern libdev18f47j53_a-pic18f47j53.asm
              _CM3CONbits   0x000f25       data     extern libdev18f47j53_a-pic18f47j53.asm
                  _CMSTAT   0x000f70       data     extern libdev18f47j53_a-pic18f47j53.asm
                _CMSTATUS   0x000f70       data     extern libdev18f47j53_a-pic18f47j53.asm
            _CMSTATUSbits   0x000f70       data     extern libdev18f47j53_a-pic18f47j53.asm
              _CMSTATbits   0x000f70       data     extern libdev18f47j53_a-pic18f47j53.asm
            _CONTROL_LINE   0x000174       data     extern /dvpt/pinguino/git/pinguino-ide/pinguino/source/main.asm
                _CTMUCONH   0x000fb3       data     extern libdev18f47j53_a-pic18f47j53.asm
            _CTMUCONHbits   0x000fb3       data     extern libdev18f47j53_a-pic18f47j53.asm
                _CTMUCONL   0x000fb2       data     extern libdev18f47j53_a-pic18f47j53.asm
            _CTMUCONLbits   0x000fb2       data     extern libdev18f47j53_a-pic18f47j53.asm
                _CTMUICON   0x000fb1       data     extern libdev18f47j53_a-pic18f47j53.asm
            _CTMUICONbits   0x000fb1       data     extern libdev18f47j53_a-pic18f47j53.asm
                  _CVRCON   0x000f53       data     extern libdev18f47j53_a-pic18f47j53.asm
              _CVRCONbits   0x000f53       data     extern libdev18f47j53_a-pic18f47j53.asm
                  _DMABCH   0x000f66       data     extern libdev18f47j53_a-pic18f47j53.asm
                  _DMABCL   0x000f67       data     extern libdev18f47j53_a-pic18f47j53.asm
                 _DMACON1   0x000f88       data     extern libdev18f47j53_a-pic18f47j53.asm
             _DMACON1bits   0x000f88       data     extern libdev18f47j53_a-pic18f47j53.asm
                 _DMACON2   0x000f86       data     extern libdev18f47j53_a-pic18f47j53.asm
             _DMACON2bits   0x000f86       data     extern libdev18f47j53_a-pic18f47j53.asm
                  _DSCONH   0x000f4d       data     extern libdev18f47j53_a-pic18f47j53.asm
              _DSCONHbits   0x000f4d       data     extern libdev18f47j53_a-pic18f47j53.asm
                  _DSCONL   0x000f4c       data     extern libdev18f47j53_a-pic18f47j53.asm
              _DSCONLbits   0x000f4c       data     extern libdev18f47j53_a-pic18f47j53.asm
                  _DSGPR0   0x000f4e       data     extern libdev18f47j53_a-pic18f47j53.asm
                  _DSGPR1   0x000f4f       data     extern libdev18f47j53_a-pic18f47j53.asm
                 _DSWAKEH   0x000f4b       data     extern libdev18f47j53_a-pic18f47j53.asm
             _DSWAKEHbits   0x000f4b       data     extern libdev18f47j53_a-pic18f47j53.asm
                 _DSWAKEL   0x000f4a       data     extern libdev18f47j53_a-pic18f47j53.asm
             _DSWAKELbits   0x000f4a       data     extern libdev18f47j53_a-pic18f47j53.asm
                 _Delayms   0x0047c6    program     extern /dvpt/pinguino/git/pinguino-ide/pinguino/source/main.asm
                 _Delayus   0x00481c    program     extern /dvpt/pinguino/git/pinguino-ide/pinguino/source/main.asm
                 _ECCP1AS   0x000fbe       data     extern libdev18f47j53_a-pic18f47j53.asm
             _ECCP1ASbits   0x000fbe       data     extern libdev18f47j53_a-pic18f47j53.asm
                _ECCP1CON   0x000fba       data     extern libdev18f47j53_a-pic18f47j53.asm
            _ECCP1CONbits   0x000fba       data     extern libdev18f47j53_a-pic18f47j53.asm
                _ECCP1DEL   0x000fbd       data     extern libdev18f47j53_a-pic18f47j53.asm
            _ECCP1DELbits   0x000fbd       data     extern libdev18f47j53_a-pic18f47j53.asm
                 _ECCP2AS   0x000fb8       data     extern libdev18f47j53_a-pic18f47j53.asm
             _ECCP2ASbits   0x000fb8       data     extern libdev18f47j53_a-pic18f47j53.asm
                _ECCP2CON   0x000fb4       data     extern libdev18f47j53_a-pic18f47j53.asm
            _ECCP2CONbits   0x000fb4       data     extern libdev18f47j53_a-pic18f47j53.asm
                _ECCP2DEL   0x000fb7       data     extern libdev18f47j53_a-pic18f47j53.asm
            _ECCP2DELbits   0x000fb7       data     extern libdev18f47j53_a-pic18f47j53.asm
                 _ECCP3AS   0x000f19       data     extern libdev18f47j53_a-pic18f47j53.asm
             _ECCP3ASbits   0x000f19       data     extern libdev18f47j53_a-pic18f47j53.asm
                _ECCP3DEL   0x000f18       data     extern libdev18f47j53_a-pic18f47j53.asm
            _ECCP3DELbits   0x000f18       data     extern libdev18f47j53_a-pic18f47j53.asm
                  _EECON1   0x000fa6       data     extern libdev18f47j53_a-pic18f47j53.asm
              _EECON1bits   0x000fa6       data     extern libdev18f47j53_a-pic18f47j53.asm
                  _EECON2   0x000fa7       data     extern libdev18f47j53_a-pic18f47j53.asm
         _EnableUSBModule   0x004a66    program     extern /dvpt/pinguino/git/pinguino-ide/pinguino/source/main.asm
                   _FSR0H   0x000fea       data     extern libdev18f47j53_a-pic18f47j53.asm
                   _FSR0L   0x000fe9       data     extern libdev18f47j53_a-pic18f47j53.asm
                   _FSR1H   0x000fe2       data     extern libdev18f47j53_a-pic18f47j53.asm
                   _FSR1L   0x000fe1       data     extern libdev18f47j53_a-pic18f47j53.asm
                   _FSR2H   0x000fda       data     extern libdev18f47j53_a-pic18f47j53.asm
                   _FSR2L   0x000fd9       data     extern libdev18f47j53_a-pic18f47j53.asm
           _GetDescriptor   0x0038fa    program     static /dvpt/pinguino/git/pinguino-ide/pinguino/source/main.asm
               _GetStatus   0x0037e6    program     static /dvpt/pinguino/git/pinguino-ide/pinguino/source/main.asm
          _HIDPostProcess   0x00018d       data     extern /dvpt/pinguino/git/pinguino-ide/pinguino/source/main.asm
                 _HLVDCON   0x000f85       data     extern libdev18f47j53_a-pic18f47j53.asm
             _HLVDCONbits   0x000f85       data     extern libdev18f47j53_a-pic18f47j53.asm
                _I2C_init   0x003ebe    program     extern /dvpt/pinguino/git/pinguino-ide/pinguino/source/main.asm
              _I2C_master   0x0049be    program     extern /dvpt/pinguino/git/pinguino-ide/pinguino/source/main.asm
                _I2C_read   0x004a32    program     extern /dvpt/pinguino/git/pinguino-ide/pinguino/source/main.asm
             _I2C_restart   0x004b24    program     extern /dvpt/pinguino/git/pinguino-ide/pinguino/source/main.asm
             _I2C_sendAck   0x004ac8    program     extern /dvpt/pinguino/git/pinguino-ide/pinguino/source/main.asm
            _I2C_sendNack   0x004a98    program     extern /dvpt/pinguino/git/pinguino-ide/pinguino/source/main.asm
               _I2C_slave   0x004980    program     extern /dvpt/pinguino/git/pinguino-ide/pinguino/source/main.asm
               _I2C_start   0x004b7c    program     extern /dvpt/pinguino/git/pinguino-ide/pinguino/source/main.asm
                _I2C_stop   0x004b50    program     extern /dvpt/pinguino/git/pinguino-ide/pinguino/source/main.asm
                _I2C_wait   0x004d30    program     extern /dvpt/pinguino/git/pinguino-ide/pinguino/source/main.asm
               _I2C_write   0x0046f6    program     extern /dvpt/pinguino/git/pinguino-ide/pinguino/source/main.asm
                   _INDF0   0x000fef       data     extern libdev18f47j53_a-pic18f47j53.asm
                   _INDF1   0x000fe7       data     extern libdev18f47j53_a-pic18f47j53.asm
                   _INDF2   0x000fdf       data     extern libdev18f47j53_a-pic18f47j53.asm
                  _INTCON   0x000ff2       data     extern libdev18f47j53_a-pic18f47j53.asm
                 _INTCON2   0x000ff1       data     extern libdev18f47j53_a-pic18f47j53.asm
             _INTCON2bits   0x000ff1       data     extern libdev18f47j53_a-pic18f47j53.asm
                 _INTCON3   0x000ff0       data     extern libdev18f47j53_a-pic18f47j53.asm
             _INTCON3bits   0x000ff0       data     extern libdev18f47j53_a-pic18f47j53.asm
              _INTCONbits   0x000ff2       data     extern libdev18f47j53_a-pic18f47j53.asm
              _IO_digital   0x000c0c    program     extern /dvpt/pinguino/git/pinguino-ide/pinguino/source/main.asm
                 _IO_init   0x004c00    program     extern /dvpt/pinguino/git/pinguino-ide/pinguino/source/main.asm
                _IO_remap   0x004af8    program     extern /dvpt/pinguino/git/pinguino-ide/pinguino/source/main.asm
                    _IPR1   0x000f9f       data     extern libdev18f47j53_a-pic18f47j53.asm
                _IPR1bits   0x000f9f       data     extern libdev18f47j53_a-pic18f47j53.asm
                    _IPR2   0x000fa2       data     extern libdev18f47j53_a-pic18f47j53.asm
                _IPR2bits   0x000fa2       data     extern libdev18f47j53_a-pic18f47j53.asm
                    _IPR3   0x000fa5       data     extern libdev18f47j53_a-pic18f47j53.asm
                _IPR3bits   0x000fa5       data     extern libdev18f47j53_a-pic18f47j53.asm
                    _IPR4   0x000f90       data     extern libdev18f47j53_a-pic18f47j53.asm
                _IPR4bits   0x000f90       data     extern libdev18f47j53_a-pic18f47j53.asm
                    _IPR5   0x000f99       data     extern libdev18f47j53_a-pic18f47j53.asm
                _IPR5bits   0x000f99       data     extern libdev18f47j53_a-pic18f47j53.asm
             _InDataStage   0x002924    program     extern /dvpt/pinguino/git/pinguino-ide/pinguino/source/main.asm
                    _LATA   0x000f89       data     extern libdev18f47j53_a-pic18f47j53.asm
                _LATAbits   0x000f89       data     extern libdev18f47j53_a-pic18f47j53.asm
                    _LATB   0x000f8a       data     extern libdev18f47j53_a-pic18f47j53.asm
                _LATBbits   0x000f8a       data     extern libdev18f47j53_a-pic18f47j53.asm
                    _LATC   0x000f8b       data     extern libdev18f47j53_a-pic18f47j53.asm
                _LATCbits   0x000f8b       data     extern libdev18f47j53_a-pic18f47j53.asm
                    _LATD   0x000f8c       data     extern libdev18f47j53_a-pic18f47j53.asm
                _LATDbits   0x000f8c       data     extern libdev18f47j53_a-pic18f47j53.asm
                    _LATE   0x000f8d       data     extern libdev18f47j53_a-pic18f47j53.asm
                _LATEbits   0x000f8d       data     extern libdev18f47j53_a-pic18f47j53.asm
              _MemoryAddr   0x000176       data     extern /dvpt/pinguino/git/pinguino-ide/pinguino/source/main.asm
                  _ODCON1   0x000f42       data     extern libdev18f47j53_a-pic18f47j53.asm
              _ODCON1bits   0x000f42       data     extern libdev18f47j53_a-pic18f47j53.asm
                  _ODCON2   0x000f41       data     extern libdev18f47j53_a-pic18f47j53.asm
              _ODCON2bits   0x000f41       data     extern libdev18f47j53_a-pic18f47j53.asm
                  _ODCON3   0x000f40       data     extern libdev18f47j53_a-pic18f47j53.asm
              _ODCON3bits   0x000f40       data     extern libdev18f47j53_a-pic18f47j53.asm
                  _OSCCON   0x000fd3       data     extern libdev18f47j53_a-pic18f47j53.asm
                 _OSCCON2   0x000f87       data     extern libdev18f47j53_a-pic18f47j53.asm
             _OSCCON2bits   0x000f87       data     extern libdev18f47j53_a-pic18f47j53.asm
              _OSCCONbits   0x000fd3       data     extern libdev18f47j53_a-pic18f47j53.asm
                 _OSCTUNE   0x000f9b       data     extern libdev18f47j53_a-pic18f47j53.asm
             _OSCTUNEbits   0x000f9b       data     extern libdev18f47j53_a-pic18f47j53.asm
            _OutDataStage   0x002fce    program     extern /dvpt/pinguino/git/pinguino-ide/pinguino/source/main.asm
                 _PADCFG1   0x000f3c       data     extern libdev18f47j53_a-pic18f47j53.asm
             _PADCFG1bits   0x000f3c       data     extern libdev18f47j53_a-pic18f47j53.asm
                      _PC   0x000ff9       data     extern libdev18f47j53_a-pic18f47j53.asm
                     _PCL   0x000ff9       data     extern libdev18f47j53_a-pic18f47j53.asm
                  _PCLATH   0x000ffa       data     extern libdev18f47j53_a-pic18f47j53.asm
                  _PCLATU   0x000ffb       data     extern libdev18f47j53_a-pic18f47j53.asm
                     _PD0   0x000eb9       data     extern libdev18f47j53_a-pic18f47j53.asm
                 _PD0bits   0x000eb9       data     extern libdev18f47j53_a-pic18f47j53.asm
                     _PD1   0x000eba       data     extern libdev18f47j53_a-pic18f47j53.asm
                 _PD1bits   0x000eba       data     extern libdev18f47j53_a-pic18f47j53.asm
                     _PD2   0x000ebb       data     extern libdev18f47j53_a-pic18f47j53.asm
                 _PD2bits   0x000ebb       data     extern libdev18f47j53_a-pic18f47j53.asm
                     _PD3   0x000ebc       data     extern libdev18f47j53_a-pic18f47j53.asm
                 _PD3bits   0x000ebc       data     extern libdev18f47j53_a-pic18f47j53.asm
                    _PIE1   0x000f9d       data     extern libdev18f47j53_a-pic18f47j53.asm
                _PIE1bits   0x000f9d       data     extern libdev18f47j53_a-pic18f47j53.asm
                    _PIE2   0x000fa0       data     extern libdev18f47j53_a-pic18f47j53.asm
                _PIE2bits   0x000fa0       data     extern libdev18f47j53_a-pic18f47j53.asm
                    _PIE3   0x000fa3       data     extern libdev18f47j53_a-pic18f47j53.asm
                _PIE3bits   0x000fa3       data     extern libdev18f47j53_a-pic18f47j53.asm
                    _PIE4   0x000f8e       data     extern libdev18f47j53_a-pic18f47j53.asm
                _PIE4bits   0x000f8e       data     extern libdev18f47j53_a-pic18f47j53.asm
                    _PIE5   0x000f91       data     extern libdev18f47j53_a-pic18f47j53.asm
                _PIE5bits   0x000f91       data     extern libdev18f47j53_a-pic18f47j53.asm
                    _PIR1   0x000f9e       data     extern libdev18f47j53_a-pic18f47j53.asm
                _PIR1bits   0x000f9e       data     extern libdev18f47j53_a-pic18f47j53.asm
                    _PIR2   0x000fa1       data     extern libdev18f47j53_a-pic18f47j53.asm
                _PIR2bits   0x000fa1       data     extern libdev18f47j53_a-pic18f47j53.asm
                    _PIR3   0x000fa4       data     extern libdev18f47j53_a-pic18f47j53.asm
                _PIR3bits   0x000fa4       data     extern libdev18f47j53_a-pic18f47j53.asm
                    _PIR4   0x000f8f       data     extern libdev18f47j53_a-pic18f47j53.asm
                _PIR4bits   0x000f8f       data     extern libdev18f47j53_a-pic18f47j53.asm
                    _PIR5   0x000f98       data     extern libdev18f47j53_a-pic18f47j53.asm
                _PIR5bits   0x000f98       data     extern libdev18f47j53_a-pic18f47j53.asm
                  _PLUSW0   0x000feb       data     extern libdev18f47j53_a-pic18f47j53.asm
                  _PLUSW1   0x000fe3       data     extern libdev18f47j53_a-pic18f47j53.asm
                  _PLUSW2   0x000fdb       data     extern libdev18f47j53_a-pic18f47j53.asm
                 _PMADDRH   0x000f6f       data     extern libdev18f47j53_a-pic18f47j53.asm
             _PMADDRHbits   0x000f6f       data     extern libdev18f47j53_a-pic18f47j53.asm
                 _PMADDRL   0x000f6e       data     extern libdev18f47j53_a-pic18f47j53.asm
                  _PMCONH   0x000f5f       data     extern libdev18f47j53_a-pic18f47j53.asm
              _PMCONHbits   0x000f5f       data     extern libdev18f47j53_a-pic18f47j53.asm
                  _PMCONL   0x000f5e       data     extern libdev18f47j53_a-pic18f47j53.asm
              _PMCONLbits   0x000f5e       data     extern libdev18f47j53_a-pic18f47j53.asm
                 _PMDIN1H   0x000f6d       data     extern libdev18f47j53_a-pic18f47j53.asm
                 _PMDIN1L   0x000f6c       data     extern libdev18f47j53_a-pic18f47j53.asm
                 _PMDIN2H   0x000f59       data     extern libdev18f47j53_a-pic18f47j53.asm
                 _PMDIN2L   0x000f58       data     extern libdev18f47j53_a-pic18f47j53.asm
                  _PMDIS0   0x000eb9       data     extern libdev18f47j53_a-pic18f47j53.asm
              _PMDIS0bits   0x000eb9       data     extern libdev18f47j53_a-pic18f47j53.asm
                  _PMDIS1   0x000eba       data     extern libdev18f47j53_a-pic18f47j53.asm
              _PMDIS1bits   0x000eba       data     extern libdev18f47j53_a-pic18f47j53.asm
                  _PMDIS2   0x000ebb       data     extern libdev18f47j53_a-pic18f47j53.asm
              _PMDIS2bits   0x000ebb       data     extern libdev18f47j53_a-pic18f47j53.asm
                  _PMDIS3   0x000ebc       data     extern libdev18f47j53_a-pic18f47j53.asm
              _PMDIS3bits   0x000ebc       data     extern libdev18f47j53_a-pic18f47j53.asm
                _PMDOUT1H   0x000f6f       data     extern libdev18f47j53_a-pic18f47j53.asm
                _PMDOUT1L   0x000f6e       data     extern libdev18f47j53_a-pic18f47j53.asm
                _PMDOUT2H   0x000f5b       data     extern libdev18f47j53_a-pic18f47j53.asm
                _PMDOUT2L   0x000f5a       data     extern libdev18f47j53_a-pic18f47j53.asm
                    _PMEH   0x000f57       data     extern libdev18f47j53_a-pic18f47j53.asm
                _PMEHbits   0x000f57       data     extern libdev18f47j53_a-pic18f47j53.asm
                    _PMEL   0x000f56       data     extern libdev18f47j53_a-pic18f47j53.asm
                _PMELbits   0x000f56       data     extern libdev18f47j53_a-pic18f47j53.asm
                 _PMMODEH   0x000f5d       data     extern libdev18f47j53_a-pic18f47j53.asm
             _PMMODEHbits   0x000f5d       data     extern libdev18f47j53_a-pic18f47j53.asm
                 _PMMODEL   0x000f5c       data     extern libdev18f47j53_a-pic18f47j53.asm
             _PMMODELbits   0x000f5c       data     extern libdev18f47j53_a-pic18f47j53.asm
                 _PMSTATH   0x000f55       data     extern libdev18f47j53_a-pic18f47j53.asm
             _PMSTATHbits   0x000f55       data     extern libdev18f47j53_a-pic18f47j53.asm
                 _PMSTATL   0x000f54       data     extern libdev18f47j53_a-pic18f47j53.asm
             _PMSTATLbits   0x000f54       data     extern libdev18f47j53_a-pic18f47j53.asm
                   _PORTA   0x000f80       data     extern libdev18f47j53_a-pic18f47j53.asm
               _PORTAbits   0x000f80       data     extern libdev18f47j53_a-pic18f47j53.asm
                   _PORTB   0x000f81       data     extern libdev18f47j53_a-pic18f47j53.asm
               _PORTBbits   0x000f81       data     extern libdev18f47j53_a-pic18f47j53.asm
                   _PORTC   0x000f82       data     extern libdev18f47j53_a-pic18f47j53.asm
               _PORTCbits   0x000f82       data     extern libdev18f47j53_a-pic18f47j53.asm
                   _PORTD   0x000f83       data     extern libdev18f47j53_a-pic18f47j53.asm
               _PORTDbits   0x000f83       data     extern libdev18f47j53_a-pic18f47j53.asm
                   _PORTE   0x000f84       data     extern libdev18f47j53_a-pic18f47j53.asm
               _PORTEbits   0x000f84       data     extern libdev18f47j53_a-pic18f47j53.asm
                _POSTDEC0   0x000fed       data     extern libdev18f47j53_a-pic18f47j53.asm
                _POSTDEC1   0x000fe5       data     extern libdev18f47j53_a-pic18f47j53.asm
                _POSTDEC2   0x000fdd       data     extern libdev18f47j53_a-pic18f47j53.asm
                _POSTINC0   0x000fee       data     extern libdev18f47j53_a-pic18f47j53.asm
                _POSTINC1   0x000fe6       data     extern libdev18f47j53_a-pic18f47j53.asm
                _POSTINC2   0x000fde       data     extern libdev18f47j53_a-pic18f47j53.asm
                  _PPSCON   0x000ebf       data     extern libdev18f47j53_a-pic18f47j53.asm
              _PPSCONbits   0x000ebf       data     extern libdev18f47j53_a-pic18f47j53.asm
                     _PR2   0x000fcb       data     extern libdev18f47j53_a-pic18f47j53.asm
                     _PR4   0x000f77       data     extern libdev18f47j53_a-pic18f47j53.asm
                     _PR6   0x000f1f       data     extern libdev18f47j53_a-pic18f47j53.asm
                     _PR8   0x000f1c       data     extern libdev18f47j53_a-pic18f47j53.asm
                 _PREINC0   0x000fec       data     extern libdev18f47j53_a-pic18f47j53.asm
                 _PREINC1   0x000fe4       data     extern libdev18f47j53_a-pic18f47j53.asm
                 _PREINC2   0x000fdc       data     extern libdev18f47j53_a-pic18f47j53.asm
                    _PROD   0x000ff3       data     extern libdev18f47j53_a-pic18f47j53.asm
                   _PRODH   0x000ff4       data     extern libdev18f47j53_a-pic18f47j53.asm
                   _PRODL   0x000ff3       data     extern libdev18f47j53_a-pic18f47j53.asm
                _PSTR1CON   0x000fbf       data     extern libdev18f47j53_a-pic18f47j53.asm
            _PSTR1CONbits   0x000fbf       data     extern libdev18f47j53_a-pic18f47j53.asm
                _PSTR2CON   0x000fb9       data     extern libdev18f47j53_a-pic18f47j53.asm
            _PSTR2CONbits   0x000fb9       data     extern libdev18f47j53_a-pic18f47j53.asm
                _PSTR3CON   0x000f1a       data     extern libdev18f47j53_a-pic18f47j53.asm
            _PSTR3CONbits   0x000f1a       data     extern libdev18f47j53_a-pic18f47j53.asm
                 _PWM1CON   0x000fbd       data     extern libdev18f47j53_a-pic18f47j53.asm
             _PWM1CONbits   0x000fbd       data     extern libdev18f47j53_a-pic18f47j53.asm
                 _PWM2CON   0x000fb7       data     extern libdev18f47j53_a-pic18f47j53.asm
             _PWM2CONbits   0x000fb7       data     extern libdev18f47j53_a-pic18f47j53.asm
       _ProcessCDCRequest   0x003e16    program     extern /dvpt/pinguino/git/pinguino-ide/pinguino/source/main.asm
  _ProcessControlTransfer   0x003f64    program     extern /dvpt/pinguino/git/pinguino-ide/pinguino/source/main.asm
  _ProcessStandardRequest   0x003af4    program     extern /dvpt/pinguino/git/pinguino-ide/pinguino/source/main.asm
  _ProcessUSBTransactions   0x00451c    program     extern /dvpt/pinguino/git/pinguino-ide/pinguino/source/main.asm
                    _RCON   0x000fd0       data     extern libdev18f47j53_a-pic18f47j53.asm
                _RCONbits   0x000fd0       data     extern libdev18f47j53_a-pic18f47j53.asm
                   _RCREG   0x000faf       data     extern libdev18f47j53_a-pic18f47j53.asm
                  _RCREG1   0x000faf       data     extern libdev18f47j53_a-pic18f47j53.asm
                  _RCREG2   0x000faa       data     extern libdev18f47j53_a-pic18f47j53.asm
                   _RCSTA   0x000fac       data     extern libdev18f47j53_a-pic18f47j53.asm
                  _RCSTA1   0x000fac       data     extern libdev18f47j53_a-pic18f47j53.asm
              _RCSTA1bits   0x000fac       data     extern libdev18f47j53_a-pic18f47j53.asm
                  _RCSTA2   0x000f9c       data     extern libdev18f47j53_a-pic18f47j53.asm
              _RCSTA2bits   0x000f9c       data     extern libdev18f47j53_a-pic18f47j53.asm
               _RCSTAbits   0x000fac       data     extern libdev18f47j53_a-pic18f47j53.asm
                 _REFOCON   0x000f3d       data     extern libdev18f47j53_a-pic18f47j53.asm
             _REFOCONbits   0x000f3d       data     extern libdev18f47j53_a-pic18f47j53.asm
                  _RPINR1   0x000ee1       data     extern libdev18f47j53_a-pic18f47j53.asm
                 _RPINR12   0x000ef2       data     extern libdev18f47j53_a-pic18f47j53.asm
                 _RPINR13   0x000ef3       data     extern libdev18f47j53_a-pic18f47j53.asm
                 _RPINR14   0x000ef4       data     extern libdev18f47j53_a-pic18f47j53.asm
                 _RPINR15   0x000ee7       data     extern libdev18f47j53_a-pic18f47j53.asm
                 _RPINR16   0x000ef7       data     extern libdev18f47j53_a-pic18f47j53.asm
                 _RPINR17   0x000ef8       data     extern libdev18f47j53_a-pic18f47j53.asm
                  _RPINR2   0x000ee2       data     extern libdev18f47j53_a-pic18f47j53.asm
                 _RPINR21   0x000efc       data     extern libdev18f47j53_a-pic18f47j53.asm
                 _RPINR22   0x000efd       data     extern libdev18f47j53_a-pic18f47j53.asm
                 _RPINR23   0x000efe       data     extern libdev18f47j53_a-pic18f47j53.asm
                 _RPINR24   0x000eff       data     extern libdev18f47j53_a-pic18f47j53.asm
                  _RPINR3   0x000ee3       data     extern libdev18f47j53_a-pic18f47j53.asm
                  _RPINR4   0x000ee4       data     extern libdev18f47j53_a-pic18f47j53.asm
                  _RPINR6   0x000ee6       data     extern libdev18f47j53_a-pic18f47j53.asm
                  _RPINR7   0x000ee8       data     extern libdev18f47j53_a-pic18f47j53.asm
                  _RPINR8   0x000ee9       data     extern libdev18f47j53_a-pic18f47j53.asm
                  _RPINR9   0x000eea       data     extern libdev18f47j53_a-pic18f47j53.asm
                   _RPOR0   0x000ec0       data     extern libdev18f47j53_a-pic18f47j53.asm
                   _RPOR1   0x000ec1       data     extern libdev18f47j53_a-pic18f47j53.asm
                  _RPOR10   0x000eca       data     extern libdev18f47j53_a-pic18f47j53.asm
                  _RPOR11   0x000ecb       data     extern libdev18f47j53_a-pic18f47j53.asm
                  _RPOR12   0x000ecc       data     extern libdev18f47j53_a-pic18f47j53.asm
                  _RPOR13   0x000ecd       data     extern libdev18f47j53_a-pic18f47j53.asm
                  _RPOR17   0x000ed1       data     extern libdev18f47j53_a-pic18f47j53.asm
                  _RPOR18   0x000ed2       data     extern libdev18f47j53_a-pic18f47j53.asm
                  _RPOR19   0x000ed3       data     extern libdev18f47j53_a-pic18f47j53.asm
                   _RPOR2   0x000ec2       data     extern libdev18f47j53_a-pic18f47j53.asm
                  _RPOR20   0x000ed4       data     extern libdev18f47j53_a-pic18f47j53.asm
                  _RPOR21   0x000ed5       data     extern libdev18f47j53_a-pic18f47j53.asm
                  _RPOR22   0x000ed6       data     extern libdev18f47j53_a-pic18f47j53.asm
                  _RPOR23   0x000ed7       data     extern libdev18f47j53_a-pic18f47j53.asm
                  _RPOR24   0x000ed8       data     extern libdev18f47j53_a-pic18f47j53.asm
                   _RPOR3   0x000ec3       data     extern libdev18f47j53_a-pic18f47j53.asm
                   _RPOR4   0x000ec4       data     extern libdev18f47j53_a-pic18f47j53.asm
                   _RPOR5   0x000ec5       data     extern libdev18f47j53_a-pic18f47j53.asm
                   _RPOR6   0x000ec6       data     extern libdev18f47j53_a-pic18f47j53.asm
                   _RPOR7   0x000ec7       data     extern libdev18f47j53_a-pic18f47j53.asm
                   _RPOR8   0x000ec8       data     extern libdev18f47j53_a-pic18f47j53.asm
                   _RPOR9   0x000ec9       data     extern libdev18f47j53_a-pic18f47j53.asm
                  _RTCCAL   0x000f3e       data     extern libdev18f47j53_a-pic18f47j53.asm
              _RTCCALbits   0x000f3e       data     extern libdev18f47j53_a-pic18f47j53.asm
                  _RTCCFG   0x000f3f       data     extern libdev18f47j53_a-pic18f47j53.asm
              _RTCCFGbits   0x000f3f       data     extern libdev18f47j53_a-pic18f47j53.asm
                 _RTCVALH   0x000f3b       data     extern libdev18f47j53_a-pic18f47j53.asm
                 _RTCVALL   0x000f3a       data     extern libdev18f47j53_a-pic18f47j53.asm
                 _RXADDRH   0x000f68       data     extern libdev18f47j53_a-pic18f47j53.asm
                 _RXADDRL   0x000f69       data     extern libdev18f47j53_a-pic18f47j53.asm
                   _SPBRG   0x000fb0       data     extern libdev18f47j53_a-pic18f47j53.asm
                  _SPBRG1   0x000fb0       data     extern libdev18f47j53_a-pic18f47j53.asm
                  _SPBRG2   0x000fab       data     extern libdev18f47j53_a-pic18f47j53.asm
                  _SPBRGH   0x000f7f       data     extern libdev18f47j53_a-pic18f47j53.asm
                 _SPBRGH1   0x000f7f       data     extern libdev18f47j53_a-pic18f47j53.asm
                 _SPBRGH2   0x000f7d       data     extern libdev18f47j53_a-pic18f47j53.asm
                 _SSP1ADD   0x000fc8       data     extern libdev18f47j53_a-pic18f47j53.asm
                 _SSP1BUF   0x000fc9       data     extern libdev18f47j53_a-pic18f47j53.asm
                _SSP1CON1   0x000fc6       data     extern libdev18f47j53_a-pic18f47j53.asm
            _SSP1CON1bits   0x000fc6       data     extern libdev18f47j53_a-pic18f47j53.asm
                _SSP1CON2   0x000fc5       data     extern libdev18f47j53_a-pic18f47j53.asm
            _SSP1CON2bits   0x000fc5       data     extern libdev18f47j53_a-pic18f47j53.asm
                 _SSP1MSK   0x000fc8       data     extern libdev18f47j53_a-pic18f47j53.asm
             _SSP1MSKbits   0x000fc8       data     extern libdev18f47j53_a-pic18f47j53.asm
                _SSP1STAT   0x000fc7       data     extern libdev18f47j53_a-pic18f47j53.asm
            _SSP1STATbits   0x000fc7       data     extern libdev18f47j53_a-pic18f47j53.asm
                 _SSP2ADD   0x000f74       data     extern libdev18f47j53_a-pic18f47j53.asm
                 _SSP2BUF   0x000f75       data     extern libdev18f47j53_a-pic18f47j53.asm
                _SSP2CON1   0x000f72       data     extern libdev18f47j53_a-pic18f47j53.asm
            _SSP2CON1bits   0x000f72       data     extern libdev18f47j53_a-pic18f47j53.asm
                _SSP2CON2   0x000f71       data     extern libdev18f47j53_a-pic18f47j53.asm
            _SSP2CON2bits   0x000f71       data     extern libdev18f47j53_a-pic18f47j53.asm
                 _SSP2MSK   0x000f74       data     extern libdev18f47j53_a-pic18f47j53.asm
             _SSP2MSKbits   0x000f74       data     extern libdev18f47j53_a-pic18f47j53.asm
                _SSP2STAT   0x000f73       data     extern libdev18f47j53_a-pic18f47j53.asm
            _SSP2STATbits   0x000f73       data     extern libdev18f47j53_a-pic18f47j53.asm
                  _SSPADD   0x000fc8       data     extern libdev18f47j53_a-pic18f47j53.asm
                  _SSPBUF   0x000fc9       data     extern libdev18f47j53_a-pic18f47j53.asm
                 _SSPCON1   0x000fc6       data     extern libdev18f47j53_a-pic18f47j53.asm
             _SSPCON1bits   0x000fc6       data     extern libdev18f47j53_a-pic18f47j53.asm
                 _SSPCON2   0x000fc5       data     extern libdev18f47j53_a-pic18f47j53.asm
             _SSPCON2bits   0x000fc5       data     extern libdev18f47j53_a-pic18f47j53.asm
                 _SSPSTAT   0x000fc7       data     extern libdev18f47j53_a-pic18f47j53.asm
             _SSPSTATbits   0x000fc7       data     extern libdev18f47j53_a-pic18f47j53.asm
                  _STATUS   0x000fd8       data     extern libdev18f47j53_a-pic18f47j53.asm
              _STATUSbits   0x000fd8       data     extern libdev18f47j53_a-pic18f47j53.asm
                  _STKPTR   0x000ffc       data     extern libdev18f47j53_a-pic18f47j53.asm
              _STKPTRbits   0x000ffc       data     extern libdev18f47j53_a-pic18f47j53.asm
              _SetFeature   0x003104    program     static /dvpt/pinguino/git/pinguino-ide/pinguino/source/main.asm
             _SetupPacket   0x000500       data     extern /dvpt/pinguino/git/pinguino-ide/pinguino/source/main.asm
              _SetupStage   0x003bce    program     extern /dvpt/pinguino/git/pinguino-ide/pinguino/source/main.asm
                   _Stall   0x004c74    program     extern /dvpt/pinguino/git/pinguino-ide/pinguino/source/main.asm
            _StartOfFrame   0x000c04    program     extern /dvpt/pinguino/git/pinguino-ide/pinguino/source/main.asm
                 _Suspend   0x004c50    program     extern /dvpt/pinguino/git/pinguino-ide/pinguino/source/main.asm
                   _T0CON   0x000fd5       data     extern libdev18f47j53_a-pic18f47j53.asm
               _T0CONbits   0x000fd5       data     extern libdev18f47j53_a-pic18f47j53.asm
                   _T1CON   0x000fcd       data     extern libdev18f47j53_a-pic18f47j53.asm
               _T1CONbits   0x000fcd       data     extern libdev18f47j53_a-pic18f47j53.asm
                  _T1GCON   0x000f9a       data     extern libdev18f47j53_a-pic18f47j53.asm
              _T1GCONbits   0x000f9a       data     extern libdev18f47j53_a-pic18f47j53.asm
                   _T2CON   0x000fca       data     extern libdev18f47j53_a-pic18f47j53.asm
               _T2CONbits   0x000fca       data     extern libdev18f47j53_a-pic18f47j53.asm
                   _T3CON   0x000f79       data     extern libdev18f47j53_a-pic18f47j53.asm
               _T3CONbits   0x000f79       data     extern libdev18f47j53_a-pic18f47j53.asm
                  _T3GCON   0x000f97       data     extern libdev18f47j53_a-pic18f47j53.asm
              _T3GCONbits   0x000f97       data     extern libdev18f47j53_a-pic18f47j53.asm
                   _T4CON   0x000f76       data     extern libdev18f47j53_a-pic18f47j53.asm
               _T4CONbits   0x000f76       data     extern libdev18f47j53_a-pic18f47j53.asm
                   _T5CON   0x000f22       data     extern libdev18f47j53_a-pic18f47j53.asm
               _T5CONbits   0x000f22       data     extern libdev18f47j53_a-pic18f47j53.asm
                  _T5GCON   0x000f21       data     extern libdev18f47j53_a-pic18f47j53.asm
              _T5GCONbits   0x000f21       data     extern libdev18f47j53_a-pic18f47j53.asm
                   _T6CON   0x000f1e       data     extern libdev18f47j53_a-pic18f47j53.asm
               _T6CONbits   0x000f1e       data     extern libdev18f47j53_a-pic18f47j53.asm
                   _T8CON   0x000f1b       data     extern libdev18f47j53_a-pic18f47j53.asm
               _T8CONbits   0x000f1b       data     extern libdev18f47j53_a-pic18f47j53.asm
                  _TABLAT   0x000ff5       data     extern libdev18f47j53_a-pic18f47j53.asm
                  _TBLPTR   0x000ff6       data     extern libdev18f47j53_a-pic18f47j53.asm
                 _TBLPTRH   0x000ff7       data     extern libdev18f47j53_a-pic18f47j53.asm
                 _TBLPTRL   0x000ff6       data     extern libdev18f47j53_a-pic18f47j53.asm
                 _TBLPTRU   0x000ff8       data     extern libdev18f47j53_a-pic18f47j53.asm
                    _TMR0   0x000fd6       data     extern libdev18f47j53_a-pic18f47j53.asm
                   _TMR0H   0x000fd7       data     extern libdev18f47j53_a-pic18f47j53.asm
                   _TMR0L   0x000fd6       data     extern libdev18f47j53_a-pic18f47j53.asm
                    _TMR1   0x000fce       data     extern libdev18f47j53_a-pic18f47j53.asm
                   _TMR1H   0x000fcf       data     extern libdev18f47j53_a-pic18f47j53.asm
                   _TMR1L   0x000fce       data     extern libdev18f47j53_a-pic18f47j53.asm
                    _TMR2   0x000fcc       data     extern libdev18f47j53_a-pic18f47j53.asm
                    _TMR3   0x000f7a       data     extern libdev18f47j53_a-pic18f47j53.asm
                   _TMR3H   0x000f7b       data     extern libdev18f47j53_a-pic18f47j53.asm
                   _TMR3L   0x000f7a       data     extern libdev18f47j53_a-pic18f47j53.asm
                    _TMR4   0x000f78       data     extern libdev18f47j53_a-pic18f47j53.asm
                   _TMR5H   0x000f24       data     extern libdev18f47j53_a-pic18f47j53.asm
                   _TMR5L   0x000f23       data     extern libdev18f47j53_a-pic18f47j53.asm
                    _TMR6   0x000f20       data     extern libdev18f47j53_a-pic18f47j53.asm
                    _TMR8   0x000f1d       data     extern libdev18f47j53_a-pic18f47j53.asm
                     _TOS   0x000ffd       data     extern libdev18f47j53_a-pic18f47j53.asm
                    _TOSH   0x000ffe       data     extern libdev18f47j53_a-pic18f47j53.asm
                    _TOSL   0x000ffd       data     extern libdev18f47j53_a-pic18f47j53.asm
                    _TOSU   0x000fff       data     extern libdev18f47j53_a-pic18f47j53.asm
                   _TRISA   0x000f92       data     extern libdev18f47j53_a-pic18f47j53.asm
               _TRISAbits   0x000f92       data     extern libdev18f47j53_a-pic18f47j53.asm
                   _TRISB   0x000f93       data     extern libdev18f47j53_a-pic18f47j53.asm
               _TRISBbits   0x000f93       data     extern libdev18f47j53_a-pic18f47j53.asm
                   _TRISC   0x000f94       data     extern libdev18f47j53_a-pic18f47j53.asm
               _TRISCbits   0x000f94       data     extern libdev18f47j53_a-pic18f47j53.asm
                   _TRISD   0x000f95       data     extern libdev18f47j53_a-pic18f47j53.asm
               _TRISDbits   0x000f95       data     extern libdev18f47j53_a-pic18f47j53.asm
                   _TRISE   0x000f96       data     extern libdev18f47j53_a-pic18f47j53.asm
               _TRISEbits   0x000f96       data     extern libdev18f47j53_a-pic18f47j53.asm
                 _TXADDRH   0x000f6a       data     extern libdev18f47j53_a-pic18f47j53.asm
                 _TXADDRL   0x000f6b       data     extern libdev18f47j53_a-pic18f47j53.asm
                   _TXREG   0x000fae       data     extern libdev18f47j53_a-pic18f47j53.asm
                  _TXREG1   0x000fae       data     extern libdev18f47j53_a-pic18f47j53.asm
                  _TXREG2   0x000fa9       data     extern libdev18f47j53_a-pic18f47j53.asm
                   _TXSTA   0x000fad       data     extern libdev18f47j53_a-pic18f47j53.asm
                  _TXSTA1   0x000fad       data     extern libdev18f47j53_a-pic18f47j53.asm
              _TXSTA1bits   0x000fad       data     extern libdev18f47j53_a-pic18f47j53.asm
                  _TXSTA2   0x000fa8       data     extern libdev18f47j53_a-pic18f47j53.asm
              _TXSTA2bits   0x000fa8       data     extern libdev18f47j53_a-pic18f47j53.asm
               _TXSTAbits   0x000fad       data     extern libdev18f47j53_a-pic18f47j53.asm
                   _UADDR   0x000f38       data     extern libdev18f47j53_a-pic18f47j53.asm
               _UADDRbits   0x000f38       data     extern libdev18f47j53_a-pic18f47j53.asm
                    _UCFG   0x000f39       data     extern libdev18f47j53_a-pic18f47j53.asm
                _UCFGbits   0x000f39       data     extern libdev18f47j53_a-pic18f47j53.asm
                    _UCON   0x000f65       data     extern libdev18f47j53_a-pic18f47j53.asm
                _UCONbits   0x000f65       data     extern libdev18f47j53_a-pic18f47j53.asm
                    _UEIE   0x000f37       data     extern libdev18f47j53_a-pic18f47j53.asm
                _UEIEbits   0x000f37       data     extern libdev18f47j53_a-pic18f47j53.asm
                    _UEIR   0x000f63       data     extern libdev18f47j53_a-pic18f47j53.asm
                _UEIRbits   0x000f63       data     extern libdev18f47j53_a-pic18f47j53.asm
                    _UEP0   0x000f26       data     extern libdev18f47j53_a-pic18f47j53.asm
                _UEP0bits   0x000f26       data     extern libdev18f47j53_a-pic18f47j53.asm
                    _UEP1   0x000f27       data     extern libdev18f47j53_a-pic18f47j53.asm
                   _UEP10   0x000f30       data     extern libdev18f47j53_a-pic18f47j53.asm
               _UEP10bits   0x000f30       data     extern libdev18f47j53_a-pic18f47j53.asm
                   _UEP11   0x000f31       data     extern libdev18f47j53_a-pic18f47j53.asm
               _UEP11bits   0x000f31       data     extern libdev18f47j53_a-pic18f47j53.asm
                   _UEP12   0x000f32       data     extern libdev18f47j53_a-pic18f47j53.asm
               _UEP12bits   0x000f32       data     extern libdev18f47j53_a-pic18f47j53.asm
                   _UEP13   0x000f33       data     extern libdev18f47j53_a-pic18f47j53.asm
               _UEP13bits   0x000f33       data     extern libdev18f47j53_a-pic18f47j53.asm
                   _UEP14   0x000f34       data     extern libdev18f47j53_a-pic18f47j53.asm
               _UEP14bits   0x000f34       data     extern libdev18f47j53_a-pic18f47j53.asm
                   _UEP15   0x000f35       data     extern libdev18f47j53_a-pic18f47j53.asm
               _UEP15bits   0x000f35       data     extern libdev18f47j53_a-pic18f47j53.asm
                _UEP1bits   0x000f27       data     extern libdev18f47j53_a-pic18f47j53.asm
                    _UEP2   0x000f28       data     extern libdev18f47j53_a-pic18f47j53.asm
                _UEP2bits   0x000f28       data     extern libdev18f47j53_a-pic18f47j53.asm
                    _UEP3   0x000f29       data     extern libdev18f47j53_a-pic18f47j53.asm
                _UEP3bits   0x000f29       data     extern libdev18f47j53_a-pic18f47j53.asm
                    _UEP4   0x000f2a       data     extern libdev18f47j53_a-pic18f47j53.asm
                _UEP4bits   0x000f2a       data     extern libdev18f47j53_a-pic18f47j53.asm
                    _UEP5   0x000f2b       data     extern libdev18f47j53_a-pic18f47j53.asm
                _UEP5bits   0x000f2b       data     extern libdev18f47j53_a-pic18f47j53.asm
                    _UEP6   0x000f2c       data     extern libdev18f47j53_a-pic18f47j53.asm
                _UEP6bits   0x000f2c       data     extern libdev18f47j53_a-pic18f47j53.asm
                    _UEP7   0x000f2d       data     extern libdev18f47j53_a-pic18f47j53.asm
                _UEP7bits   0x000f2d       data     extern libdev18f47j53_a-pic18f47j53.asm
                    _UEP8   0x000f2e       data     extern libdev18f47j53_a-pic18f47j53.asm
                _UEP8bits   0x000f2e       data     extern libdev18f47j53_a-pic18f47j53.asm
                    _UEP9   0x000f2f       data     extern libdev18f47j53_a-pic18f47j53.asm
                _UEP9bits   0x000f2f       data     extern libdev18f47j53_a-pic18f47j53.asm
                    _UFRM   0x000f60       data     extern libdev18f47j53_a-pic18f47j53.asm
                   _UFRMH   0x000f61       data     extern libdev18f47j53_a-pic18f47j53.asm
               _UFRMHbits   0x000f61       data     extern libdev18f47j53_a-pic18f47j53.asm
                   _UFRML   0x000f60       data     extern libdev18f47j53_a-pic18f47j53.asm
               _UFRMLbits   0x000f60       data     extern libdev18f47j53_a-pic18f47j53.asm
                     _UIE   0x000f36       data     extern libdev18f47j53_a-pic18f47j53.asm
                 _UIEbits   0x000f36       data     extern libdev18f47j53_a-pic18f47j53.asm
                     _UIR   0x000f62       data     extern libdev18f47j53_a-pic18f47j53.asm
                 _UIRbits   0x000f62       data     extern libdev18f47j53_a-pic18f47j53.asm
                   _USTAT   0x000f64       data     extern libdev18f47j53_a-pic18f47j53.asm
               _USTATbits   0x000f64       data     extern libdev18f47j53_a-pic18f47j53.asm
               _UnSuspend   0x004d26    program     extern /dvpt/pinguino/git/pinguino-ide/pinguino/source/main.asm
                  _WDTCON   0x000fc0       data     extern libdev18f47j53_a-pic18f47j53.asm
              _WDTCONbits   0x000fc0       data     extern libdev18f47j53_a-pic18f47j53.asm
                    _WREG   0x000fe8       data     extern libdev18f47j53_a-pic18f47j53.asm
       _WaitForSetupStage   0x004cd6    program     extern /dvpt/pinguino/git/pinguino-ide/pinguino/source/main.asm
       ___eeprom_gptrget1   0x004d3e    program     extern /dvpt/sdcc/sources/sdcc/device/non-free/lib/pic16/libdev/gptr/dispatch.S
       ___eeprom_gptrget2   0x004d3e    program     extern /dvpt/sdcc/sources/sdcc/device/non-free/lib/pic16/libdev/gptr/dispatch.S
       ___eeprom_gptrget3   0x004d3e    program     extern /dvpt/sdcc/sources/sdcc/device/non-free/lib/pic16/libdev/gptr/dispatch.S
       ___eeprom_gptrget4   0x004d3e    program     extern /dvpt/sdcc/sources/sdcc/device/non-free/lib/pic16/libdev/gptr/dispatch.S
       ___eeprom_gptrput1   0x004d3e    program     extern /dvpt/sdcc/sources/sdcc/device/non-free/lib/pic16/libdev/gptr/dispatch.S
       ___eeprom_gptrput2   0x004d3e    program     extern /dvpt/sdcc/sources/sdcc/device/non-free/lib/pic16/libdev/gptr/dispatch.S
       ___eeprom_gptrput3   0x004d3e    program     extern /dvpt/sdcc/sources/sdcc/device/non-free/lib/pic16/libdev/gptr/dispatch.S
       ___eeprom_gptrput4   0x004d3e    program     extern /dvpt/sdcc/sources/sdcc/device/non-free/lib/pic16/libdev/gptr/dispatch.S
                ___uflags   0x000173       data     extern /dvpt/pinguino/git/pinguino-ide/pinguino/source/main.asm
             __cdc_buffer   0x0000b0       data     extern /dvpt/pinguino/git/pinguino-ide/pinguino/source/main.asm
               __divulong   0x0036ce    program     extern divulong.asm
                  __entry   0x000c00    program     extern /dvpt/pinguino/git/pinguino-ide/pinguino/source/main.asm
               __gptrget1   0x004c96    program     extern gptrget1.asm
               __gptrget2   0x004bd4    program     extern gptrget2.asm
               __gptrget3   0x0049fc    program     extern gptrget3.asm
               __gptrget4   0x004940    program     extern gptrget4.asm
               __gptrput1   0x004cf0    program     extern gptrput1.asm
               __gptrput3   0x004cb8    program     extern gptrput3.asm
               __modulong   0x00336e    program     extern modulong.asm
                __startup   0x003d68    program     extern /dvpt/pinguino/git/pinguino-ide/pinguino/source/main.asm
                  __str_0   0x0027a2    program     static /dvpt/pinguino/git/pinguino-ide/pinguino/source/main.asm
                  __str_1   0x0027aa    program     static /dvpt/pinguino/git/pinguino-ide/pinguino/source/main.asm
                 __str_10   0x00284a    program     static /dvpt/pinguino/git/pinguino-ide/pinguino/source/main.asm
                 __str_11   0x00285a    program     static /dvpt/pinguino/git/pinguino-ide/pinguino/source/main.asm
                 __str_12   0x00286e    program     static /dvpt/pinguino/git/pinguino-ide/pinguino/source/main.asm
                 __str_13   0x002886    program     static /dvpt/pinguino/git/pinguino-ide/pinguino/source/main.asm
                 __str_14   0x0028b0    program     static /dvpt/pinguino/git/pinguino-ide/pinguino/source/main.asm
                 __str_15   0x0028be    program     static /dvpt/pinguino/git/pinguino-ide/pinguino/source/main.asm
                 __str_16   0x0028cc    program     static /dvpt/pinguino/git/pinguino-ide/pinguino/source/main.asm
                  __str_2   0x0027ae    program     static /dvpt/pinguino/git/pinguino-ide/pinguino/source/main.asm
                  __str_3   0x0027b2    program     static /dvpt/pinguino/git/pinguino-ide/pinguino/source/main.asm
                  __str_4   0x0027b6    program     static /dvpt/pinguino/git/pinguino-ide/pinguino/source/main.asm
                  __str_5   0x0027ba    program     static /dvpt/pinguino/git/pinguino-ide/pinguino/source/main.asm
                  __str_6   0x0027be    program     static /dvpt/pinguino/git/pinguino-ide/pinguino/source/main.asm
                  __str_7   0x0027c2    program     static /dvpt/pinguino/git/pinguino-ide/pinguino/source/main.asm
                  __str_8   0x002806    program     static /dvpt/pinguino/git/pinguino-ide/pinguino/source/main.asm
                  __str_9   0x002828    program     static /dvpt/pinguino/git/pinguino-ide/pinguino/source/main.asm
                   _cinit   0x004d18    program     extern 
   _controlTransferBuffer   0x000540       data     extern /dvpt/pinguino/git/pinguino-ide/pinguino/source/main.asm
       _ctrlTransferStage   0x000196       data     extern /dvpt/pinguino/git/pinguino-ide/pinguino/source/main.asm
    _currentConfiguration   0x000195       data     extern /dvpt/pinguino/git/pinguino-ide/pinguino/source/main.asm
              _delay10tcy   0x00290c    program     extern /dvpt/sdcc/sources/sdcc/device/lib/pic16/libc/delay/delay10tcy.S
              _delay1ktcy   0x0028e6    program     extern /dvpt/sdcc/sources/sdcc/device/lib/pic16/libc/delay/delay1ktcy.S
           _deviceAddress   0x00018c       data     extern /dvpt/pinguino/git/pinguino-ide/pinguino/source/main.asm
             _deviceState   0x000194       data     extern /dvpt/pinguino/git/pinguino-ide/pinguino/source/main.asm
             _digitalread   0x002e38    program     extern /dvpt/pinguino/git/pinguino-ide/pinguino/source/main.asm
            _digitalwrite   0x0024b8    program     extern /dvpt/pinguino/git/pinguino-ide/pinguino/source/main.asm
        _eeprom_byte_read   0x00460e    program     extern /dvpt/pinguino/git/pinguino-ide/pinguino/source/main.asm
    _eeprom_byte_read_seq   0x002ae4    program     extern /dvpt/pinguino/git/pinguino-ide/pinguino/source/main.asm
       _eeprom_byte_write   0x00414e    program     extern /dvpt/pinguino/git/pinguino-ide/pinguino/source/main.asm
       _eeprom_page_write   0x00323a    program     extern /dvpt/pinguino/git/pinguino-ide/pinguino/source/main.asm
                  _ep_bdt   0x000d00       data     extern /dvpt/pinguino/git/pinguino-ide/pinguino/source/main.asm
             _hidIdleRate   0x00018e       data     extern /dvpt/pinguino/git/pinguino-ide/pinguino/source/main.asm
             _hidProtocol   0x00018f       data     extern /dvpt/pinguino/git/pinguino-ide/pinguino/source/main.asm
                _hidRxLen   0x000190       data     extern /dvpt/pinguino/git/pinguino-ide/pinguino/source/main.asm
       _high_priority_isr   0x004598    program     extern /dvpt/pinguino/git/pinguino-ide/pinguino/source/main.asm
                 _i2cAddr   0x000175       data     extern /dvpt/pinguino/git/pinguino-ide/pinguino/source/main.asm
                   _inPtr   0x000182       data     extern /dvpt/pinguino/git/pinguino-ide/pinguino/source/main.asm
                 _lab_01_   0x004cfe    program     static gptrput1.asm
                 _lab_01_   0x004be4    program     static gptrget2.asm
                 _lab_01_   0x004cce    program     static gptrput3.asm
                 _lab_01_   0x004958    program     static gptrget4.asm
                 _lab_01_   0x004ca2    program     static gptrget1.asm
                 _lab_01_   0x004a10    program     static gptrget3.asm
                    _lang   0x00276c    program     extern /dvpt/pinguino/git/pinguino-ide/pinguino/source/main.asm
_libconfiguration_descriptor   0x002728    program     extern /dvpt/pinguino/git/pinguino-ide/pinguino/source/main.asm
    _libdevice_descriptor   0x002716    program     extern /dvpt/pinguino/git/pinguino-ide/pinguino/source/main.asm
    _libstring_descriptor   0x002798    program     extern /dvpt/pinguino/git/pinguino-ide/pinguino/source/main.asm
             _line_config   0x00016c       data     extern /dvpt/pinguino/git/pinguino-ide/pinguino/source/main.asm
                    _loop   0x00449a    program     extern /dvpt/pinguino/git/pinguino-ide/pinguino/source/main.asm
        _low_priority_isr   0x004684    program     extern /dvpt/pinguino/git/pinguino-ide/pinguino/source/main.asm
                    _main   0x0048b8    program     extern /dvpt/pinguino/git/pinguino-ide/pinguino/source/main.asm
                    _manu   0x002770    program     extern /dvpt/pinguino/git/pinguino-ide/pinguino/source/main.asm
                    _mask   0x0027c6    program     extern /dvpt/pinguino/git/pinguino-ide/pinguino/source/main.asm
                  _outPtr   0x00017f       data     extern /dvpt/pinguino/git/pinguino-ide/pinguino/source/main.asm
                 _pinmode   0x00225a    program     extern /dvpt/pinguino/git/pinguino-ide/pinguino/source/main.asm
                    _port   0x0027e6    program     extern /dvpt/pinguino/git/pinguino-ide/pinguino/source/main.asm
                  _pprint   0x000c1c    program     static /dvpt/pinguino/git/pinguino-ide/pinguino/source/main.asm
        _pprint_scr_1_175   0x00018a       data     static /dvpt/pinguino/git/pinguino-ide/pinguino/source/main.asm
                 _pprintc   0x0039fc    program     static /dvpt/pinguino/git/pinguino-ide/pinguino/source/main.asm
                 _pprintf   0x0040ae    program     extern /dvpt/pinguino/git/pinguino-ide/pinguino/source/main.asm
                _pprintfl   0x001648    program     static /dvpt/pinguino/git/pinguino-ide/pinguino/source/main.asm
   _pprintfl_buffer_1_161   0x00014c       data     static /dvpt/pinguino/git/pinguino-ide/pinguino/source/main.asm
   _pprintfl_helper_1_161   0x000178       data     static /dvpt/pinguino/git/pinguino-ide/pinguino/source/main.asm
      _pprintfl_tmp_1_161   0x000158       data     static /dvpt/pinguino/git/pinguino-ide/pinguino/source/main.asm
                 _pprinti   0x001bf2    program     static /dvpt/pinguino/git/pinguino-ide/pinguino/source/main.asm
    _pprinti_buffer_1_151   0x000140       data     static /dvpt/pinguino/git/pinguino-ide/pinguino/source/main.asm
                 _pprints   0x002c94    program     static /dvpt/pinguino/git/pinguino-ide/pinguino/source/main.asm
                _pputchar   0x00017c       data     static /dvpt/pinguino/git/pinguino-ide/pinguino/source/main.asm
                    _prod   0x002786    program     extern /dvpt/pinguino/git/pinguino-ide/pinguino/source/main.asm
                _psprintf   0x0041e0    program     extern /dvpt/pinguino/git/pinguino-ide/pinguino/source/main.asm
               _psprintf2   0x00400a    program     extern /dvpt/pinguino/git/pinguino-ide/pinguino/source/main.asm
     _psprintf2_out_1_196   0x000185       data     static /dvpt/pinguino/git/pinguino-ide/pinguino/source/main.asm
            _remoteWakeup   0x000193       data     extern /dvpt/pinguino/git/pinguino-ide/pinguino/source/main.asm
          _requestHandled   0x000191       data     extern /dvpt/pinguino/git/pinguino-ide/pinguino/source/main.asm
             _selfPowered   0x000192       data     extern /dvpt/pinguino/git/pinguino-ide/pinguino/source/main.asm
                   _setup   0x004416    program     extern /dvpt/pinguino/git/pinguino-ide/pinguino/source/main.asm
                   _stack   0x000400       data     extern /dvpt/sdcc/sources/sdcc/device/lib/pic16/libsdcc/stack/stack.S
               _stack_end   0x0004ff       data     extern /dvpt/sdcc/sources/sdcc/device/lib/pic16/libsdcc/stack/stack.S
                  _toggle   0x0048fe    program     extern /dvpt/pinguino/git/pinguino-ide/pinguino/source/main.asm
                  _wCount   0x000188       data     extern /dvpt/pinguino/git/pinguino-ide/pinguino/source/main.asm
                     _zlp   0x000164       data     extern /dvpt/pinguino/git/pinguino-ide/pinguino/source/main.asm
               clear_loop   0x003d80    program     static /dvpt/pinguino/git/pinguino-ide/pinguino/source/main.asm
                copy_loop   0x003dee    program     static /dvpt/pinguino/git/pinguino-ide/pinguino/source/main.asm
            copy_loop_dec   0x003df4    program     static /dvpt/pinguino/git/pinguino-ide/pinguino/source/main.asm
               entry_loop   0x003da0    program     static /dvpt/pinguino/git/pinguino-ide/pinguino/source/main.asm
           entry_loop_dec   0x003e08    program     static /dvpt/pinguino/git/pinguino-ide/pinguino/source/main.asm
ivec_0x1_high_priority_isr   0x000c08    program     static /dvpt/pinguino/git/pinguino-ide/pinguino/source/main.asm
ivec_0x2_low_priority_isr   0x000c18    program     static /dvpt/pinguino/git/pinguino-ide/pinguino/source/main.asm
                   lockup   0x003e14    program     static /dvpt/pinguino/git/pinguino-ide/pinguino/source/main.asm
                    r0x00   0x000000       data     static /dvpt/pinguino/git/pinguino-ide/pinguino/source/main.asm
                    r0x00   0x000000       data     static modulong.asm
                    r0x00   0x000000       data     static divulong.asm
                    r0x01   0x000001       data     static /dvpt/pinguino/git/pinguino-ide/pinguino/source/main.asm
                    r0x01   0x000001       data     static modulong.asm
                    r0x01   0x000001       data     static divulong.asm
                    r0x02   0x000002       data     static /dvpt/pinguino/git/pinguino-ide/pinguino/source/main.asm
                    r0x02   0x000002       data     static modulong.asm
                    r0x02   0x000002       data     static divulong.asm
                    r0x03   0x000003       data     static /dvpt/pinguino/git/pinguino-ide/pinguino/source/main.asm
                    r0x03   0x000003       data     static modulong.asm
                    r0x03   0x000003       data     static divulong.asm
                    r0x04   0x000004       data     static /dvpt/pinguino/git/pinguino-ide/pinguino/source/main.asm
                    r0x04   0x000004       data     static modulong.asm
                    r0x04   0x000004       data     static divulong.asm
                    r0x05   0x000005       data     static /dvpt/pinguino/git/pinguino-ide/pinguino/source/main.asm
                    r0x05   0x000005       data     static modulong.asm
                    r0x05   0x000005       data     static divulong.asm
                    r0x06   0x000006       data     static /dvpt/pinguino/git/pinguino-ide/pinguino/source/main.asm
                    r0x06   0x000006       data     static modulong.asm
                    r0x06   0x000006       data     static divulong.asm
                    r0x07   0x000007       data     static /dvpt/pinguino/git/pinguino-ide/pinguino/source/main.asm
                    r0x07   0x000007       data     static modulong.asm
                    r0x07   0x000007       data     static divulong.asm
                    r0x08   0x000008       data     static /dvpt/pinguino/git/pinguino-ide/pinguino/source/main.asm
                    r0x08   0x000008       data     static modulong.asm
                    r0x08   0x000008       data     static divulong.asm
                    r0x09   0x000009       data     static /dvpt/pinguino/git/pinguino-ide/pinguino/source/main.asm
                    r0x09   0x000009       data     static modulong.asm
                    r0x09   0x000009       data     static divulong.asm
                    r0x0a   0x00000a       data     static /dvpt/pinguino/git/pinguino-ide/pinguino/source/main.asm
                    r0x0a   0x00000a       data     static modulong.asm
                    r0x0a   0x00000a       data     static divulong.asm
                    r0x0b   0x00000b       data     static /dvpt/pinguino/git/pinguino-ide/pinguino/source/main.asm
                    r0x0b   0x00000b       data     static divulong.asm
                    r0x0c   0x00000c       data     static /dvpt/pinguino/git/pinguino-ide/pinguino/source/main.asm
                    r0x0c   0x00000c       data     static divulong.asm
                    r0x0d   0x00000d       data     static /dvpt/pinguino/git/pinguino-ide/pinguino/source/main.asm
                    r0x0d   0x00000d       data     static divulong.asm
                    r0x0e   0x00000e       data     static /dvpt/pinguino/git/pinguino-ide/pinguino/source/main.asm
                    r0x0f   0x00000f       data     static /dvpt/pinguino/git/pinguino-ide/pinguino/source/main.asm
                    r0x10   0x000010       data     static /dvpt/pinguino/git/pinguino-ide/pinguino/source/main.asm
                    r0x11   0x000011       data     static /dvpt/pinguino/git/pinguino-ide/pinguino/source/main.asm
                    r0x12   0x000012       data     static /dvpt/pinguino/git/pinguino-ide/pinguino/source/main.asm
                    r0x13   0x000013       data     static /dvpt/pinguino/git/pinguino-ide/pinguino/source/main.asm
                    r0x14   0x000014       data     static /dvpt/pinguino/git/pinguino-ide/pinguino/source/main.asm
                    r0x15   0x000015       data     static /dvpt/pinguino/git/pinguino-ide/pinguino/source/main.asm
                    r0x16   0x000016       data     static /dvpt/pinguino/git/pinguino-ide/pinguino/source/main.asm
                    r0x17   0x000017       data     static /dvpt/pinguino/git/pinguino-ide/pinguino/source/main.asm
                    r0x18   0x000018       data     static /dvpt/pinguino/git/pinguino-ide/pinguino/source/main.asm
                    r0x19   0x000019       data     static /dvpt/pinguino/git/pinguino-ide/pinguino/source/main.asm
                    r0x1a   0x00001a       data     static /dvpt/pinguino/git/pinguino-ide/pinguino/source/main.asm
                    r0x1b   0x00001b       data     static /dvpt/pinguino/git/pinguino-ide/pinguino/source/main.asm
                    r0x1c   0x00001c       data     static /dvpt/pinguino/git/pinguino-ide/pinguino/source/main.asm
                    r0x1d   0x00001d       data     static /dvpt/pinguino/git/pinguino-ide/pinguino/source/main.asm
                    r0x1e   0x00001e       data     static /dvpt/pinguino/git/pinguino-ide/pinguino/source/main.asm
                    r0x1f   0x00001f       data     static /dvpt/pinguino/git/pinguino-ide/pinguino/source/main.asm
                    r0x20   0x000020       data     static /dvpt/pinguino/git/pinguino-ide/pinguino/source/main.asm



                              Symbols - Sorted by Address
                     Name    Address   Location    Storage File
                ---------  ---------  ---------  --------- ---------
                    r0x00   0x000000       data     static /dvpt/pinguino/git/pinguino-ide/pinguino/source/main.asm
                    r0x00   0x000000       data     static modulong.asm
                    r0x00   0x000000       data     static divulong.asm
                    r0x01   0x000001       data     static /dvpt/pinguino/git/pinguino-ide/pinguino/source/main.asm
                    r0x01   0x000001       data     static modulong.asm
                    r0x01   0x000001       data     static divulong.asm
                    r0x02   0x000002       data     static /dvpt/pinguino/git/pinguino-ide/pinguino/source/main.asm
                    r0x02   0x000002       data     static modulong.asm
                    r0x02   0x000002       data     static divulong.asm
                    r0x03   0x000003       data     static /dvpt/pinguino/git/pinguino-ide/pinguino/source/main.asm
                    r0x03   0x000003       data     static modulong.asm
                    r0x03   0x000003       data     static divulong.asm
                    r0x04   0x000004       data     static /dvpt/pinguino/git/pinguino-ide/pinguino/source/main.asm
                    r0x04   0x000004       data     static modulong.asm
                    r0x04   0x000004       data     static divulong.asm
                    r0x05   0x000005       data     static /dvpt/pinguino/git/pinguino-ide/pinguino/source/main.asm
                    r0x05   0x000005       data     static modulong.asm
                    r0x05   0x000005       data     static divulong.asm
                    r0x06   0x000006       data     static /dvpt/pinguino/git/pinguino-ide/pinguino/source/main.asm
                    r0x06   0x000006       data     static modulong.asm
                    r0x06   0x000006       data     static divulong.asm
                    r0x07   0x000007       data     static /dvpt/pinguino/git/pinguino-ide/pinguino/source/main.asm
                    r0x07   0x000007       data     static modulong.asm
                    r0x07   0x000007       data     static divulong.asm
                    r0x08   0x000008       data     static /dvpt/pinguino/git/pinguino-ide/pinguino/source/main.asm
                    r0x08   0x000008       data     static modulong.asm
                    r0x08   0x000008       data     static divulong.asm
                    r0x09   0x000009       data     static /dvpt/pinguino/git/pinguino-ide/pinguino/source/main.asm
                    r0x09   0x000009       data     static modulong.asm
                    r0x09   0x000009       data     static divulong.asm
                    r0x0a   0x00000a       data     static /dvpt/pinguino/git/pinguino-ide/pinguino/source/main.asm
                    r0x0a   0x00000a       data     static modulong.asm
                    r0x0a   0x00000a       data     static divulong.asm
                    r0x0b   0x00000b       data     static /dvpt/pinguino/git/pinguino-ide/pinguino/source/main.asm
                    r0x0b   0x00000b       data     static divulong.asm
                    r0x0c   0x00000c       data     static /dvpt/pinguino/git/pinguino-ide/pinguino/source/main.asm
                    r0x0c   0x00000c       data     static divulong.asm
                    r0x0d   0x00000d       data     static /dvpt/pinguino/git/pinguino-ide/pinguino/source/main.asm
                    r0x0d   0x00000d       data     static divulong.asm
                    r0x0e   0x00000e       data     static /dvpt/pinguino/git/pinguino-ide/pinguino/source/main.asm
                    r0x0f   0x00000f       data     static /dvpt/pinguino/git/pinguino-ide/pinguino/source/main.asm
                    r0x10   0x000010       data     static /dvpt/pinguino/git/pinguino-ide/pinguino/source/main.asm
                    r0x11   0x000011       data     static /dvpt/pinguino/git/pinguino-ide/pinguino/source/main.asm
                    r0x12   0x000012       data     static /dvpt/pinguino/git/pinguino-ide/pinguino/source/main.asm
                    r0x13   0x000013       data     static /dvpt/pinguino/git/pinguino-ide/pinguino/source/main.asm
                    r0x14   0x000014       data     static /dvpt/pinguino/git/pinguino-ide/pinguino/source/main.asm
                    r0x15   0x000015       data     static /dvpt/pinguino/git/pinguino-ide/pinguino/source/main.asm
                    r0x16   0x000016       data     static /dvpt/pinguino/git/pinguino-ide/pinguino/source/main.asm
                    r0x17   0x000017       data     static /dvpt/pinguino/git/pinguino-ide/pinguino/source/main.asm
                    r0x18   0x000018       data     static /dvpt/pinguino/git/pinguino-ide/pinguino/source/main.asm
                    r0x19   0x000019       data     static /dvpt/pinguino/git/pinguino-ide/pinguino/source/main.asm
                    r0x1a   0x00001a       data     static /dvpt/pinguino/git/pinguino-ide/pinguino/source/main.asm
                    r0x1b   0x00001b       data     static /dvpt/pinguino/git/pinguino-ide/pinguino/source/main.asm
                    r0x1c   0x00001c       data     static /dvpt/pinguino/git/pinguino-ide/pinguino/source/main.asm
                    r0x1d   0x00001d       data     static /dvpt/pinguino/git/pinguino-ide/pinguino/source/main.asm
                    r0x1e   0x00001e       data     static /dvpt/pinguino/git/pinguino-ide/pinguino/source/main.asm
                    r0x1f   0x00001f       data     static /dvpt/pinguino/git/pinguino-ide/pinguino/source/main.asm
                    r0x20   0x000020       data     static /dvpt/pinguino/git/pinguino-ide/pinguino/source/main.asm
_CDCgetstring_buffer_1_215   0x000060       data     static /dvpt/pinguino/git/pinguino-ide/pinguino/source/main.asm
             __cdc_buffer   0x0000b0       data     extern /dvpt/pinguino/git/pinguino-ide/pinguino/source/main.asm
        _CDCControlBuffer   0x0000f0       data     extern /dvpt/pinguino/git/pinguino-ide/pinguino/source/main.asm
  _CDCgetkey_buffer_1_213   0x000100       data     static /dvpt/pinguino/git/pinguino-ide/pinguino/source/main.asm
    _pprinti_buffer_1_151   0x000140       data     static /dvpt/pinguino/git/pinguino-ide/pinguino/source/main.asm
   _pprintfl_buffer_1_161   0x00014c       data     static /dvpt/pinguino/git/pinguino-ide/pinguino/source/main.asm
      _pprintfl_tmp_1_161   0x000158       data     static /dvpt/pinguino/git/pinguino-ide/pinguino/source/main.asm
                     _zlp   0x000164       data     extern /dvpt/pinguino/git/pinguino-ide/pinguino/source/main.asm
             _line_config   0x00016c       data     extern /dvpt/pinguino/git/pinguino-ide/pinguino/source/main.asm
                ___uflags   0x000173       data     extern /dvpt/pinguino/git/pinguino-ide/pinguino/source/main.asm
            _CONTROL_LINE   0x000174       data     extern /dvpt/pinguino/git/pinguino-ide/pinguino/source/main.asm
                 _i2cAddr   0x000175       data     extern /dvpt/pinguino/git/pinguino-ide/pinguino/source/main.asm
              _MemoryAddr   0x000176       data     extern /dvpt/pinguino/git/pinguino-ide/pinguino/source/main.asm
   _pprintfl_helper_1_161   0x000178       data     static /dvpt/pinguino/git/pinguino-ide/pinguino/source/main.asm
                _pputchar   0x00017c       data     static /dvpt/pinguino/git/pinguino-ide/pinguino/source/main.asm
                  _outPtr   0x00017f       data     extern /dvpt/pinguino/git/pinguino-ide/pinguino/source/main.asm
                   _inPtr   0x000182       data     extern /dvpt/pinguino/git/pinguino-ide/pinguino/source/main.asm
     _psprintf2_out_1_196   0x000185       data     static /dvpt/pinguino/git/pinguino-ide/pinguino/source/main.asm
                  _wCount   0x000188       data     extern /dvpt/pinguino/git/pinguino-ide/pinguino/source/main.asm
        _pprint_scr_1_175   0x00018a       data     static /dvpt/pinguino/git/pinguino-ide/pinguino/source/main.asm
           _deviceAddress   0x00018c       data     extern /dvpt/pinguino/git/pinguino-ide/pinguino/source/main.asm
          _HIDPostProcess   0x00018d       data     extern /dvpt/pinguino/git/pinguino-ide/pinguino/source/main.asm
             _hidIdleRate   0x00018e       data     extern /dvpt/pinguino/git/pinguino-ide/pinguino/source/main.asm
             _hidProtocol   0x00018f       data     extern /dvpt/pinguino/git/pinguino-ide/pinguino/source/main.asm
                _hidRxLen   0x000190       data     extern /dvpt/pinguino/git/pinguino-ide/pinguino/source/main.asm
          _requestHandled   0x000191       data     extern /dvpt/pinguino/git/pinguino-ide/pinguino/source/main.asm
             _selfPowered   0x000192       data     extern /dvpt/pinguino/git/pinguino-ide/pinguino/source/main.asm
            _remoteWakeup   0x000193       data     extern /dvpt/pinguino/git/pinguino-ide/pinguino/source/main.asm
             _deviceState   0x000194       data     extern /dvpt/pinguino/git/pinguino-ide/pinguino/source/main.asm
    _currentConfiguration   0x000195       data     extern /dvpt/pinguino/git/pinguino-ide/pinguino/source/main.asm
       _ctrlTransferStage   0x000196       data     extern /dvpt/pinguino/git/pinguino-ide/pinguino/source/main.asm
        _CDCwrite_c_1_203   0x000197       data     static /dvpt/pinguino/git/pinguino-ide/pinguino/source/main.asm
                   _stack   0x000400       data     extern /dvpt/sdcc/sources/sdcc/device/lib/pic16/libsdcc/stack/stack.S
               _stack_end   0x0004ff       data     extern /dvpt/sdcc/sources/sdcc/device/lib/pic16/libsdcc/stack/stack.S
             _SetupPacket   0x000500       data     extern /dvpt/pinguino/git/pinguino-ide/pinguino/source/main.asm
   _controlTransferBuffer   0x000540       data     extern /dvpt/pinguino/git/pinguino-ide/pinguino/source/main.asm
             _CDCRxBuffer   0x000580       data     extern /dvpt/pinguino/git/pinguino-ide/pinguino/source/main.asm
             _CDCTxBuffer   0x0005c0       data     extern /dvpt/pinguino/git/pinguino-ide/pinguino/source/main.asm
                  __entry   0x000c00    program     extern /dvpt/pinguino/git/pinguino-ide/pinguino/source/main.asm
            _StartOfFrame   0x000c04    program     extern /dvpt/pinguino/git/pinguino-ide/pinguino/source/main.asm
ivec_0x1_high_priority_isr   0x000c08    program     static /dvpt/pinguino/git/pinguino-ide/pinguino/source/main.asm
              _IO_digital   0x000c0c    program     extern /dvpt/pinguino/git/pinguino-ide/pinguino/source/main.asm
ivec_0x2_low_priority_isr   0x000c18    program     static /dvpt/pinguino/git/pinguino-ide/pinguino/source/main.asm
                  _pprint   0x000c1c    program     static /dvpt/pinguino/git/pinguino-ide/pinguino/source/main.asm
               _01216_DS_   0x000cc8    program     static /dvpt/pinguino/git/pinguino-ide/pinguino/source/main.asm
               _01336_DS_   0x000ce0    program     static /dvpt/pinguino/git/pinguino-ide/pinguino/source/main.asm
               _01338_DS_   0x000cec    program     static /dvpt/pinguino/git/pinguino-ide/pinguino/source/main.asm
               _01339_DS_   0x000cf8    program     static /dvpt/pinguino/git/pinguino-ide/pinguino/source/main.asm
                  _ep_bdt   0x000d00       data     extern /dvpt/pinguino/git/pinguino-ide/pinguino/source/main.asm
               _01341_DS_   0x000d1a    program     static /dvpt/pinguino/git/pinguino-ide/pinguino/source/main.asm
               _01344_DS_   0x000d28    program     static /dvpt/pinguino/git/pinguino-ide/pinguino/source/main.asm
               _01239_DS_   0x000d2c    program     static /dvpt/pinguino/git/pinguino-ide/pinguino/source/main.asm
               _01169_DS_   0x000d38    program     static /dvpt/pinguino/git/pinguino-ide/pinguino/source/main.asm
               _01347_DS_   0x000d52    program     static /dvpt/pinguino/git/pinguino-ide/pinguino/source/main.asm
               _01209_DS_   0x000d56    program     static /dvpt/pinguino/git/pinguino-ide/pinguino/source/main.asm
               _01351_DS_   0x000d90    program     static /dvpt/pinguino/git/pinguino-ide/pinguino/source/main.asm
               _01267_DS_   0x000d92    program     static /dvpt/pinguino/git/pinguino-ide/pinguino/source/main.asm
               _01213_DS_   0x000dd0    program     static /dvpt/pinguino/git/pinguino-ide/pinguino/source/main.asm
               _01356_DS_   0x000e0a    program     static /dvpt/pinguino/git/pinguino-ide/pinguino/source/main.asm
               _01268_DS_   0x000e0c    program     static /dvpt/pinguino/git/pinguino-ide/pinguino/source/main.asm
               _01175_DS_   0x000e18    program     static /dvpt/pinguino/git/pinguino-ide/pinguino/source/main.asm
               _01358_DS_   0x000e2e    program     static /dvpt/pinguino/git/pinguino-ide/pinguino/source/main.asm
               _01177_DS_   0x000eae    program     static /dvpt/pinguino/git/pinguino-ide/pinguino/source/main.asm
               _01360_DS_   0x000eb6    program     static /dvpt/pinguino/git/pinguino-ide/pinguino/source/main.asm
                 _ADCTRIG   0x000eb8       data     extern libdev18f47j53_a-pic18f47j53.asm
             _ADCTRIGbits   0x000eb8       data     extern libdev18f47j53_a-pic18f47j53.asm
                     _PD0   0x000eb9       data     extern libdev18f47j53_a-pic18f47j53.asm
                 _PD0bits   0x000eb9       data     extern libdev18f47j53_a-pic18f47j53.asm
                  _PMDIS0   0x000eb9       data     extern libdev18f47j53_a-pic18f47j53.asm
              _PMDIS0bits   0x000eb9       data     extern libdev18f47j53_a-pic18f47j53.asm
                     _PD1   0x000eba       data     extern libdev18f47j53_a-pic18f47j53.asm
                 _PD1bits   0x000eba       data     extern libdev18f47j53_a-pic18f47j53.asm
                  _PMDIS1   0x000eba       data     extern libdev18f47j53_a-pic18f47j53.asm
              _PMDIS1bits   0x000eba       data     extern libdev18f47j53_a-pic18f47j53.asm
                     _PD2   0x000ebb       data     extern libdev18f47j53_a-pic18f47j53.asm
                 _PD2bits   0x000ebb       data     extern libdev18f47j53_a-pic18f47j53.asm
                  _PMDIS2   0x000ebb       data     extern libdev18f47j53_a-pic18f47j53.asm
              _PMDIS2bits   0x000ebb       data     extern libdev18f47j53_a-pic18f47j53.asm
                     _PD3   0x000ebc       data     extern libdev18f47j53_a-pic18f47j53.asm
                 _PD3bits   0x000ebc       data     extern libdev18f47j53_a-pic18f47j53.asm
                  _PMDIS3   0x000ebc       data     extern libdev18f47j53_a-pic18f47j53.asm
              _PMDIS3bits   0x000ebc       data     extern libdev18f47j53_a-pic18f47j53.asm
                  _PPSCON   0x000ebf       data     extern libdev18f47j53_a-pic18f47j53.asm
              _PPSCONbits   0x000ebf       data     extern libdev18f47j53_a-pic18f47j53.asm
                   _RPOR0   0x000ec0       data     extern libdev18f47j53_a-pic18f47j53.asm
                   _RPOR1   0x000ec1       data     extern libdev18f47j53_a-pic18f47j53.asm
                   _RPOR2   0x000ec2       data     extern libdev18f47j53_a-pic18f47j53.asm
                   _RPOR3   0x000ec3       data     extern libdev18f47j53_a-pic18f47j53.asm
                   _RPOR4   0x000ec4       data     extern libdev18f47j53_a-pic18f47j53.asm
                   _RPOR5   0x000ec5       data     extern libdev18f47j53_a-pic18f47j53.asm
                   _RPOR6   0x000ec6       data     extern libdev18f47j53_a-pic18f47j53.asm
                   _RPOR7   0x000ec7       data     extern libdev18f47j53_a-pic18f47j53.asm
                   _RPOR8   0x000ec8       data     extern libdev18f47j53_a-pic18f47j53.asm
                   _RPOR9   0x000ec9       data     extern libdev18f47j53_a-pic18f47j53.asm
                  _RPOR10   0x000eca       data     extern libdev18f47j53_a-pic18f47j53.asm
                  _RPOR11   0x000ecb       data     extern libdev18f47j53_a-pic18f47j53.asm
                  _RPOR12   0x000ecc       data     extern libdev18f47j53_a-pic18f47j53.asm
                  _RPOR13   0x000ecd       data     extern libdev18f47j53_a-pic18f47j53.asm
                  _RPOR17   0x000ed1       data     extern libdev18f47j53_a-pic18f47j53.asm
                  _RPOR18   0x000ed2       data     extern libdev18f47j53_a-pic18f47j53.asm
                  _RPOR19   0x000ed3       data     extern libdev18f47j53_a-pic18f47j53.asm
                  _RPOR20   0x000ed4       data     extern libdev18f47j53_a-pic18f47j53.asm
                  _RPOR21   0x000ed5       data     extern libdev18f47j53_a-pic18f47j53.asm
                  _RPOR22   0x000ed6       data     extern libdev18f47j53_a-pic18f47j53.asm
                  _RPOR23   0x000ed7       data     extern libdev18f47j53_a-pic18f47j53.asm
                  _RPOR24   0x000ed8       data     extern libdev18f47j53_a-pic18f47j53.asm
                  _RPINR1   0x000ee1       data     extern libdev18f47j53_a-pic18f47j53.asm
                  _RPINR2   0x000ee2       data     extern libdev18f47j53_a-pic18f47j53.asm
                  _RPINR3   0x000ee3       data     extern libdev18f47j53_a-pic18f47j53.asm
                  _RPINR4   0x000ee4       data     extern libdev18f47j53_a-pic18f47j53.asm
                  _RPINR6   0x000ee6       data     extern libdev18f47j53_a-pic18f47j53.asm
                 _RPINR15   0x000ee7       data     extern libdev18f47j53_a-pic18f47j53.asm
                  _RPINR7   0x000ee8       data     extern libdev18f47j53_a-pic18f47j53.asm
                  _RPINR8   0x000ee9       data     extern libdev18f47j53_a-pic18f47j53.asm
                  _RPINR9   0x000eea       data     extern libdev18f47j53_a-pic18f47j53.asm
                 _RPINR12   0x000ef2       data     extern libdev18f47j53_a-pic18f47j53.asm
                 _RPINR13   0x000ef3       data     extern libdev18f47j53_a-pic18f47j53.asm
                 _RPINR14   0x000ef4       data     extern libdev18f47j53_a-pic18f47j53.asm
                 _RPINR16   0x000ef7       data     extern libdev18f47j53_a-pic18f47j53.asm
                 _RPINR17   0x000ef8       data     extern libdev18f47j53_a-pic18f47j53.asm
                 _RPINR21   0x000efc       data     extern libdev18f47j53_a-pic18f47j53.asm
                 _RPINR22   0x000efd       data     extern libdev18f47j53_a-pic18f47j53.asm
                 _RPINR23   0x000efe       data     extern libdev18f47j53_a-pic18f47j53.asm
                 _RPINR24   0x000eff       data     extern libdev18f47j53_a-pic18f47j53.asm
                _CCP10CON   0x000f00       data     extern libdev18f47j53_a-pic18f47j53.asm
            _CCP10CONbits   0x000f00       data     extern libdev18f47j53_a-pic18f47j53.asm
                 _CCPR10L   0x000f01       data     extern libdev18f47j53_a-pic18f47j53.asm
                 _CCPR10H   0x000f02       data     extern libdev18f47j53_a-pic18f47j53.asm
                 _CCP9CON   0x000f03       data     extern libdev18f47j53_a-pic18f47j53.asm
             _CCP9CONbits   0x000f03       data     extern libdev18f47j53_a-pic18f47j53.asm
                  _CCPR9L   0x000f04       data     extern libdev18f47j53_a-pic18f47j53.asm
                  _CCPR9H   0x000f05       data     extern libdev18f47j53_a-pic18f47j53.asm
                 _CCP8CON   0x000f06       data     extern libdev18f47j53_a-pic18f47j53.asm
             _CCP8CONbits   0x000f06       data     extern libdev18f47j53_a-pic18f47j53.asm
                  _CCPR8L   0x000f07       data     extern libdev18f47j53_a-pic18f47j53.asm
               _01220_DS_   0x000f08    program     static /dvpt/pinguino/git/pinguino-ide/pinguino/source/main.asm
                  _CCPR8H   0x000f08       data     extern libdev18f47j53_a-pic18f47j53.asm
                 _CCP7CON   0x000f09       data     extern libdev18f47j53_a-pic18f47j53.asm
             _CCP7CONbits   0x000f09       data     extern libdev18f47j53_a-pic18f47j53.asm
                  _CCPR7L   0x000f0a       data     extern libdev18f47j53_a-pic18f47j53.asm
                  _CCPR7H   0x000f0b       data     extern libdev18f47j53_a-pic18f47j53.asm
                 _CCP6CON   0x000f0c       data     extern libdev18f47j53_a-pic18f47j53.asm
             _CCP6CONbits   0x000f0c       data     extern libdev18f47j53_a-pic18f47j53.asm
                  _CCPR6L   0x000f0d       data     extern libdev18f47j53_a-pic18f47j53.asm
                  _CCPR6H   0x000f0e       data     extern libdev18f47j53_a-pic18f47j53.asm
                 _CCP5CON   0x000f0f       data     extern libdev18f47j53_a-pic18f47j53.asm
             _CCP5CONbits   0x000f0f       data     extern libdev18f47j53_a-pic18f47j53.asm
                  _CCPR5L   0x000f10       data     extern libdev18f47j53_a-pic18f47j53.asm
                  _CCPR5H   0x000f11       data     extern libdev18f47j53_a-pic18f47j53.asm
                 _CCP4CON   0x000f12       data     extern libdev18f47j53_a-pic18f47j53.asm
             _CCP4CONbits   0x000f12       data     extern libdev18f47j53_a-pic18f47j53.asm
                  _CCPR4L   0x000f13       data     extern libdev18f47j53_a-pic18f47j53.asm
                  _CCPR4H   0x000f14       data     extern libdev18f47j53_a-pic18f47j53.asm
                 _CCP3CON   0x000f15       data     extern libdev18f47j53_a-pic18f47j53.asm
             _CCP3CONbits   0x000f15       data     extern libdev18f47j53_a-pic18f47j53.asm
                  _CCPR3L   0x000f16       data     extern libdev18f47j53_a-pic18f47j53.asm
                  _CCPR3H   0x000f17       data     extern libdev18f47j53_a-pic18f47j53.asm
                _ECCP3DEL   0x000f18       data     extern libdev18f47j53_a-pic18f47j53.asm
            _ECCP3DELbits   0x000f18       data     extern libdev18f47j53_a-pic18f47j53.asm
                 _ECCP3AS   0x000f19       data     extern libdev18f47j53_a-pic18f47j53.asm
             _ECCP3ASbits   0x000f19       data     extern libdev18f47j53_a-pic18f47j53.asm
                _PSTR3CON   0x000f1a       data     extern libdev18f47j53_a-pic18f47j53.asm
            _PSTR3CONbits   0x000f1a       data     extern libdev18f47j53_a-pic18f47j53.asm
                   _T8CON   0x000f1b       data     extern libdev18f47j53_a-pic18f47j53.asm
               _T8CONbits   0x000f1b       data     extern libdev18f47j53_a-pic18f47j53.asm
                     _PR8   0x000f1c       data     extern libdev18f47j53_a-pic18f47j53.asm
                    _TMR8   0x000f1d       data     extern libdev18f47j53_a-pic18f47j53.asm
                   _T6CON   0x000f1e       data     extern libdev18f47j53_a-pic18f47j53.asm
               _T6CONbits   0x000f1e       data     extern libdev18f47j53_a-pic18f47j53.asm
                     _PR6   0x000f1f       data     extern libdev18f47j53_a-pic18f47j53.asm
                    _TMR6   0x000f20       data     extern libdev18f47j53_a-pic18f47j53.asm
                  _T5GCON   0x000f21       data     extern libdev18f47j53_a-pic18f47j53.asm
              _T5GCONbits   0x000f21       data     extern libdev18f47j53_a-pic18f47j53.asm
                   _T5CON   0x000f22       data     extern libdev18f47j53_a-pic18f47j53.asm
               _T5CONbits   0x000f22       data     extern libdev18f47j53_a-pic18f47j53.asm
                   _TMR5L   0x000f23       data     extern libdev18f47j53_a-pic18f47j53.asm
                   _TMR5H   0x000f24       data     extern libdev18f47j53_a-pic18f47j53.asm
                  _CM3CON   0x000f25       data     extern libdev18f47j53_a-pic18f47j53.asm
              _CM3CONbits   0x000f25       data     extern libdev18f47j53_a-pic18f47j53.asm
                    _UEP0   0x000f26       data     extern libdev18f47j53_a-pic18f47j53.asm
                _UEP0bits   0x000f26       data     extern libdev18f47j53_a-pic18f47j53.asm
                    _UEP1   0x000f27       data     extern libdev18f47j53_a-pic18f47j53.asm
                _UEP1bits   0x000f27       data     extern libdev18f47j53_a-pic18f47j53.asm
                    _UEP2   0x000f28       data     extern libdev18f47j53_a-pic18f47j53.asm
                _UEP2bits   0x000f28       data     extern libdev18f47j53_a-pic18f47j53.asm
                    _UEP3   0x000f29       data     extern libdev18f47j53_a-pic18f47j53.asm
                _UEP3bits   0x000f29       data     extern libdev18f47j53_a-pic18f47j53.asm
                    _UEP4   0x000f2a       data     extern libdev18f47j53_a-pic18f47j53.asm
                _UEP4bits   0x000f2a       data     extern libdev18f47j53_a-pic18f47j53.asm
                    _UEP5   0x000f2b       data     extern libdev18f47j53_a-pic18f47j53.asm
                _UEP5bits   0x000f2b       data     extern libdev18f47j53_a-pic18f47j53.asm
                    _UEP6   0x000f2c       data     extern libdev18f47j53_a-pic18f47j53.asm
                _UEP6bits   0x000f2c       data     extern libdev18f47j53_a-pic18f47j53.asm
                    _UEP7   0x000f2d       data     extern libdev18f47j53_a-pic18f47j53.asm
                _UEP7bits   0x000f2d       data     extern libdev18f47j53_a-pic18f47j53.asm
                    _UEP8   0x000f2e       data     extern libdev18f47j53_a-pic18f47j53.asm
                _UEP8bits   0x000f2e       data     extern libdev18f47j53_a-pic18f47j53.asm
                    _UEP9   0x000f2f       data     extern libdev18f47j53_a-pic18f47j53.asm
                _UEP9bits   0x000f2f       data     extern libdev18f47j53_a-pic18f47j53.asm
                   _UEP10   0x000f30       data     extern libdev18f47j53_a-pic18f47j53.asm
               _UEP10bits   0x000f30       data     extern libdev18f47j53_a-pic18f47j53.asm
                   _UEP11   0x000f31       data     extern libdev18f47j53_a-pic18f47j53.asm
               _UEP11bits   0x000f31       data     extern libdev18f47j53_a-pic18f47j53.asm
                   _UEP12   0x000f32       data     extern libdev18f47j53_a-pic18f47j53.asm
               _UEP12bits   0x000f32       data     extern libdev18f47j53_a-pic18f47j53.asm
                   _UEP13   0x000f33       data     extern libdev18f47j53_a-pic18f47j53.asm
               _UEP13bits   0x000f33       data     extern libdev18f47j53_a-pic18f47j53.asm
                   _UEP14   0x000f34       data     extern libdev18f47j53_a-pic18f47j53.asm
               _UEP14bits   0x000f34       data     extern libdev18f47j53_a-pic18f47j53.asm
                   _UEP15   0x000f35       data     extern libdev18f47j53_a-pic18f47j53.asm
               _UEP15bits   0x000f35       data     extern libdev18f47j53_a-pic18f47j53.asm
                     _UIE   0x000f36       data     extern libdev18f47j53_a-pic18f47j53.asm
                 _UIEbits   0x000f36       data     extern libdev18f47j53_a-pic18f47j53.asm
                    _UEIE   0x000f37       data     extern libdev18f47j53_a-pic18f47j53.asm
                _UEIEbits   0x000f37       data     extern libdev18f47j53_a-pic18f47j53.asm
                   _UADDR   0x000f38       data     extern libdev18f47j53_a-pic18f47j53.asm
               _UADDRbits   0x000f38       data     extern libdev18f47j53_a-pic18f47j53.asm
                    _UCFG   0x000f39       data     extern libdev18f47j53_a-pic18f47j53.asm
                _UCFGbits   0x000f39       data     extern libdev18f47j53_a-pic18f47j53.asm
                 _RTCVALL   0x000f3a       data     extern libdev18f47j53_a-pic18f47j53.asm
                 _RTCVALH   0x000f3b       data     extern libdev18f47j53_a-pic18f47j53.asm
                 _PADCFG1   0x000f3c       data     extern libdev18f47j53_a-pic18f47j53.asm
             _PADCFG1bits   0x000f3c       data     extern libdev18f47j53_a-pic18f47j53.asm
                 _REFOCON   0x000f3d       data     extern libdev18f47j53_a-pic18f47j53.asm
             _REFOCONbits   0x000f3d       data     extern libdev18f47j53_a-pic18f47j53.asm
                  _RTCCAL   0x000f3e       data     extern libdev18f47j53_a-pic18f47j53.asm
              _RTCCALbits   0x000f3e       data     extern libdev18f47j53_a-pic18f47j53.asm
                  _RTCCFG   0x000f3f       data     extern libdev18f47j53_a-pic18f47j53.asm
              _RTCCFGbits   0x000f3f       data     extern libdev18f47j53_a-pic18f47j53.asm
               _01179_DS_   0x000f40    program     static /dvpt/pinguino/git/pinguino-ide/pinguino/source/main.asm
                  _ODCON3   0x000f40       data     extern libdev18f47j53_a-pic18f47j53.asm
              _ODCON3bits   0x000f40       data     extern libdev18f47j53_a-pic18f47j53.asm
                  _ODCON2   0x000f41       data     extern libdev18f47j53_a-pic18f47j53.asm
              _ODCON2bits   0x000f41       data     extern libdev18f47j53_a-pic18f47j53.asm
                  _ODCON1   0x000f42       data     extern libdev18f47j53_a-pic18f47j53.asm
              _ODCON1bits   0x000f42       data     extern libdev18f47j53_a-pic18f47j53.asm
                _ALRMVALL   0x000f44       data     extern libdev18f47j53_a-pic18f47j53.asm
                _ALRMVALH   0x000f45       data     extern libdev18f47j53_a-pic18f47j53.asm
                 _ALRMRPT   0x000f46       data     extern libdev18f47j53_a-pic18f47j53.asm
             _ALRMRPTbits   0x000f46       data     extern libdev18f47j53_a-pic18f47j53.asm
                 _ALRMCFG   0x000f47       data     extern libdev18f47j53_a-pic18f47j53.asm
             _ALRMCFGbits   0x000f47       data     extern libdev18f47j53_a-pic18f47j53.asm
                  _ANCON0   0x000f48       data     extern libdev18f47j53_a-pic18f47j53.asm
              _ANCON0bits   0x000f48       data     extern libdev18f47j53_a-pic18f47j53.asm
                  _ANCON1   0x000f49       data     extern libdev18f47j53_a-pic18f47j53.asm
              _ANCON1bits   0x000f49       data     extern libdev18f47j53_a-pic18f47j53.asm
                 _DSWAKEL   0x000f4a       data     extern libdev18f47j53_a-pic18f47j53.asm
             _DSWAKELbits   0x000f4a       data     extern libdev18f47j53_a-pic18f47j53.asm
                 _DSWAKEH   0x000f4b       data     extern libdev18f47j53_a-pic18f47j53.asm
             _DSWAKEHbits   0x000f4b       data     extern libdev18f47j53_a-pic18f47j53.asm
                  _DSCONL   0x000f4c       data     extern libdev18f47j53_a-pic18f47j53.asm
              _DSCONLbits   0x000f4c       data     extern libdev18f47j53_a-pic18f47j53.asm
                  _DSCONH   0x000f4d       data     extern libdev18f47j53_a-pic18f47j53.asm
              _DSCONHbits   0x000f4d       data     extern libdev18f47j53_a-pic18f47j53.asm
               _01363_DS_   0x000f4e    program     static /dvpt/pinguino/git/pinguino-ide/pinguino/source/main.asm
                  _DSGPR0   0x000f4e       data     extern libdev18f47j53_a-pic18f47j53.asm
                  _DSGPR1   0x000f4f       data     extern libdev18f47j53_a-pic18f47j53.asm
                _CCPTMRS2   0x000f50       data     extern libdev18f47j53_a-pic18f47j53.asm
            _CCPTMRS2bits   0x000f50       data     extern libdev18f47j53_a-pic18f47j53.asm
                _CCPTMRS1   0x000f51       data     extern libdev18f47j53_a-pic18f47j53.asm
            _CCPTMRS1bits   0x000f51       data     extern libdev18f47j53_a-pic18f47j53.asm
               _01181_DS_   0x000f52    program     static /dvpt/pinguino/git/pinguino-ide/pinguino/source/main.asm
                _CCPTMRS0   0x000f52       data     extern libdev18f47j53_a-pic18f47j53.asm
            _CCPTMRS0bits   0x000f52       data     extern libdev18f47j53_a-pic18f47j53.asm
                  _CVRCON   0x000f53       data     extern libdev18f47j53_a-pic18f47j53.asm
              _CVRCONbits   0x000f53       data     extern libdev18f47j53_a-pic18f47j53.asm
                 _PMSTATL   0x000f54       data     extern libdev18f47j53_a-pic18f47j53.asm
             _PMSTATLbits   0x000f54       data     extern libdev18f47j53_a-pic18f47j53.asm
                 _PMSTATH   0x000f55       data     extern libdev18f47j53_a-pic18f47j53.asm
             _PMSTATHbits   0x000f55       data     extern libdev18f47j53_a-pic18f47j53.asm
                    _PMEL   0x000f56       data     extern libdev18f47j53_a-pic18f47j53.asm
                _PMELbits   0x000f56       data     extern libdev18f47j53_a-pic18f47j53.asm
                    _PMEH   0x000f57       data     extern libdev18f47j53_a-pic18f47j53.asm
                _PMEHbits   0x000f57       data     extern libdev18f47j53_a-pic18f47j53.asm
                 _PMDIN2L   0x000f58       data     extern libdev18f47j53_a-pic18f47j53.asm
                 _PMDIN2H   0x000f59       data     extern libdev18f47j53_a-pic18f47j53.asm
                _PMDOUT2L   0x000f5a       data     extern libdev18f47j53_a-pic18f47j53.asm
                _PMDOUT2H   0x000f5b       data     extern libdev18f47j53_a-pic18f47j53.asm
                 _PMMODEL   0x000f5c       data     extern libdev18f47j53_a-pic18f47j53.asm
             _PMMODELbits   0x000f5c       data     extern libdev18f47j53_a-pic18f47j53.asm
                 _PMMODEH   0x000f5d       data     extern libdev18f47j53_a-pic18f47j53.asm
             _PMMODEHbits   0x000f5d       data     extern libdev18f47j53_a-pic18f47j53.asm
                  _PMCONL   0x000f5e       data     extern libdev18f47j53_a-pic18f47j53.asm
              _PMCONLbits   0x000f5e       data     extern libdev18f47j53_a-pic18f47j53.asm
                  _PMCONH   0x000f5f       data     extern libdev18f47j53_a-pic18f47j53.asm
              _PMCONHbits   0x000f5f       data     extern libdev18f47j53_a-pic18f47j53.asm
                    _UFRM   0x000f60       data     extern libdev18f47j53_a-pic18f47j53.asm
                   _UFRML   0x000f60       data     extern libdev18f47j53_a-pic18f47j53.asm
               _UFRMLbits   0x000f60       data     extern libdev18f47j53_a-pic18f47j53.asm
                   _UFRMH   0x000f61       data     extern libdev18f47j53_a-pic18f47j53.asm
               _UFRMHbits   0x000f61       data     extern libdev18f47j53_a-pic18f47j53.asm
                     _UIR   0x000f62       data     extern libdev18f47j53_a-pic18f47j53.asm
                 _UIRbits   0x000f62       data     extern libdev18f47j53_a-pic18f47j53.asm
                    _UEIR   0x000f63       data     extern libdev18f47j53_a-pic18f47j53.asm
                _UEIRbits   0x000f63       data     extern libdev18f47j53_a-pic18f47j53.asm
                   _USTAT   0x000f64       data     extern libdev18f47j53_a-pic18f47j53.asm
               _USTATbits   0x000f64       data     extern libdev18f47j53_a-pic18f47j53.asm
                    _UCON   0x000f65       data     extern libdev18f47j53_a-pic18f47j53.asm
                _UCONbits   0x000f65       data     extern libdev18f47j53_a-pic18f47j53.asm
                  _DMABCH   0x000f66       data     extern libdev18f47j53_a-pic18f47j53.asm
                  _DMABCL   0x000f67       data     extern libdev18f47j53_a-pic18f47j53.asm
               _01365_DS_   0x000f68    program     static /dvpt/pinguino/git/pinguino-ide/pinguino/source/main.asm
                 _RXADDRH   0x000f68       data     extern libdev18f47j53_a-pic18f47j53.asm
                 _RXADDRL   0x000f69       data     extern libdev18f47j53_a-pic18f47j53.asm
                 _TXADDRH   0x000f6a       data     extern libdev18f47j53_a-pic18f47j53.asm
                 _TXADDRL   0x000f6b       data     extern libdev18f47j53_a-pic18f47j53.asm
                 _PMDIN1L   0x000f6c       data     extern libdev18f47j53_a-pic18f47j53.asm
                 _PMDIN1H   0x000f6d       data     extern libdev18f47j53_a-pic18f47j53.asm
                 _PMADDRL   0x000f6e       data     extern libdev18f47j53_a-pic18f47j53.asm
                _PMDOUT1L   0x000f6e       data     extern libdev18f47j53_a-pic18f47j53.asm
                 _PMADDRH   0x000f6f       data     extern libdev18f47j53_a-pic18f47j53.asm
             _PMADDRHbits   0x000f6f       data     extern libdev18f47j53_a-pic18f47j53.asm
                _PMDOUT1H   0x000f6f       data     extern libdev18f47j53_a-pic18f47j53.asm
                  _CMSTAT   0x000f70       data     extern libdev18f47j53_a-pic18f47j53.asm
                _CMSTATUS   0x000f70       data     extern libdev18f47j53_a-pic18f47j53.asm
            _CMSTATUSbits   0x000f70       data     extern libdev18f47j53_a-pic18f47j53.asm
              _CMSTATbits   0x000f70       data     extern libdev18f47j53_a-pic18f47j53.asm
                _SSP2CON2   0x000f71       data     extern libdev18f47j53_a-pic18f47j53.asm
            _SSP2CON2bits   0x000f71       data     extern libdev18f47j53_a-pic18f47j53.asm
                _SSP2CON1   0x000f72       data     extern libdev18f47j53_a-pic18f47j53.asm
            _SSP2CON1bits   0x000f72       data     extern libdev18f47j53_a-pic18f47j53.asm
                _SSP2STAT   0x000f73       data     extern libdev18f47j53_a-pic18f47j53.asm
            _SSP2STATbits   0x000f73       data     extern libdev18f47j53_a-pic18f47j53.asm
                 _SSP2ADD   0x000f74       data     extern libdev18f47j53_a-pic18f47j53.asm
                 _SSP2MSK   0x000f74       data     extern libdev18f47j53_a-pic18f47j53.asm
             _SSP2MSKbits   0x000f74       data     extern libdev18f47j53_a-pic18f47j53.asm
                 _SSP2BUF   0x000f75       data     extern libdev18f47j53_a-pic18f47j53.asm
                   _T4CON   0x000f76       data     extern libdev18f47j53_a-pic18f47j53.asm
               _T4CONbits   0x000f76       data     extern libdev18f47j53_a-pic18f47j53.asm
                     _PR4   0x000f77       data     extern libdev18f47j53_a-pic18f47j53.asm
                    _TMR4   0x000f78       data     extern libdev18f47j53_a-pic18f47j53.asm
                   _T3CON   0x000f79       data     extern libdev18f47j53_a-pic18f47j53.asm
               _T3CONbits   0x000f79       data     extern libdev18f47j53_a-pic18f47j53.asm
                    _TMR3   0x000f7a       data     extern libdev18f47j53_a-pic18f47j53.asm
                   _TMR3L   0x000f7a       data     extern libdev18f47j53_a-pic18f47j53.asm
                   _TMR3H   0x000f7b       data     extern libdev18f47j53_a-pic18f47j53.asm
                _BAUDCON2   0x000f7c       data     extern libdev18f47j53_a-pic18f47j53.asm
            _BAUDCON2bits   0x000f7c       data     extern libdev18f47j53_a-pic18f47j53.asm
                 _SPBRGH2   0x000f7d       data     extern libdev18f47j53_a-pic18f47j53.asm
                 _BAUDCON   0x000f7e       data     extern libdev18f47j53_a-pic18f47j53.asm
                _BAUDCON1   0x000f7e       data     extern libdev18f47j53_a-pic18f47j53.asm
            _BAUDCON1bits   0x000f7e       data     extern libdev18f47j53_a-pic18f47j53.asm
             _BAUDCONbits   0x000f7e       data     extern libdev18f47j53_a-pic18f47j53.asm
                 _BAUDCTL   0x000f7e       data     extern libdev18f47j53_a-pic18f47j53.asm
             _BAUDCTLbits   0x000f7e       data     extern libdev18f47j53_a-pic18f47j53.asm
                  _SPBRGH   0x000f7f       data     extern libdev18f47j53_a-pic18f47j53.asm
                 _SPBRGH1   0x000f7f       data     extern libdev18f47j53_a-pic18f47j53.asm
                   _PORTA   0x000f80       data     extern libdev18f47j53_a-pic18f47j53.asm
               _PORTAbits   0x000f80       data     extern libdev18f47j53_a-pic18f47j53.asm
                   _PORTB   0x000f81       data     extern libdev18f47j53_a-pic18f47j53.asm
               _PORTBbits   0x000f81       data     extern libdev18f47j53_a-pic18f47j53.asm
                   _PORTC   0x000f82       data     extern libdev18f47j53_a-pic18f47j53.asm
               _PORTCbits   0x000f82       data     extern libdev18f47j53_a-pic18f47j53.asm
                   _PORTD   0x000f83       data     extern libdev18f47j53_a-pic18f47j53.asm
               _PORTDbits   0x000f83       data     extern libdev18f47j53_a-pic18f47j53.asm
                   _PORTE   0x000f84       data     extern libdev18f47j53_a-pic18f47j53.asm
               _PORTEbits   0x000f84       data     extern libdev18f47j53_a-pic18f47j53.asm
                 _HLVDCON   0x000f85       data     extern libdev18f47j53_a-pic18f47j53.asm
             _HLVDCONbits   0x000f85       data     extern libdev18f47j53_a-pic18f47j53.asm
                 _DMACON2   0x000f86       data     extern libdev18f47j53_a-pic18f47j53.asm
             _DMACON2bits   0x000f86       data     extern libdev18f47j53_a-pic18f47j53.asm
                 _OSCCON2   0x000f87       data     extern libdev18f47j53_a-pic18f47j53.asm
             _OSCCON2bits   0x000f87       data     extern libdev18f47j53_a-pic18f47j53.asm
                 _DMACON1   0x000f88       data     extern libdev18f47j53_a-pic18f47j53.asm
             _DMACON1bits   0x000f88       data     extern libdev18f47j53_a-pic18f47j53.asm
                    _LATA   0x000f89       data     extern libdev18f47j53_a-pic18f47j53.asm
                _LATAbits   0x000f89       data     extern libdev18f47j53_a-pic18f47j53.asm
                    _LATB   0x000f8a       data     extern libdev18f47j53_a-pic18f47j53.asm
                _LATBbits   0x000f8a       data     extern libdev18f47j53_a-pic18f47j53.asm
                    _LATC   0x000f8b       data     extern libdev18f47j53_a-pic18f47j53.asm
                _LATCbits   0x000f8b       data     extern libdev18f47j53_a-pic18f47j53.asm
                    _LATD   0x000f8c       data     extern libdev18f47j53_a-pic18f47j53.asm
                _LATDbits   0x000f8c       data     extern libdev18f47j53_a-pic18f47j53.asm
                    _LATE   0x000f8d       data     extern libdev18f47j53_a-pic18f47j53.asm
                _LATEbits   0x000f8d       data     extern libdev18f47j53_a-pic18f47j53.asm
                    _PIE4   0x000f8e       data     extern libdev18f47j53_a-pic18f47j53.asm
                _PIE4bits   0x000f8e       data     extern libdev18f47j53_a-pic18f47j53.asm
                    _PIR4   0x000f8f       data     extern libdev18f47j53_a-pic18f47j53.asm
                _PIR4bits   0x000f8f       data     extern libdev18f47j53_a-pic18f47j53.asm
                    _IPR4   0x000f90       data     extern libdev18f47j53_a-pic18f47j53.asm
                _IPR4bits   0x000f90       data     extern libdev18f47j53_a-pic18f47j53.asm
                    _PIE5   0x000f91       data     extern libdev18f47j53_a-pic18f47j53.asm
                _PIE5bits   0x000f91       data     extern libdev18f47j53_a-pic18f47j53.asm
                   _TRISA   0x000f92       data     extern libdev18f47j53_a-pic18f47j53.asm
               _TRISAbits   0x000f92       data     extern libdev18f47j53_a-pic18f47j53.asm
                   _TRISB   0x000f93       data     extern libdev18f47j53_a-pic18f47j53.asm
               _TRISBbits   0x000f93       data     extern libdev18f47j53_a-pic18f47j53.asm
                   _TRISC   0x000f94       data     extern libdev18f47j53_a-pic18f47j53.asm
               _TRISCbits   0x000f94       data     extern libdev18f47j53_a-pic18f47j53.asm
                   _TRISD   0x000f95       data     extern libdev18f47j53_a-pic18f47j53.asm
               _TRISDbits   0x000f95       data     extern libdev18f47j53_a-pic18f47j53.asm
                   _TRISE   0x000f96       data     extern libdev18f47j53_a-pic18f47j53.asm
               _TRISEbits   0x000f96       data     extern libdev18f47j53_a-pic18f47j53.asm
                  _T3GCON   0x000f97       data     extern libdev18f47j53_a-pic18f47j53.asm
              _T3GCONbits   0x000f97       data     extern libdev18f47j53_a-pic18f47j53.asm
                    _PIR5   0x000f98       data     extern libdev18f47j53_a-pic18f47j53.asm
                _PIR5bits   0x000f98       data     extern libdev18f47j53_a-pic18f47j53.asm
                    _IPR5   0x000f99       data     extern libdev18f47j53_a-pic18f47j53.asm
                _IPR5bits   0x000f99       data     extern libdev18f47j53_a-pic18f47j53.asm
                  _T1GCON   0x000f9a       data     extern libdev18f47j53_a-pic18f47j53.asm
              _T1GCONbits   0x000f9a       data     extern libdev18f47j53_a-pic18f47j53.asm
                 _OSCTUNE   0x000f9b       data     extern libdev18f47j53_a-pic18f47j53.asm
             _OSCTUNEbits   0x000f9b       data     extern libdev18f47j53_a-pic18f47j53.asm
                  _RCSTA2   0x000f9c       data     extern libdev18f47j53_a-pic18f47j53.asm
              _RCSTA2bits   0x000f9c       data     extern libdev18f47j53_a-pic18f47j53.asm
                    _PIE1   0x000f9d       data     extern libdev18f47j53_a-pic18f47j53.asm
                _PIE1bits   0x000f9d       data     extern libdev18f47j53_a-pic18f47j53.asm
                    _PIR1   0x000f9e       data     extern libdev18f47j53_a-pic18f47j53.asm
                _PIR1bits   0x000f9e       data     extern libdev18f47j53_a-pic18f47j53.asm
                    _IPR1   0x000f9f       data     extern libdev18f47j53_a-pic18f47j53.asm
                _IPR1bits   0x000f9f       data     extern libdev18f47j53_a-pic18f47j53.asm
                    _PIE2   0x000fa0       data     extern libdev18f47j53_a-pic18f47j53.asm
                _PIE2bits   0x000fa0       data     extern libdev18f47j53_a-pic18f47j53.asm
                    _PIR2   0x000fa1       data     extern libdev18f47j53_a-pic18f47j53.asm
                _PIR2bits   0x000fa1       data     extern libdev18f47j53_a-pic18f47j53.asm
                    _IPR2   0x000fa2       data     extern libdev18f47j53_a-pic18f47j53.asm
                _IPR2bits   0x000fa2       data     extern libdev18f47j53_a-pic18f47j53.asm
                    _PIE3   0x000fa3       data     extern libdev18f47j53_a-pic18f47j53.asm
                _PIE3bits   0x000fa3       data     extern libdev18f47j53_a-pic18f47j53.asm
                    _PIR3   0x000fa4       data     extern libdev18f47j53_a-pic18f47j53.asm
                _PIR3bits   0x000fa4       data     extern libdev18f47j53_a-pic18f47j53.asm
                    _IPR3   0x000fa5       data     extern libdev18f47j53_a-pic18f47j53.asm
                _IPR3bits   0x000fa5       data     extern libdev18f47j53_a-pic18f47j53.asm
                  _EECON1   0x000fa6       data     extern libdev18f47j53_a-pic18f47j53.asm
              _EECON1bits   0x000fa6       data     extern libdev18f47j53_a-pic18f47j53.asm
                  _EECON2   0x000fa7       data     extern libdev18f47j53_a-pic18f47j53.asm
                  _TXSTA2   0x000fa8       data     extern libdev18f47j53_a-pic18f47j53.asm
              _TXSTA2bits   0x000fa8       data     extern libdev18f47j53_a-pic18f47j53.asm
                  _TXREG2   0x000fa9       data     extern libdev18f47j53_a-pic18f47j53.asm
                  _RCREG2   0x000faa       data     extern libdev18f47j53_a-pic18f47j53.asm
                  _SPBRG2   0x000fab       data     extern libdev18f47j53_a-pic18f47j53.asm
                   _RCSTA   0x000fac       data     extern libdev18f47j53_a-pic18f47j53.asm
                  _RCSTA1   0x000fac       data     extern libdev18f47j53_a-pic18f47j53.asm
              _RCSTA1bits   0x000fac       data     extern libdev18f47j53_a-pic18f47j53.asm
               _RCSTAbits   0x000fac       data     extern libdev18f47j53_a-pic18f47j53.asm
                   _TXSTA   0x000fad       data     extern libdev18f47j53_a-pic18f47j53.asm
                  _TXSTA1   0x000fad       data     extern libdev18f47j53_a-pic18f47j53.asm
              _TXSTA1bits   0x000fad       data     extern libdev18f47j53_a-pic18f47j53.asm
               _TXSTAbits   0x000fad       data     extern libdev18f47j53_a-pic18f47j53.asm
                   _TXREG   0x000fae       data     extern libdev18f47j53_a-pic18f47j53.asm
                  _TXREG1   0x000fae       data     extern libdev18f47j53_a-pic18f47j53.asm
                   _RCREG   0x000faf       data     extern libdev18f47j53_a-pic18f47j53.asm
                  _RCREG1   0x000faf       data     extern libdev18f47j53_a-pic18f47j53.asm
                   _SPBRG   0x000fb0       data     extern libdev18f47j53_a-pic18f47j53.asm
                  _SPBRG1   0x000fb0       data     extern libdev18f47j53_a-pic18f47j53.asm
                _CTMUICON   0x000fb1       data     extern libdev18f47j53_a-pic18f47j53.asm
            _CTMUICONbits   0x000fb1       data     extern libdev18f47j53_a-pic18f47j53.asm
               _01221_DS_   0x000fb2    program     static /dvpt/pinguino/git/pinguino-ide/pinguino/source/main.asm
                _CTMUCONL   0x000fb2       data     extern libdev18f47j53_a-pic18f47j53.asm
            _CTMUCONLbits   0x000fb2       data     extern libdev18f47j53_a-pic18f47j53.asm
                _CTMUCONH   0x000fb3       data     extern libdev18f47j53_a-pic18f47j53.asm
            _CTMUCONHbits   0x000fb3       data     extern libdev18f47j53_a-pic18f47j53.asm
                 _CCP2CON   0x000fb4       data     extern libdev18f47j53_a-pic18f47j53.asm
             _CCP2CONbits   0x000fb4       data     extern libdev18f47j53_a-pic18f47j53.asm
                _ECCP2CON   0x000fb4       data     extern libdev18f47j53_a-pic18f47j53.asm
            _ECCP2CONbits   0x000fb4       data     extern libdev18f47j53_a-pic18f47j53.asm
                   _CCPR2   0x000fb5       data     extern libdev18f47j53_a-pic18f47j53.asm
                  _CCPR2L   0x000fb5       data     extern libdev18f47j53_a-pic18f47j53.asm
                  _CCPR2H   0x000fb6       data     extern libdev18f47j53_a-pic18f47j53.asm
                _ECCP2DEL   0x000fb7       data     extern libdev18f47j53_a-pic18f47j53.asm
            _ECCP2DELbits   0x000fb7       data     extern libdev18f47j53_a-pic18f47j53.asm
                 _PWM2CON   0x000fb7       data     extern libdev18f47j53_a-pic18f47j53.asm
             _PWM2CONbits   0x000fb7       data     extern libdev18f47j53_a-pic18f47j53.asm
                 _ECCP2AS   0x000fb8       data     extern libdev18f47j53_a-pic18f47j53.asm
             _ECCP2ASbits   0x000fb8       data     extern libdev18f47j53_a-pic18f47j53.asm
                _PSTR2CON   0x000fb9       data     extern libdev18f47j53_a-pic18f47j53.asm
            _PSTR2CONbits   0x000fb9       data     extern libdev18f47j53_a-pic18f47j53.asm
                 _CCP1CON   0x000fba       data     extern libdev18f47j53_a-pic18f47j53.asm
             _CCP1CONbits   0x000fba       data     extern libdev18f47j53_a-pic18f47j53.asm
                _ECCP1CON   0x000fba       data     extern libdev18f47j53_a-pic18f47j53.asm
            _ECCP1CONbits   0x000fba       data     extern libdev18f47j53_a-pic18f47j53.asm
                   _CCPR1   0x000fbb       data     extern libdev18f47j53_a-pic18f47j53.asm
                  _CCPR1L   0x000fbb       data     extern libdev18f47j53_a-pic18f47j53.asm
                  _CCPR1H   0x000fbc       data     extern libdev18f47j53_a-pic18f47j53.asm
                _ECCP1DEL   0x000fbd       data     extern libdev18f47j53_a-pic18f47j53.asm
            _ECCP1DELbits   0x000fbd       data     extern libdev18f47j53_a-pic18f47j53.asm
                 _PWM1CON   0x000fbd       data     extern libdev18f47j53_a-pic18f47j53.asm
             _PWM1CONbits   0x000fbd       data     extern libdev18f47j53_a-pic18f47j53.asm
                 _ECCP1AS   0x000fbe       data     extern libdev18f47j53_a-pic18f47j53.asm
             _ECCP1ASbits   0x000fbe       data     extern libdev18f47j53_a-pic18f47j53.asm
                _PSTR1CON   0x000fbf       data     extern libdev18f47j53_a-pic18f47j53.asm
            _PSTR1CONbits   0x000fbf       data     extern libdev18f47j53_a-pic18f47j53.asm
                  _WDTCON   0x000fc0       data     extern libdev18f47j53_a-pic18f47j53.asm
              _WDTCONbits   0x000fc0       data     extern libdev18f47j53_a-pic18f47j53.asm
                  _ADCON1   0x000fc1       data     extern libdev18f47j53_a-pic18f47j53.asm
              _ADCON1bits   0x000fc1       data     extern libdev18f47j53_a-pic18f47j53.asm
                  _ADCON0   0x000fc2       data     extern libdev18f47j53_a-pic18f47j53.asm
              _ADCON0bits   0x000fc2       data     extern libdev18f47j53_a-pic18f47j53.asm
                   _ADRES   0x000fc3       data     extern libdev18f47j53_a-pic18f47j53.asm
                  _ADRESL   0x000fc3       data     extern libdev18f47j53_a-pic18f47j53.asm
                  _ADRESH   0x000fc4       data     extern libdev18f47j53_a-pic18f47j53.asm
                _SSP1CON2   0x000fc5       data     extern libdev18f47j53_a-pic18f47j53.asm
            _SSP1CON2bits   0x000fc5       data     extern libdev18f47j53_a-pic18f47j53.asm
                 _SSPCON2   0x000fc5       data     extern libdev18f47j53_a-pic18f47j53.asm
             _SSPCON2bits   0x000fc5       data     extern libdev18f47j53_a-pic18f47j53.asm
                _SSP1CON1   0x000fc6       data     extern libdev18f47j53_a-pic18f47j53.asm
            _SSP1CON1bits   0x000fc6       data     extern libdev18f47j53_a-pic18f47j53.asm
                 _SSPCON1   0x000fc6       data     extern libdev18f47j53_a-pic18f47j53.asm
             _SSPCON1bits   0x000fc6       data     extern libdev18f47j53_a-pic18f47j53.asm
                _SSP1STAT   0x000fc7       data     extern libdev18f47j53_a-pic18f47j53.asm
            _SSP1STATbits   0x000fc7       data     extern libdev18f47j53_a-pic18f47j53.asm
                 _SSPSTAT   0x000fc7       data     extern libdev18f47j53_a-pic18f47j53.asm
             _SSPSTATbits   0x000fc7       data     extern libdev18f47j53_a-pic18f47j53.asm
                 _SSP1ADD   0x000fc8       data     extern libdev18f47j53_a-pic18f47j53.asm
                 _SSP1MSK   0x000fc8       data     extern libdev18f47j53_a-pic18f47j53.asm
             _SSP1MSKbits   0x000fc8       data     extern libdev18f47j53_a-pic18f47j53.asm
                  _SSPADD   0x000fc8       data     extern libdev18f47j53_a-pic18f47j53.asm
                 _SSP1BUF   0x000fc9       data     extern libdev18f47j53_a-pic18f47j53.asm
                  _SSPBUF   0x000fc9       data     extern libdev18f47j53_a-pic18f47j53.asm
                   _T2CON   0x000fca       data     extern libdev18f47j53_a-pic18f47j53.asm
               _T2CONbits   0x000fca       data     extern libdev18f47j53_a-pic18f47j53.asm
                     _PR2   0x000fcb       data     extern libdev18f47j53_a-pic18f47j53.asm
                    _TMR2   0x000fcc       data     extern libdev18f47j53_a-pic18f47j53.asm
                   _T1CON   0x000fcd       data     extern libdev18f47j53_a-pic18f47j53.asm
               _T1CONbits   0x000fcd       data     extern libdev18f47j53_a-pic18f47j53.asm
                    _TMR1   0x000fce       data     extern libdev18f47j53_a-pic18f47j53.asm
                   _TMR1L   0x000fce       data     extern libdev18f47j53_a-pic18f47j53.asm
                   _TMR1H   0x000fcf       data     extern libdev18f47j53_a-pic18f47j53.asm
                    _RCON   0x000fd0       data     extern libdev18f47j53_a-pic18f47j53.asm
                _RCONbits   0x000fd0       data     extern libdev18f47j53_a-pic18f47j53.asm
                  _CM2CON   0x000fd1       data     extern libdev18f47j53_a-pic18f47j53.asm
                 _CM2CON1   0x000fd1       data     extern libdev18f47j53_a-pic18f47j53.asm
             _CM2CON1bits   0x000fd1       data     extern libdev18f47j53_a-pic18f47j53.asm
              _CM2CONbits   0x000fd1       data     extern libdev18f47j53_a-pic18f47j53.asm
                  _CM1CON   0x000fd2       data     extern libdev18f47j53_a-pic18f47j53.asm
                 _CM1CON1   0x000fd2       data     extern libdev18f47j53_a-pic18f47j53.asm
             _CM1CON1bits   0x000fd2       data     extern libdev18f47j53_a-pic18f47j53.asm
              _CM1CONbits   0x000fd2       data     extern libdev18f47j53_a-pic18f47j53.asm
                  _OSCCON   0x000fd3       data     extern libdev18f47j53_a-pic18f47j53.asm
              _OSCCONbits   0x000fd3       data     extern libdev18f47j53_a-pic18f47j53.asm
                   _T0CON   0x000fd5       data     extern libdev18f47j53_a-pic18f47j53.asm
               _T0CONbits   0x000fd5       data     extern libdev18f47j53_a-pic18f47j53.asm
                    _TMR0   0x000fd6       data     extern libdev18f47j53_a-pic18f47j53.asm
                   _TMR0L   0x000fd6       data     extern libdev18f47j53_a-pic18f47j53.asm
                   _TMR0H   0x000fd7       data     extern libdev18f47j53_a-pic18f47j53.asm
                  _STATUS   0x000fd8       data     extern libdev18f47j53_a-pic18f47j53.asm
              _STATUSbits   0x000fd8       data     extern libdev18f47j53_a-pic18f47j53.asm
                   _FSR2L   0x000fd9       data     extern libdev18f47j53_a-pic18f47j53.asm
                   _FSR2H   0x000fda       data     extern libdev18f47j53_a-pic18f47j53.asm
                  _PLUSW2   0x000fdb       data     extern libdev18f47j53_a-pic18f47j53.asm
                 _PREINC2   0x000fdc       data     extern libdev18f47j53_a-pic18f47j53.asm
                _POSTDEC2   0x000fdd       data     extern libdev18f47j53_a-pic18f47j53.asm
                _POSTINC2   0x000fde       data     extern libdev18f47j53_a-pic18f47j53.asm
                   _INDF2   0x000fdf       data     extern libdev18f47j53_a-pic18f47j53.asm
                     _BSR   0x000fe0       data     extern libdev18f47j53_a-pic18f47j53.asm
                   _FSR1L   0x000fe1       data     extern libdev18f47j53_a-pic18f47j53.asm
                   _FSR1H   0x000fe2       data     extern libdev18f47j53_a-pic18f47j53.asm
                  _PLUSW1   0x000fe3       data     extern libdev18f47j53_a-pic18f47j53.asm
                 _PREINC1   0x000fe4       data     extern libdev18f47j53_a-pic18f47j53.asm
                _POSTDEC1   0x000fe5       data     extern libdev18f47j53_a-pic18f47j53.asm
                _POSTINC1   0x000fe6       data     extern libdev18f47j53_a-pic18f47j53.asm
                   _INDF1   0x000fe7       data     extern libdev18f47j53_a-pic18f47j53.asm
                    _WREG   0x000fe8       data     extern libdev18f47j53_a-pic18f47j53.asm
                   _FSR0L   0x000fe9       data     extern libdev18f47j53_a-pic18f47j53.asm
                   _FSR0H   0x000fea       data     extern libdev18f47j53_a-pic18f47j53.asm
                  _PLUSW0   0x000feb       data     extern libdev18f47j53_a-pic18f47j53.asm
                 _PREINC0   0x000fec       data     extern libdev18f47j53_a-pic18f47j53.asm
                _POSTDEC0   0x000fed       data     extern libdev18f47j53_a-pic18f47j53.asm
                _POSTINC0   0x000fee       data     extern libdev18f47j53_a-pic18f47j53.asm
                   _INDF0   0x000fef       data     extern libdev18f47j53_a-pic18f47j53.asm
                 _INTCON3   0x000ff0       data     extern libdev18f47j53_a-pic18f47j53.asm
             _INTCON3bits   0x000ff0       data     extern libdev18f47j53_a-pic18f47j53.asm
                 _INTCON2   0x000ff1       data     extern libdev18f47j53_a-pic18f47j53.asm
             _INTCON2bits   0x000ff1       data     extern libdev18f47j53_a-pic18f47j53.asm
                  _INTCON   0x000ff2       data     extern libdev18f47j53_a-pic18f47j53.asm
              _INTCONbits   0x000ff2       data     extern libdev18f47j53_a-pic18f47j53.asm
                    _PROD   0x000ff3       data     extern libdev18f47j53_a-pic18f47j53.asm
                   _PRODL   0x000ff3       data     extern libdev18f47j53_a-pic18f47j53.asm
                   _PRODH   0x000ff4       data     extern libdev18f47j53_a-pic18f47j53.asm
                  _TABLAT   0x000ff5       data     extern libdev18f47j53_a-pic18f47j53.asm
                  _TBLPTR   0x000ff6       data     extern libdev18f47j53_a-pic18f47j53.asm
                 _TBLPTRL   0x000ff6       data     extern libdev18f47j53_a-pic18f47j53.asm
                 _TBLPTRH   0x000ff7       data     extern libdev18f47j53_a-pic18f47j53.asm
                 _TBLPTRU   0x000ff8       data     extern libdev18f47j53_a-pic18f47j53.asm
                      _PC   0x000ff9       data     extern libdev18f47j53_a-pic18f47j53.asm
                     _PCL   0x000ff9       data     extern libdev18f47j53_a-pic18f47j53.asm
               _01222_DS_   0x000ffa    program     static /dvpt/pinguino/git/pinguino-ide/pinguino/source/main.asm
                  _PCLATH   0x000ffa       data     extern libdev18f47j53_a-pic18f47j53.asm
                  _PCLATU   0x000ffb       data     extern libdev18f47j53_a-pic18f47j53.asm
                  _STKPTR   0x000ffc       data     extern libdev18f47j53_a-pic18f47j53.asm
              _STKPTRbits   0x000ffc       data     extern libdev18f47j53_a-pic18f47j53.asm
                     _TOS   0x000ffd       data     extern libdev18f47j53_a-pic18f47j53.asm
                    _TOSL   0x000ffd       data     extern libdev18f47j53_a-pic18f47j53.asm
                    _TOSH   0x000ffe       data     extern libdev18f47j53_a-pic18f47j53.asm
                    _TOSU   0x000fff       data     extern libdev18f47j53_a-pic18f47j53.asm
               _01183_DS_   0x001040    program     static /dvpt/pinguino/git/pinguino-ide/pinguino/source/main.asm
               _01184_DS_   0x00104e    program     static /dvpt/pinguino/git/pinguino-ide/pinguino/source/main.asm
               _01223_DS_   0x001098    program     static /dvpt/pinguino/git/pinguino-ide/pinguino/source/main.asm
               _01224_DS_   0x0010e0    program     static /dvpt/pinguino/git/pinguino-ide/pinguino/source/main.asm
               _01185_DS_   0x001138    program     static /dvpt/pinguino/git/pinguino-ide/pinguino/source/main.asm
               _01187_DS_   0x001146    program     static /dvpt/pinguino/git/pinguino-ide/pinguino/source/main.asm
               _01225_DS_   0x001190    program     static /dvpt/pinguino/git/pinguino-ide/pinguino/source/main.asm
               _01226_DS_   0x0011d8    program     static /dvpt/pinguino/git/pinguino-ide/pinguino/source/main.asm
               _01188_DS_   0x00122c    program     static /dvpt/pinguino/git/pinguino-ide/pinguino/source/main.asm
               _01190_DS_   0x00123a    program     static /dvpt/pinguino/git/pinguino-ide/pinguino/source/main.asm
               _01227_DS_   0x001284    program     static /dvpt/pinguino/git/pinguino-ide/pinguino/source/main.asm
               _01228_DS_   0x0012cc    program     static /dvpt/pinguino/git/pinguino-ide/pinguino/source/main.asm
               _01191_DS_   0x001320    program     static /dvpt/pinguino/git/pinguino-ide/pinguino/source/main.asm
               _01379_DS_   0x001328    program     static /dvpt/pinguino/git/pinguino-ide/pinguino/source/main.asm
               _01229_DS_   0x001372    program     static /dvpt/pinguino/git/pinguino-ide/pinguino/source/main.asm
               _01230_DS_   0x0013ba    program     static /dvpt/pinguino/git/pinguino-ide/pinguino/source/main.asm
               _01194_DS_   0x00140e    program     static /dvpt/pinguino/git/pinguino-ide/pinguino/source/main.asm
               _01381_DS_   0x001416    program     static /dvpt/pinguino/git/pinguino-ide/pinguino/source/main.asm
               _01231_DS_   0x001460    program     static /dvpt/pinguino/git/pinguino-ide/pinguino/source/main.asm
               _01232_DS_   0x0014a8    program     static /dvpt/pinguino/git/pinguino-ide/pinguino/source/main.asm
               _01196_DS_   0x0014fc    program     static /dvpt/pinguino/git/pinguino-ide/pinguino/source/main.asm
               _01383_DS_   0x001504    program     static /dvpt/pinguino/git/pinguino-ide/pinguino/source/main.asm
               _01199_DS_   0x001576    program     static /dvpt/pinguino/git/pinguino-ide/pinguino/source/main.asm
               _01203_DS_   0x00159c    program     static /dvpt/pinguino/git/pinguino-ide/pinguino/source/main.asm
               _01384_DS_   0x0015a4    program     static /dvpt/pinguino/git/pinguino-ide/pinguino/source/main.asm
               _01204_DS_   0x0015a8    program     static /dvpt/pinguino/git/pinguino-ide/pinguino/source/main.asm
               _01206_DS_   0x0015d8    program     static /dvpt/pinguino/git/pinguino-ide/pinguino/source/main.asm
                _pprintfl   0x001648    program     static /dvpt/pinguino/git/pinguino-ide/pinguino/source/main.asm
               _01036_DS_   0x001780    program     static /dvpt/pinguino/git/pinguino-ide/pinguino/source/main.asm
               _01124_DS_   0x00179a    program     static /dvpt/pinguino/git/pinguino-ide/pinguino/source/main.asm
               _01040_DS_   0x00179e    program     static /dvpt/pinguino/git/pinguino-ide/pinguino/source/main.asm
               _01047_DS_   0x0017ce    program     static /dvpt/pinguino/git/pinguino-ide/pinguino/source/main.asm
               _01048_DS_   0x00180c    program     static /dvpt/pinguino/git/pinguino-ide/pinguino/source/main.asm
               _01132_DS_   0x001840    program     static /dvpt/pinguino/git/pinguino-ide/pinguino/source/main.asm
               _01134_DS_   0x00184e    program     static /dvpt/pinguino/git/pinguino-ide/pinguino/source/main.asm
               _01133_DS_   0x001850    program     static /dvpt/pinguino/git/pinguino-ide/pinguino/source/main.asm
               _01131_DS_   0x00185c    program     static /dvpt/pinguino/git/pinguino-ide/pinguino/source/main.asm
               _01045_DS_   0x00185e    program     static /dvpt/pinguino/git/pinguino-ide/pinguino/source/main.asm
               _01136_DS_   0x001896    program     static /dvpt/pinguino/git/pinguino-ide/pinguino/source/main.asm
               _01138_DS_   0x0018a4    program     static /dvpt/pinguino/git/pinguino-ide/pinguino/source/main.asm
               _01137_DS_   0x0018a6    program     static /dvpt/pinguino/git/pinguino-ide/pinguino/source/main.asm
               _01135_DS_   0x0018b2    program     static /dvpt/pinguino/git/pinguino-ide/pinguino/source/main.asm
               _01140_DS_   0x0018d0    program     static /dvpt/pinguino/git/pinguino-ide/pinguino/source/main.asm
               _01142_DS_   0x0018de    program     static /dvpt/pinguino/git/pinguino-ide/pinguino/source/main.asm
               _01141_DS_   0x0018e0    program     static /dvpt/pinguino/git/pinguino-ide/pinguino/source/main.asm
               _01139_DS_   0x0018ec    program     static /dvpt/pinguino/git/pinguino-ide/pinguino/source/main.asm
               _01042_DS_   0x0018fc    program     static /dvpt/pinguino/git/pinguino-ide/pinguino/source/main.asm
               _01147_DS_   0x00192a    program     static /dvpt/pinguino/git/pinguino-ide/pinguino/source/main.asm
               _01149_DS_   0x001938    program     static /dvpt/pinguino/git/pinguino-ide/pinguino/source/main.asm
               _01148_DS_   0x00193a    program     static /dvpt/pinguino/git/pinguino-ide/pinguino/source/main.asm
               _01049_DS_   0x001946    program     static /dvpt/pinguino/git/pinguino-ide/pinguino/source/main.asm
               _01150_DS_   0x00196a    program     static /dvpt/pinguino/git/pinguino-ide/pinguino/source/main.asm
               _01080_DS_   0x00196e    program     static /dvpt/pinguino/git/pinguino-ide/pinguino/source/main.asm
               _01051_DS_   0x001980    program     static /dvpt/pinguino/git/pinguino-ide/pinguino/source/main.asm
               _01151_DS_   0x0019ce    program     static /dvpt/pinguino/git/pinguino-ide/pinguino/source/main.asm
               _01088_DS_   0x001a04    program     static /dvpt/pinguino/git/pinguino-ide/pinguino/source/main.asm
               _01054_DS_   0x001a14    program     static /dvpt/pinguino/git/pinguino-ide/pinguino/source/main.asm
               _01152_DS_   0x001a50    program     static /dvpt/pinguino/git/pinguino-ide/pinguino/source/main.asm
               _01089_DS_   0x001a52    program     static /dvpt/pinguino/git/pinguino-ide/pinguino/source/main.asm
               _01059_DS_   0x001a5e    program     static /dvpt/pinguino/git/pinguino-ide/pinguino/source/main.asm
               _01061_DS_   0x001a68    program     static /dvpt/pinguino/git/pinguino-ide/pinguino/source/main.asm
               _01156_DS_   0x001a94    program     static /dvpt/pinguino/git/pinguino-ide/pinguino/source/main.asm
               _01068_DS_   0x001aa2    program     static /dvpt/pinguino/git/pinguino-ide/pinguino/source/main.asm
               _01158_DS_   0x001b16    program     static /dvpt/pinguino/git/pinguino-ide/pinguino/source/main.asm
               _01090_DS_   0x001b1c    program     static /dvpt/pinguino/git/pinguino-ide/pinguino/source/main.asm
               _01066_DS_   0x001b28    program     static /dvpt/pinguino/git/pinguino-ide/pinguino/source/main.asm
               _01070_DS_   0x001b68    program     static /dvpt/pinguino/git/pinguino-ide/pinguino/source/main.asm
                 _pprinti   0x001bf2    program     static /dvpt/pinguino/git/pinguino-ide/pinguino/source/main.asm
               _00962_DS_   0x001d0c    program     static /dvpt/pinguino/git/pinguino-ide/pinguino/source/main.asm
               _00964_DS_   0x001d52    program     static /dvpt/pinguino/git/pinguino-ide/pinguino/source/main.asm
               _00970_DS_   0x001d7c    program     static /dvpt/pinguino/git/pinguino-ide/pinguino/source/main.asm
               _00974_DS_   0x001da2    program     static /dvpt/pinguino/git/pinguino-ide/pinguino/source/main.asm
               _01029_DS_   0x001dfe    program     static /dvpt/pinguino/git/pinguino-ide/pinguino/source/main.asm
               _00973_DS_   0x001e0c    program     static /dvpt/pinguino/git/pinguino-ide/pinguino/source/main.asm
               _00998_DS_   0x001e62    program     static /dvpt/pinguino/git/pinguino-ide/pinguino/source/main.asm
               _00978_DS_   0x001e9a    program     static /dvpt/pinguino/git/pinguino-ide/pinguino/source/main.asm
               _00982_DS_   0x001eb4    program     static /dvpt/pinguino/git/pinguino-ide/pinguino/source/main.asm
               _00983_DS_   0x001ee4    program     static /dvpt/pinguino/git/pinguino-ide/pinguino/source/main.asm
                _CDCprint   0x001f5a    program     extern /dvpt/pinguino/git/pinguino-ide/pinguino/source/main.asm
               _01460_DS_   0x001f9e    program     static /dvpt/pinguino/git/pinguino-ide/pinguino/source/main.asm
               _01462_DS_   0x001fa6    program     static /dvpt/pinguino/git/pinguino-ide/pinguino/source/main.asm
               _01464_DS_   0x001fae    program     static /dvpt/pinguino/git/pinguino-ide/pinguino/source/main.asm
               _01468_DS_   0x001fbc    program     static /dvpt/pinguino/git/pinguino-ide/pinguino/source/main.asm
               _01470_DS_   0x001fc4    program     static /dvpt/pinguino/git/pinguino-ide/pinguino/source/main.asm
               _01432_DS_   0x00201e    program     static /dvpt/pinguino/git/pinguino-ide/pinguino/source/main.asm
               _01433_DS_   0x002078    program     static /dvpt/pinguino/git/pinguino-ide/pinguino/source/main.asm
               _01434_DS_   0x0020d2    program     static /dvpt/pinguino/git/pinguino-ide/pinguino/source/main.asm
               _01435_DS_   0x00212c    program     static /dvpt/pinguino/git/pinguino-ide/pinguino/source/main.asm
               _01436_DS_   0x002186    program     static /dvpt/pinguino/git/pinguino-ide/pinguino/source/main.asm
               _01437_DS_   0x0021e0    program     static /dvpt/pinguino/git/pinguino-ide/pinguino/source/main.asm
               _01439_DS_   0x002248    program     static /dvpt/pinguino/git/pinguino-ide/pinguino/source/main.asm
                 _pinmode   0x00225a    program     extern /dvpt/pinguino/git/pinguino-ide/pinguino/source/main.asm
               _01649_DS_   0x0022cc    program     static /dvpt/pinguino/git/pinguino-ide/pinguino/source/main.asm
               _01607_DS_   0x0022e0    program     static /dvpt/pinguino/git/pinguino-ide/pinguino/source/main.asm
               _01609_DS_   0x00230e    program     static /dvpt/pinguino/git/pinguino-ide/pinguino/source/main.asm
               _01611_DS_   0x00233a    program     static /dvpt/pinguino/git/pinguino-ide/pinguino/source/main.asm
               _01613_DS_   0x002368    program     static /dvpt/pinguino/git/pinguino-ide/pinguino/source/main.asm
               _01615_DS_   0x002394    program     static /dvpt/pinguino/git/pinguino-ide/pinguino/source/main.asm
               _01617_DS_   0x0023c2    program     static /dvpt/pinguino/git/pinguino-ide/pinguino/source/main.asm
               _01619_DS_   0x0023ee    program     static /dvpt/pinguino/git/pinguino-ide/pinguino/source/main.asm
               _01621_DS_   0x00241c    program     static /dvpt/pinguino/git/pinguino-ide/pinguino/source/main.asm
               _01623_DS_   0x002448    program     static /dvpt/pinguino/git/pinguino-ide/pinguino/source/main.asm
               _01625_DS_   0x002476    program     static /dvpt/pinguino/git/pinguino-ide/pinguino/source/main.asm
               _01628_DS_   0x00249e    program     static /dvpt/pinguino/git/pinguino-ide/pinguino/source/main.asm
            _digitalwrite   0x0024b8    program     extern /dvpt/pinguino/git/pinguino-ide/pinguino/source/main.asm
               _01555_DS_   0x00252a    program     static /dvpt/pinguino/git/pinguino-ide/pinguino/source/main.asm
               _01513_DS_   0x00253e    program     static /dvpt/pinguino/git/pinguino-ide/pinguino/source/main.asm
               _01515_DS_   0x00256c    program     static /dvpt/pinguino/git/pinguino-ide/pinguino/source/main.asm
               _01517_DS_   0x002598    program     static /dvpt/pinguino/git/pinguino-ide/pinguino/source/main.asm
               _01519_DS_   0x0025c6    program     static /dvpt/pinguino/git/pinguino-ide/pinguino/source/main.asm
               _01521_DS_   0x0025f2    program     static /dvpt/pinguino/git/pinguino-ide/pinguino/source/main.asm
               _01523_DS_   0x002620    program     static /dvpt/pinguino/git/pinguino-ide/pinguino/source/main.asm
               _01525_DS_   0x00264c    program     static /dvpt/pinguino/git/pinguino-ide/pinguino/source/main.asm
               _01527_DS_   0x00267a    program     static /dvpt/pinguino/git/pinguino-ide/pinguino/source/main.asm
               _01529_DS_   0x0026a6    program     static /dvpt/pinguino/git/pinguino-ide/pinguino/source/main.asm
               _01531_DS_   0x0026d4    program     static /dvpt/pinguino/git/pinguino-ide/pinguino/source/main.asm
               _01534_DS_   0x0026fc    program     static /dvpt/pinguino/git/pinguino-ide/pinguino/source/main.asm
    _libdevice_descriptor   0x002716    program     extern /dvpt/pinguino/git/pinguino-ide/pinguino/source/main.asm
_libconfiguration_descriptor   0x002728    program     extern /dvpt/pinguino/git/pinguino-ide/pinguino/source/main.asm
                    _lang   0x00276c    program     extern /dvpt/pinguino/git/pinguino-ide/pinguino/source/main.asm
                    _manu   0x002770    program     extern /dvpt/pinguino/git/pinguino-ide/pinguino/source/main.asm
                    _prod   0x002786    program     extern /dvpt/pinguino/git/pinguino-ide/pinguino/source/main.asm
    _libstring_descriptor   0x002798    program     extern /dvpt/pinguino/git/pinguino-ide/pinguino/source/main.asm
                  __str_0   0x0027a2    program     static /dvpt/pinguino/git/pinguino-ide/pinguino/source/main.asm
                  __str_1   0x0027aa    program     static /dvpt/pinguino/git/pinguino-ide/pinguino/source/main.asm
                  __str_2   0x0027ae    program     static /dvpt/pinguino/git/pinguino-ide/pinguino/source/main.asm
                  __str_3   0x0027b2    program     static /dvpt/pinguino/git/pinguino-ide/pinguino/source/main.asm
                  __str_4   0x0027b6    program     static /dvpt/pinguino/git/pinguino-ide/pinguino/source/main.asm
                  __str_5   0x0027ba    program     static /dvpt/pinguino/git/pinguino-ide/pinguino/source/main.asm
                  __str_6   0x0027be    program     static /dvpt/pinguino/git/pinguino-ide/pinguino/source/main.asm
                  __str_7   0x0027c2    program     static /dvpt/pinguino/git/pinguino-ide/pinguino/source/main.asm
                    _mask   0x0027c6    program     extern /dvpt/pinguino/git/pinguino-ide/pinguino/source/main.asm
                    _port   0x0027e6    program     extern /dvpt/pinguino/git/pinguino-ide/pinguino/source/main.asm
                  __str_8   0x002806    program     static /dvpt/pinguino/git/pinguino-ide/pinguino/source/main.asm
                  __str_9   0x002828    program     static /dvpt/pinguino/git/pinguino-ide/pinguino/source/main.asm
                 __str_10   0x00284a    program     static /dvpt/pinguino/git/pinguino-ide/pinguino/source/main.asm
                 __str_11   0x00285a    program     static /dvpt/pinguino/git/pinguino-ide/pinguino/source/main.asm
                 __str_12   0x00286e    program     static /dvpt/pinguino/git/pinguino-ide/pinguino/source/main.asm
                 __str_13   0x002886    program     static /dvpt/pinguino/git/pinguino-ide/pinguino/source/main.asm
                 __str_14   0x0028b0    program     static /dvpt/pinguino/git/pinguino-ide/pinguino/source/main.asm
                 __str_15   0x0028be    program     static /dvpt/pinguino/git/pinguino-ide/pinguino/source/main.asm
                 __str_16   0x0028cc    program     static /dvpt/pinguino/git/pinguino-ide/pinguino/source/main.asm
              _delay1ktcy   0x0028e6    program     extern /dvpt/sdcc/sources/sdcc/device/lib/pic16/libc/delay/delay1ktcy.S
              _.code_000E   0x0028f4    program     static /dvpt/sdcc/sources/sdcc/device/lib/pic16/libc/delay/delay1ktcy.S
            @delay1k_loop   0x0028f6    program     static /dvpt/sdcc/sources/sdcc/device/lib/pic16/libc/delay/delay1ktcy.S
              _.code_0018   0x0028fe    program     static /dvpt/sdcc/sources/sdcc/device/lib/pic16/libc/delay/delay1ktcy.S
              _.code_001A   0x002900    program     static /dvpt/sdcc/sources/sdcc/device/lib/pic16/libc/delay/delay1ktcy.S
             @delay1k_end   0x00290a    program     static /dvpt/sdcc/sources/sdcc/device/lib/pic16/libc/delay/delay1ktcy.S
              _delay10tcy   0x00290c    program     extern /dvpt/sdcc/sources/sdcc/device/lib/pic16/libc/delay/delay10tcy.S
              _.code_0008   0x002914    program     static /dvpt/sdcc/sources/sdcc/device/lib/pic16/libc/delay/delay10tcy.S
            @delay10_loop   0x002916    program     static /dvpt/sdcc/sources/sdcc/device/lib/pic16/libc/delay/delay10tcy.S
              _.code_000A   0x002916    program     static /dvpt/sdcc/sources/sdcc/device/lib/pic16/libc/delay/delay10tcy.S
              _.code_000C   0x002918    program     static /dvpt/sdcc/sources/sdcc/device/lib/pic16/libc/delay/delay10tcy.S
              _.code_000E   0x00291a    program     static /dvpt/sdcc/sources/sdcc/device/lib/pic16/libc/delay/delay10tcy.S
             @delay10_end   0x002922    program     static /dvpt/sdcc/sources/sdcc/device/lib/pic16/libc/delay/delay10tcy.S
             _InDataStage   0x002924    program     extern /dvpt/pinguino/git/pinguino-ide/pinguino/source/main.asm
               _00390_DS_   0x002962    program     static /dvpt/pinguino/git/pinguino-ide/pinguino/source/main.asm
               _00372_DS_   0x00296e    program     static /dvpt/pinguino/git/pinguino-ide/pinguino/source/main.asm
               _00373_DS_   0x002974    program     static /dvpt/pinguino/git/pinguino-ide/pinguino/source/main.asm
               _00376_DS_   0x002a52    program     static /dvpt/pinguino/git/pinguino-ide/pinguino/source/main.asm
               _00396_DS_   0x002a62    program     static /dvpt/pinguino/git/pinguino-ide/pinguino/source/main.asm
               _00397_DS_   0x002a98    program     static /dvpt/pinguino/git/pinguino-ide/pinguino/source/main.asm
               _31899_DS_   0x002a98    program     static /dvpt/pinguino/git/pinguino-ide/pinguino/source/main.asm
               _00398_DS_   0x002ab6    program     static /dvpt/pinguino/git/pinguino-ide/pinguino/source/main.asm
               _41900_DS_   0x002ab6    program     static /dvpt/pinguino/git/pinguino-ide/pinguino/source/main.asm
               _00378_DS_   0x002aba    program     static /dvpt/pinguino/git/pinguino-ide/pinguino/source/main.asm
    _eeprom_byte_read_seq   0x002ae4    program     extern /dvpt/pinguino/git/pinguino-ide/pinguino/source/main.asm
               _01849_DS_   0x002b8c    program     static /dvpt/pinguino/git/pinguino-ide/pinguino/source/main.asm
               _01863_DS_   0x002ba4    program     static /dvpt/pinguino/git/pinguino-ide/pinguino/source/main.asm
               _01864_DS_   0x002bfc    program     static /dvpt/pinguino/git/pinguino-ide/pinguino/source/main.asm
               _01845_DS_   0x002c04    program     static /dvpt/pinguino/git/pinguino-ide/pinguino/source/main.asm
               _01850_DS_   0x002c08    program     static /dvpt/pinguino/git/pinguino-ide/pinguino/source/main.asm
               _01847_DS_   0x002c0c    program     static /dvpt/pinguino/git/pinguino-ide/pinguino/source/main.asm
                 _pprints   0x002c94    program     static /dvpt/pinguino/git/pinguino-ide/pinguino/source/main.asm
               _00896_DS_   0x002d20    program     static /dvpt/pinguino/git/pinguino-ide/pinguino/source/main.asm
               _00952_DS_   0x002d3e    program     static /dvpt/pinguino/git/pinguino-ide/pinguino/source/main.asm
               _00882_DS_   0x002d40    program     static /dvpt/pinguino/git/pinguino-ide/pinguino/source/main.asm
               _00884_DS_   0x002d4a    program     static /dvpt/pinguino/git/pinguino-ide/pinguino/source/main.asm
               _00885_DS_   0x002d4e    program     static /dvpt/pinguino/git/pinguino-ide/pinguino/source/main.asm
               _00889_DS_   0x002d56    program     static /dvpt/pinguino/git/pinguino-ide/pinguino/source/main.asm
               _00899_DS_   0x002d60    program     static /dvpt/pinguino/git/pinguino-ide/pinguino/source/main.asm
               _00898_DS_   0x002d6e    program     static /dvpt/pinguino/git/pinguino-ide/pinguino/source/main.asm
               _00921_DS_   0x002d8c    program     static /dvpt/pinguino/git/pinguino-ide/pinguino/source/main.asm
               _00902_DS_   0x002d90    program     static /dvpt/pinguino/git/pinguino-ide/pinguino/source/main.asm
               _00956_DS_   0x002dc6    program     static /dvpt/pinguino/git/pinguino-ide/pinguino/source/main.asm
               _00923_DS_   0x002dc8    program     static /dvpt/pinguino/git/pinguino-ide/pinguino/source/main.asm
               _00905_DS_   0x002dd0    program     static /dvpt/pinguino/git/pinguino-ide/pinguino/source/main.asm
               _00894_DS_   0x002df2    program     static /dvpt/pinguino/git/pinguino-ide/pinguino/source/main.asm
             _digitalread   0x002e38    program     extern /dvpt/pinguino/git/pinguino-ide/pinguino/source/main.asm
               _01602_DS_   0x002ea0    program     static /dvpt/pinguino/git/pinguino-ide/pinguino/source/main.asm
               _01560_DS_   0x002eb4    program     static /dvpt/pinguino/git/pinguino-ide/pinguino/source/main.asm
               _01562_DS_   0x002ee4    program     static /dvpt/pinguino/git/pinguino-ide/pinguino/source/main.asm
               _01564_DS_   0x002ee8    program     static /dvpt/pinguino/git/pinguino-ide/pinguino/source/main.asm
               _01566_DS_   0x002f18    program     static /dvpt/pinguino/git/pinguino-ide/pinguino/source/main.asm
               _01568_DS_   0x002f1c    program     static /dvpt/pinguino/git/pinguino-ide/pinguino/source/main.asm
               _01570_DS_   0x002f4c    program     static /dvpt/pinguino/git/pinguino-ide/pinguino/source/main.asm
               _01572_DS_   0x002f50    program     static /dvpt/pinguino/git/pinguino-ide/pinguino/source/main.asm
               _01574_DS_   0x002f80    program     static /dvpt/pinguino/git/pinguino-ide/pinguino/source/main.asm
               _01576_DS_   0x002f84    program     static /dvpt/pinguino/git/pinguino-ide/pinguino/source/main.asm
               _01578_DS_   0x002fb2    program     static /dvpt/pinguino/git/pinguino-ide/pinguino/source/main.asm
               _01580_DS_   0x002fb6    program     static /dvpt/pinguino/git/pinguino-ide/pinguino/source/main.asm
               _01581_DS_   0x002fb8    program     static /dvpt/pinguino/git/pinguino-ide/pinguino/source/main.asm
            _OutDataStage   0x002fce    program     extern /dvpt/pinguino/git/pinguino-ide/pinguino/source/main.asm
               _00405_DS_   0x003072    program     static /dvpt/pinguino/git/pinguino-ide/pinguino/source/main.asm
               _00418_DS_   0x00307c    program     static /dvpt/pinguino/git/pinguino-ide/pinguino/source/main.asm
               _00419_DS_   0x0030b2    program     static /dvpt/pinguino/git/pinguino-ide/pinguino/source/main.asm
               _11897_DS_   0x0030b2    program     static /dvpt/pinguino/git/pinguino-ide/pinguino/source/main.asm
               _00420_DS_   0x0030d0    program     static /dvpt/pinguino/git/pinguino-ide/pinguino/source/main.asm
               _21898_DS_   0x0030d0    program     static /dvpt/pinguino/git/pinguino-ide/pinguino/source/main.asm
               _00407_DS_   0x0030d6    program     static /dvpt/pinguino/git/pinguino-ide/pinguino/source/main.asm
              _SetFeature   0x003104    program     static /dvpt/pinguino/git/pinguino-ide/pinguino/source/main.asm
               _00269_DS_   0x003134    program     static /dvpt/pinguino/git/pinguino-ide/pinguino/source/main.asm
               _00218_DS_   0x00314a    program     static /dvpt/pinguino/git/pinguino-ide/pinguino/source/main.asm
               _00236_DS_   0x003150    program     static /dvpt/pinguino/git/pinguino-ide/pinguino/source/main.asm
               _00273_DS_   0x003158    program     static /dvpt/pinguino/git/pinguino-ide/pinguino/source/main.asm
               _00223_DS_   0x0031b6    program     static /dvpt/pinguino/git/pinguino-ide/pinguino/source/main.asm
               _00228_DS_   0x0031de    program     static /dvpt/pinguino/git/pinguino-ide/pinguino/source/main.asm
               _00225_DS_   0x003202    program     static /dvpt/pinguino/git/pinguino-ide/pinguino/source/main.asm
               _00238_DS_   0x003220    program     static /dvpt/pinguino/git/pinguino-ide/pinguino/source/main.asm
       _eeprom_page_write   0x00323a    program     extern /dvpt/pinguino/git/pinguino-ide/pinguino/source/main.asm
               _01822_DS_   0x0032e6    program     static /dvpt/pinguino/git/pinguino-ide/pinguino/source/main.asm
               __modulong   0x00336e    program     extern modulong.asm
               _00107_DS_   0x0033d6    program     static modulong.asm
               _00136_DS_   0x003402    program     static modulong.asm
               _00106_DS_   0x003410    program     static modulong.asm
               _00112_DS_   0x003418    program     static modulong.asm
               _00137_DS_   0x00342e    program     static modulong.asm
               _00111_DS_   0x003440    program     static modulong.asm
                 _CDCgets   0x003494    program     extern /dvpt/pinguino/git/pinguino-ide/pinguino/source/main.asm
               _00746_DS_   0x0034e4    program     static /dvpt/pinguino/git/pinguino-ide/pinguino/source/main.asm
               _00748_DS_   0x0034ee    program     static /dvpt/pinguino/git/pinguino-ide/pinguino/source/main.asm
               _00755_DS_   0x003500    program     static /dvpt/pinguino/git/pinguino-ide/pinguino/source/main.asm
               _00765_DS_   0x003548    program     static /dvpt/pinguino/git/pinguino-ide/pinguino/source/main.asm
               _00753_DS_   0x003582    program     static /dvpt/pinguino/git/pinguino-ide/pinguino/source/main.asm
               _00757_DS_   0x003584    program     static /dvpt/pinguino/git/pinguino-ide/pinguino/source/main.asm
                 _CDCputs   0x0035b2    program     extern /dvpt/pinguino/git/pinguino-ide/pinguino/source/main.asm
               _00787_DS_   0x003608    program     static /dvpt/pinguino/git/pinguino-ide/pinguino/source/main.asm
               _00789_DS_   0x003612    program     static /dvpt/pinguino/git/pinguino-ide/pinguino/source/main.asm
               _00805_DS_   0x003622    program     static /dvpt/pinguino/git/pinguino-ide/pinguino/source/main.asm
               _00796_DS_   0x003624    program     static /dvpt/pinguino/git/pinguino-ide/pinguino/source/main.asm
               _00806_DS_   0x003664    program     static /dvpt/pinguino/git/pinguino-ide/pinguino/source/main.asm
               _00794_DS_   0x00369e    program     static /dvpt/pinguino/git/pinguino-ide/pinguino/source/main.asm
               _00798_DS_   0x0036a0    program     static /dvpt/pinguino/git/pinguino-ide/pinguino/source/main.asm
               __divulong   0x0036ce    program     extern divulong.asm
               _00109_DS_   0x00374a    program     static divulong.asm
               _00128_DS_   0x003782    program     static divulong.asm
               _00110_DS_   0x003796    program     static divulong.asm
               _GetStatus   0x0037e6    program     static /dvpt/pinguino/git/pinguino-ide/pinguino/source/main.asm
               _00160_DS_   0x003824    program     static /dvpt/pinguino/git/pinguino-ide/pinguino/source/main.asm
               _00173_DS_   0x003836    program     static /dvpt/pinguino/git/pinguino-ide/pinguino/source/main.asm
               _00170_DS_   0x003844    program     static /dvpt/pinguino/git/pinguino-ide/pinguino/source/main.asm
               _00209_DS_   0x00384c    program     static /dvpt/pinguino/git/pinguino-ide/pinguino/source/main.asm
               _00164_DS_   0x00389e    program     static /dvpt/pinguino/git/pinguino-ide/pinguino/source/main.asm
               _00174_DS_   0x0038c4    program     static /dvpt/pinguino/git/pinguino-ide/pinguino/source/main.asm
               _00177_DS_   0x0038e0    program     static /dvpt/pinguino/git/pinguino-ide/pinguino/source/main.asm
           _GetDescriptor   0x0038fa    program     static /dvpt/pinguino/git/pinguino-ide/pinguino/source/main.asm
               _00146_DS_   0x003914    program     static /dvpt/pinguino/git/pinguino-ide/pinguino/source/main.asm
               _00124_DS_   0x003940    program     static /dvpt/pinguino/git/pinguino-ide/pinguino/source/main.asm
               _00121_DS_   0x003974    program     static /dvpt/pinguino/git/pinguino-ide/pinguino/source/main.asm
               _00118_DS_   0x0039de    program     static /dvpt/pinguino/git/pinguino-ide/pinguino/source/main.asm
               _00128_DS_   0x0039ea    program     static /dvpt/pinguino/git/pinguino-ide/pinguino/source/main.asm
                 _pprintc   0x0039fc    program     static /dvpt/pinguino/git/pinguino-ide/pinguino/source/main.asm
               _00876_DS_   0x003a8a    program     static /dvpt/pinguino/git/pinguino-ide/pinguino/source/main.asm
               _00869_DS_   0x003aa6    program     static /dvpt/pinguino/git/pinguino-ide/pinguino/source/main.asm
               _00877_DS_   0x003ad0    program     static /dvpt/pinguino/git/pinguino-ide/pinguino/source/main.asm
               _00871_DS_   0x003ad2    program     static /dvpt/pinguino/git/pinguino-ide/pinguino/source/main.asm
  _ProcessStandardRequest   0x003af4    program     extern /dvpt/pinguino/git/pinguino-ide/pinguino/source/main.asm
               _00315_DS_   0x003b1e    program     static /dvpt/pinguino/git/pinguino-ide/pinguino/source/main.asm
               _00312_DS_   0x003b2a    program     static /dvpt/pinguino/git/pinguino-ide/pinguino/source/main.asm
               _00287_DS_   0x003b48    program     static /dvpt/pinguino/git/pinguino-ide/pinguino/source/main.asm
               _00309_DS_   0x003b54    program     static /dvpt/pinguino/git/pinguino-ide/pinguino/source/main.asm
               _00306_DS_   0x003b78    program     static /dvpt/pinguino/git/pinguino-ide/pinguino/source/main.asm
               _00303_DS_   0x003b82    program     static /dvpt/pinguino/git/pinguino-ide/pinguino/source/main.asm
               _00298_DS_   0x003b8e    program     static /dvpt/pinguino/git/pinguino-ide/pinguino/source/main.asm
               _00299_DS_   0x003b94    program     static /dvpt/pinguino/git/pinguino-ide/pinguino/source/main.asm
               _00296_DS_   0x003bbc    program     static /dvpt/pinguino/git/pinguino-ide/pinguino/source/main.asm
               _00317_DS_   0x003bc8    program     static /dvpt/pinguino/git/pinguino-ide/pinguino/source/main.asm
              _SetupStage   0x003bce    program     extern /dvpt/pinguino/git/pinguino-ide/pinguino/source/main.asm
               _00426_DS_   0x003c0c    program     static /dvpt/pinguino/git/pinguino-ide/pinguino/source/main.asm
               _00433_DS_   0x003c28    program     static /dvpt/pinguino/git/pinguino-ide/pinguino/source/main.asm
               _00456_DS_   0x003c40    program     static /dvpt/pinguino/git/pinguino-ide/pinguino/source/main.asm
               _00428_DS_   0x003c4a    program     static /dvpt/pinguino/git/pinguino-ide/pinguino/source/main.asm
               _00430_DS_   0x003c7a    program     static /dvpt/pinguino/git/pinguino-ide/pinguino/source/main.asm
               _00434_DS_   0x003c98    program     static /dvpt/pinguino/git/pinguino-ide/pinguino/source/main.asm
              _CDCprintln   0x003ca0    program     extern /dvpt/pinguino/git/pinguino-ide/pinguino/source/main.asm
                __startup   0x003d68    program     extern /dvpt/pinguino/git/pinguino-ide/pinguino/source/main.asm
               clear_loop   0x003d80    program     static /dvpt/pinguino/git/pinguino-ide/pinguino/source/main.asm
               entry_loop   0x003da0    program     static /dvpt/pinguino/git/pinguino-ide/pinguino/source/main.asm
                copy_loop   0x003dee    program     static /dvpt/pinguino/git/pinguino-ide/pinguino/source/main.asm
            copy_loop_dec   0x003df4    program     static /dvpt/pinguino/git/pinguino-ide/pinguino/source/main.asm
           entry_loop_dec   0x003e08    program     static /dvpt/pinguino/git/pinguino-ide/pinguino/source/main.asm
                   lockup   0x003e14    program     static /dvpt/pinguino/git/pinguino-ide/pinguino/source/main.asm
       _ProcessCDCRequest   0x003e16    program     extern /dvpt/pinguino/git/pinguino-ide/pinguino/source/main.asm
               _00693_DS_   0x003e26    program     static /dvpt/pinguino/git/pinguino-ide/pinguino/source/main.asm
               _00730_DS_   0x003e30    program     static /dvpt/pinguino/git/pinguino-ide/pinguino/source/main.asm
               _00732_DS_   0x003e38    program     static /dvpt/pinguino/git/pinguino-ide/pinguino/source/main.asm
               _00696_DS_   0x003e4c    program     static /dvpt/pinguino/git/pinguino-ide/pinguino/source/main.asm
               _00697_DS_   0x003e6a    program     static /dvpt/pinguino/git/pinguino-ide/pinguino/source/main.asm
               _00698_DS_   0x003e88    program     static /dvpt/pinguino/git/pinguino-ide/pinguino/source/main.asm
               _00700_DS_   0x003e98    program     static /dvpt/pinguino/git/pinguino-ide/pinguino/source/main.asm
               _00701_DS_   0x003e9c    program     static /dvpt/pinguino/git/pinguino-ide/pinguino/source/main.asm
               _00703_DS_   0x003eb8    program     static /dvpt/pinguino/git/pinguino-ide/pinguino/source/main.asm
                _I2C_init   0x003ebe    program     extern /dvpt/pinguino/git/pinguino-ide/pinguino/source/main.asm
               _01705_DS_   0x003efc    program     static /dvpt/pinguino/git/pinguino-ide/pinguino/source/main.asm
               _01671_DS_   0x003f04    program     static /dvpt/pinguino/git/pinguino-ide/pinguino/source/main.asm
               _01672_DS_   0x003f08    program     static /dvpt/pinguino/git/pinguino-ide/pinguino/source/main.asm
               _01674_DS_   0x003f0e    program     static /dvpt/pinguino/git/pinguino-ide/pinguino/source/main.asm
               _01707_DS_   0x003f1c    program     static /dvpt/pinguino/git/pinguino-ide/pinguino/source/main.asm
               _01709_DS_   0x003f28    program     static /dvpt/pinguino/git/pinguino-ide/pinguino/source/main.asm
               _01710_DS_   0x003f34    program     static /dvpt/pinguino/git/pinguino-ide/pinguino/source/main.asm
               _01711_DS_   0x003f36    program     static /dvpt/pinguino/git/pinguino-ide/pinguino/source/main.asm
               _01676_DS_   0x003f3e    program     static /dvpt/pinguino/git/pinguino-ide/pinguino/source/main.asm
               _01678_DS_   0x003f46    program     static /dvpt/pinguino/git/pinguino-ide/pinguino/source/main.asm
               _01680_DS_   0x003f4c    program     static /dvpt/pinguino/git/pinguino-ide/pinguino/source/main.asm
  _ProcessControlTransfer   0x003f64    program     extern /dvpt/pinguino/git/pinguino-ide/pinguino/source/main.asm
               _00473_DS_   0x003f84    program     static /dvpt/pinguino/git/pinguino-ide/pinguino/source/main.asm
               _00467_DS_   0x003fa2    program     static /dvpt/pinguino/git/pinguino-ide/pinguino/source/main.asm
               _00470_DS_   0x003faa    program     static /dvpt/pinguino/git/pinguino-ide/pinguino/source/main.asm
               _00489_DS_   0x003fb0    program     static /dvpt/pinguino/git/pinguino-ide/pinguino/source/main.asm
               _00529_DS_   0x003fbc    program     static /dvpt/pinguino/git/pinguino-ide/pinguino/source/main.asm
               _00478_DS_   0x003fda    program     static /dvpt/pinguino/git/pinguino-ide/pinguino/source/main.asm
               _00481_DS_   0x003ff8    program     static /dvpt/pinguino/git/pinguino-ide/pinguino/source/main.asm
               _00484_DS_   0x004000    program     static /dvpt/pinguino/git/pinguino-ide/pinguino/source/main.asm
               _00491_DS_   0x004004    program     static /dvpt/pinguino/git/pinguino-ide/pinguino/source/main.asm
               _psprintf2   0x00400a    program     extern /dvpt/pinguino/git/pinguino-ide/pinguino/source/main.asm
                 _pprintf   0x0040ae    program     extern /dvpt/pinguino/git/pinguino-ide/pinguino/source/main.asm
       _eeprom_byte_write   0x00414e    program     extern /dvpt/pinguino/git/pinguino-ide/pinguino/source/main.asm
                _psprintf   0x0041e0    program     extern /dvpt/pinguino/git/pinguino-ide/pinguino/source/main.asm
            _CDCgetstring   0x004272    program     extern /dvpt/pinguino/git/pinguino-ide/pinguino/source/main.asm
               _01488_DS_   0x004284    program     static /dvpt/pinguino/git/pinguino-ide/pinguino/source/main.asm
               _CDCprintf   0x004300    program     extern /dvpt/pinguino/git/pinguino-ide/pinguino/source/main.asm
                _CDC_init   0x00438c    program     extern /dvpt/pinguino/git/pinguino-ide/pinguino/source/main.asm
               _01404_DS_   0x0043f8    program     static /dvpt/pinguino/git/pinguino-ide/pinguino/source/main.asm
               _01406_DS_   0x00440a    program     static /dvpt/pinguino/git/pinguino-ide/pinguino/source/main.asm
                   _setup   0x004416    program     extern /dvpt/pinguino/git/pinguino-ide/pinguino/source/main.asm
                    _loop   0x00449a    program     extern /dvpt/pinguino/git/pinguino-ide/pinguino/source/main.asm
  _ProcessUSBTransactions   0x00451c    program     extern /dvpt/pinguino/git/pinguino-ide/pinguino/source/main.asm
               _00608_DS_   0x004534    program     static /dvpt/pinguino/git/pinguino-ide/pinguino/source/main.asm
               _00613_DS_   0x00454c    program     static /dvpt/pinguino/git/pinguino-ide/pinguino/source/main.asm
               _00616_DS_   0x004558    program     static /dvpt/pinguino/git/pinguino-ide/pinguino/source/main.asm
               _00619_DS_   0x004564    program     static /dvpt/pinguino/git/pinguino-ide/pinguino/source/main.asm
               _00622_DS_   0x004570    program     static /dvpt/pinguino/git/pinguino-ide/pinguino/source/main.asm
               _00625_DS_   0x00457a    program     static /dvpt/pinguino/git/pinguino-ide/pinguino/source/main.asm
               _00632_DS_   0x004592    program     static /dvpt/pinguino/git/pinguino-ide/pinguino/source/main.asm
       _high_priority_isr   0x004598    program     extern /dvpt/pinguino/git/pinguino-ide/pinguino/source/main.asm
        _eeprom_byte_read   0x00460e    program     extern /dvpt/pinguino/git/pinguino-ide/pinguino/source/main.asm
        _low_priority_isr   0x004684    program     extern /dvpt/pinguino/git/pinguino-ide/pinguino/source/main.asm
               _I2C_write   0x0046f6    program     extern /dvpt/pinguino/git/pinguino-ide/pinguino/source/main.asm
               _01716_DS_   0x004710    program     static /dvpt/pinguino/git/pinguino-ide/pinguino/source/main.asm
               _01719_DS_   0x004728    program     static /dvpt/pinguino/git/pinguino-ide/pinguino/source/main.asm
         _CDCInitEndpoint   0x004762    program     extern /dvpt/pinguino/git/pinguino-ide/pinguino/source/main.asm
                 _Delayms   0x0047c6    program     extern /dvpt/pinguino/git/pinguino-ide/pinguino/source/main.asm
               _00834_DS_   0x0047ee    program     static /dvpt/pinguino/git/pinguino-ide/pinguino/source/main.asm
               _00845_DS_   0x0047f8    program     static /dvpt/pinguino/git/pinguino-ide/pinguino/source/main.asm
               _00836_DS_   0x004806    program     static /dvpt/pinguino/git/pinguino-ide/pinguino/source/main.asm
                 _Delayus   0x00481c    program     extern /dvpt/pinguino/git/pinguino-ide/pinguino/source/main.asm
               _00852_DS_   0x004844    program     static /dvpt/pinguino/git/pinguino-ide/pinguino/source/main.asm
               _00863_DS_   0x00484e    program     static /dvpt/pinguino/git/pinguino-ide/pinguino/source/main.asm
               _00854_DS_   0x004856    program     static /dvpt/pinguino/git/pinguino-ide/pinguino/source/main.asm
                _BusReset   0x00486c    program     extern /dvpt/pinguino/git/pinguino-ide/pinguino/source/main.asm
               _00588_DS_   0x00488a    program     static /dvpt/pinguino/git/pinguino-ide/pinguino/source/main.asm
               _00590_DS_   0x00489a    program     static /dvpt/pinguino/git/pinguino-ide/pinguino/source/main.asm
                    _main   0x0048b8    program     extern /dvpt/pinguino/git/pinguino-ide/pinguino/source/main.asm
               _01880_DS_   0x0048c0    program     static /dvpt/pinguino/git/pinguino-ide/pinguino/source/main.asm
               _01881_DS_   0x0048ca    program     static /dvpt/pinguino/git/pinguino-ide/pinguino/source/main.asm
               _01885_DS_   0x0048f6    program     static /dvpt/pinguino/git/pinguino-ide/pinguino/source/main.asm
                  _toggle   0x0048fe    program     extern /dvpt/pinguino/git/pinguino-ide/pinguino/source/main.asm
               __gptrget4   0x004940    program     extern gptrget4.asm
                 _lab_01_   0x004958    program     static gptrget4.asm
               _I2C_slave   0x004980    program     extern /dvpt/pinguino/git/pinguino-ide/pinguino/source/main.asm
              _I2C_master   0x0049be    program     extern /dvpt/pinguino/git/pinguino-ide/pinguino/source/main.asm
               __gptrget3   0x0049fc    program     extern gptrget3.asm
                 _lab_01_   0x004a10    program     static gptrget3.asm
                _I2C_read   0x004a32    program     extern /dvpt/pinguino/git/pinguino-ide/pinguino/source/main.asm
               _01727_DS_   0x004a3a    program     static /dvpt/pinguino/git/pinguino-ide/pinguino/source/main.asm
               _01730_DS_   0x004a52    program     static /dvpt/pinguino/git/pinguino-ide/pinguino/source/main.asm
         _EnableUSBModule   0x004a66    program     extern /dvpt/pinguino/git/pinguino-ide/pinguino/source/main.asm
               _00539_DS_   0x004a78    program     static /dvpt/pinguino/git/pinguino-ide/pinguino/source/main.asm
               _00543_DS_   0x004a96    program     static /dvpt/pinguino/git/pinguino-ide/pinguino/source/main.asm
            _I2C_sendNack   0x004a98    program     extern /dvpt/pinguino/git/pinguino-ide/pinguino/source/main.asm
               _01790_DS_   0x004aa0    program     static /dvpt/pinguino/git/pinguino-ide/pinguino/source/main.asm
               _01793_DS_   0x004aba    program     static /dvpt/pinguino/git/pinguino-ide/pinguino/source/main.asm
             _I2C_sendAck   0x004ac8    program     extern /dvpt/pinguino/git/pinguino-ide/pinguino/source/main.asm
               _01779_DS_   0x004ad0    program     static /dvpt/pinguino/git/pinguino-ide/pinguino/source/main.asm
               _01782_DS_   0x004aea    program     static /dvpt/pinguino/git/pinguino-ide/pinguino/source/main.asm
                _IO_remap   0x004af8    program     extern /dvpt/pinguino/git/pinguino-ide/pinguino/source/main.asm
             _I2C_restart   0x004b24    program     extern /dvpt/pinguino/git/pinguino-ide/pinguino/source/main.asm
               _01768_DS_   0x004b2c    program     static /dvpt/pinguino/git/pinguino-ide/pinguino/source/main.asm
               _01771_DS_   0x004b42    program     static /dvpt/pinguino/git/pinguino-ide/pinguino/source/main.asm
                _I2C_stop   0x004b50    program     extern /dvpt/pinguino/git/pinguino-ide/pinguino/source/main.asm
               _01757_DS_   0x004b58    program     static /dvpt/pinguino/git/pinguino-ide/pinguino/source/main.asm
               _01760_DS_   0x004b6e    program     static /dvpt/pinguino/git/pinguino-ide/pinguino/source/main.asm
               _I2C_start   0x004b7c    program     extern /dvpt/pinguino/git/pinguino-ide/pinguino/source/main.asm
               _01746_DS_   0x004b84    program     static /dvpt/pinguino/git/pinguino-ide/pinguino/source/main.asm
               _01749_DS_   0x004b9a    program     static /dvpt/pinguino/git/pinguino-ide/pinguino/source/main.asm
                _CDCwrite   0x004ba8    program     extern /dvpt/pinguino/git/pinguino-ide/pinguino/source/main.asm
               __gptrget2   0x004bd4    program     extern gptrget2.asm
                 _lab_01_   0x004be4    program     static gptrget2.asm
                 _IO_init   0x004c00    program     extern /dvpt/pinguino/git/pinguino-ide/pinguino/source/main.asm
               _CDCgetkey   0x004c28    program     extern /dvpt/pinguino/git/pinguino-ide/pinguino/source/main.asm
               _01480_DS_   0x004c2c    program     static /dvpt/pinguino/git/pinguino-ide/pinguino/source/main.asm
                 _Suspend   0x004c50    program     extern /dvpt/pinguino/git/pinguino-ide/pinguino/source/main.asm
                   _Stall   0x004c74    program     extern /dvpt/pinguino/git/pinguino-ide/pinguino/source/main.asm
               _00571_DS_   0x004c8e    program     static /dvpt/pinguino/git/pinguino-ide/pinguino/source/main.asm
               __gptrget1   0x004c96    program     extern gptrget1.asm
                 _lab_01_   0x004ca2    program     static gptrget1.asm
               __gptrput3   0x004cb8    program     extern gptrput3.asm
                 _lab_01_   0x004cce    program     static gptrput3.asm
       _WaitForSetupStage   0x004cd6    program     extern /dvpt/pinguino/git/pinguino-ide/pinguino/source/main.asm
               __gptrput1   0x004cf0    program     extern gptrput1.asm
                 _lab_01_   0x004cfe    program     static gptrput1.asm
           _CDC_interrupt   0x004d06    program     extern /dvpt/pinguino/git/pinguino-ide/pinguino/source/main.asm
               _01508_DS_   0x004d16    program     static /dvpt/pinguino/git/pinguino-ide/pinguino/source/main.asm
                   _cinit   0x004d18    program     extern 
               _UnSuspend   0x004d26    program     extern /dvpt/pinguino/git/pinguino-ide/pinguino/source/main.asm
               _01738_DS_   0x004d30    program     static /dvpt/pinguino/git/pinguino-ide/pinguino/source/main.asm
                _I2C_wait   0x004d30    program     extern /dvpt/pinguino/git/pinguino-ide/pinguino/source/main.asm
       ___eeprom_gptrget1   0x004d3e    program     extern /dvpt/sdcc/sources/sdcc/device/non-free/lib/pic16/libdev/gptr/dispatch.S
       ___eeprom_gptrget2   0x004d3e    program     extern /dvpt/sdcc/sources/sdcc/device/non-free/lib/pic16/libdev/gptr/dispatch.S
       ___eeprom_gptrget3   0x004d3e    program     extern /dvpt/sdcc/sources/sdcc/device/non-free/lib/pic16/libdev/gptr/dispatch.S
       ___eeprom_gptrget4   0x004d3e    program     extern /dvpt/sdcc/sources/sdcc/device/non-free/lib/pic16/libdev/gptr/dispatch.S
       ___eeprom_gptrput1   0x004d3e    program     extern /dvpt/sdcc/sources/sdcc/device/non-free/lib/pic16/libdev/gptr/dispatch.S
       ___eeprom_gptrput2   0x004d3e    program     extern /dvpt/sdcc/sources/sdcc/device/non-free/lib/pic16/libdev/gptr/dispatch.S
       ___eeprom_gptrput3   0x004d3e    program     extern /dvpt/sdcc/sources/sdcc/device/non-free/lib/pic16/libdev/gptr/dispatch.S
       ___eeprom_gptrput4   0x004d3e    program     extern /dvpt/sdcc/sources/sdcc/device/non-free/lib/pic16/libdev/gptr/dispatch.S


