gplink-1.2.0 #983 (Jul 12 2013)
Copyright (c) 1998-2013 gputils project
Listing File Generated: 12-7-2013  16:01:14
 
 
Address  Value    Disassembly              Source
-------  -----    -----------              ------
                                           ;--------------------------------------------------------
                                           ; File Created by SDCC : free open source ANSI-C Compiler
                                           ; Version 3.2.1 #8447 (Jul 12 2013) (Linux)
                                           ; This file was generated Sat Dec  7 16:01:14 2013
                                           ;--------------------------------------------------------
                                           ; PIC16 port for the Microchip 16-bit core micros
                                           ;--------------------------------------------------------
                                           	list	p=18f4550
                                           	radix	dec
                                           
                                           
                                           ;--------------------------------------------------------
                                           ; public variables in this module
                                           ;--------------------------------------------------------
                                           	global	___i__
                                           	global	_Delayms
                                           	global	_Delayus
                                           	global	_digitalwrite
                                           	global	_digitalread
                                           	global	_pinmode
                                           	global	_toggle
                                           	global	_IO_init
                                           	global	_IO_digital
                                           	global	_setup
                                           	global	_loop
                                           	global	_epap_in
                                           	global	_epap_out
                                           	global	_epapin_init
                                           	global	_epapout_init
                                           	global	_pinguino_main
                                           	global	_mask
                                           	global	_port
                                           
                                           ;--------------------------------------------------------
                                           ; extern variables in this module
                                           ;--------------------------------------------------------
                                           	extern	_SPPCFGbits
                                           	extern	_SPPEPSbits
                                           	extern	_SPPCONbits
                                           	extern	_UFRMLbits
                                           	extern	_UFRMHbits
                                           	extern	_UIRbits
                                           	extern	_UIEbits
                                           	extern	_UEIRbits
                                           	extern	_UEIEbits
                                           	extern	_USTATbits
                                           	extern	_UCONbits
                                           	extern	_UADDRbits
                                           	extern	_UCFGbits
                                           	extern	_UEP0bits
                                           	extern	_UEP1bits
                                           	extern	_UEP2bits
                                           	extern	_UEP3bits
                                           	extern	_UEP4bits
                                           	extern	_UEP5bits
                                           	extern	_UEP6bits
                                           	extern	_UEP7bits
                                           	extern	_UEP8bits
                                           	extern	_UEP9bits
                                           	extern	_UEP10bits
                                           	extern	_UEP11bits
                                           	extern	_UEP12bits
                                           	extern	_UEP13bits
                                           	extern	_UEP14bits
                                           	extern	_UEP15bits
                                           	extern	_PORTAbits
                                           	extern	_PORTBbits
                                           	extern	_PORTCbits
                                           	extern	_PORTDbits
                                           	extern	_PORTEbits
                                           	extern	_LATAbits
                                           	extern	_LATBbits
                                           	extern	_LATCbits
                                           	extern	_LATDbits
                                           	extern	_LATEbits
                                           	extern	_DDRAbits
                                           	extern	_TRISAbits
                                           	extern	_DDRBbits
                                           	extern	_TRISBbits
                                           	extern	_DDRCbits
                                           	extern	_TRISCbits
                                           	extern	_DDRDbits
                                           	extern	_TRISDbits
                                           	extern	_DDREbits
                                           	extern	_TRISEbits
                                           	extern	_OSCTUNEbits
                                           	extern	_PIE1bits
                                           	extern	_PIR1bits
                                           	extern	_IPR1bits
                                           	extern	_PIE2bits
                                           	extern	_PIR2bits
                                           	extern	_IPR2bits
                                           	extern	_EECON1bits
                                           	extern	_RCSTAbits
                                           	extern	_TXSTAbits
                                           	extern	_T3CONbits
                                           	extern	_CMCONbits
                                           	extern	_CVRCONbits
                                           	extern	_CCP1ASbits
                                           	extern	_ECCP1ASbits
                                           	extern	_CCP1DELbits
                                           	extern	_ECCP1DELbits
                                           	extern	_BAUDCONbits
                                           	extern	_BAUDCTLbits
                                           	extern	_CCP2CONbits
                                           	extern	_CCP1CONbits
                                           	extern	_ECCP1CONbits
                                           	extern	_ADCON2bits
                                           	extern	_ADCON1bits
                                           	extern	_ADCON0bits
                                           	extern	_SSPCON2bits
                                           	extern	_SSPCON1bits
                                           	extern	_SSPSTATbits
                                           	extern	_T2CONbits
                                           	extern	_T1CONbits
                                           	extern	_RCONbits
                                           	extern	_WDTCONbits
                                           	extern	_HLVDCONbits
                                           	extern	_LVDCONbits
                                           	extern	_OSCCONbits
                                           	extern	_T0CONbits
                                           	extern	_STATUSbits
                                           	extern	_INTCON3bits
                                           	extern	_INTCON2bits
                                           	extern	_INTCONbits
                                           	extern	_STKPTRbits
                                           	extern	_SPPDATA
                                           	extern	_SPPCFG
                                           	extern	_SPPEPS
                                           	extern	_SPPCON
                                           	extern	_UFRM
                                           	extern	_UFRML
                                           	extern	_UFRMH
                                           	extern	_UIR
                                           	extern	_UIE
                                           	extern	_UEIR
                                           	extern	_UEIE
                                           	extern	_USTAT
                                           	extern	_UCON
                                           	extern	_UADDR
                                           	extern	_UCFG
                                           	extern	_UEP0
                                           	extern	_UEP1
                                           	extern	_UEP2
                                           	extern	_UEP3
                                           	extern	_UEP4
                                           	extern	_UEP5
                                           	extern	_UEP6
                                           	extern	_UEP7
                                           	extern	_UEP8
                                           	extern	_UEP9
                                           	extern	_UEP10
                                           	extern	_UEP11
                                           	extern	_UEP12
                                           	extern	_UEP13
                                           	extern	_UEP14
                                           	extern	_UEP15
                                           	extern	_PORTA
                                           	extern	_PORTB
                                           	extern	_PORTC
                                           	extern	_PORTD
                                           	extern	_PORTE
                                           	extern	_LATA
                                           	extern	_LATB
                                           	extern	_LATC
                                           	extern	_LATD
                                           	extern	_LATE
                                           	extern	_DDRA
                                           	extern	_TRISA
                                           	extern	_DDRB
                                           	extern	_TRISB
                                           	extern	_DDRC
                                           	extern	_TRISC
                                           	extern	_DDRD
                                           	extern	_TRISD
                                           	extern	_DDRE
                                           	extern	_TRISE
                                           	extern	_OSCTUNE
                                           	extern	_PIE1
                                           	extern	_PIR1
                                           	extern	_IPR1
                                           	extern	_PIE2
                                           	extern	_PIR2
                                           	extern	_IPR2
                                           	extern	_EECON1
                                           	extern	_EECON2
                                           	extern	_EEDATA
                                           	extern	_EEADR
                                           	extern	_RCSTA
                                           	extern	_TXSTA
                                           	extern	_TXREG
                                           	extern	_RCREG
                                           	extern	_SPBRG
                                           	extern	_SPBRGH
                                           	extern	_T3CON
                                           	extern	_TMR3
                                           	extern	_TMR3L
                                           	extern	_TMR3H
                                           	extern	_CMCON
                                           	extern	_CVRCON
                                           	extern	_CCP1AS
                                           	extern	_ECCP1AS
                                           	extern	_CCP1DEL
                                           	extern	_ECCP1DEL
                                           	extern	_BAUDCON
                                           	extern	_BAUDCTL
                                           	extern	_CCP2CON
                                           	extern	_CCPR2
                                           	extern	_CCPR2L
                                           	extern	_CCPR2H
                                           	extern	_CCP1CON
                                           	extern	_ECCP1CON
                                           	extern	_CCPR1
                                           	extern	_CCPR1L
                                           	extern	_CCPR1H
                                           	extern	_ADCON2
                                           	extern	_ADCON1
                                           	extern	_ADCON0
                                           	extern	_ADRES
                                           	extern	_ADRESL
                                           	extern	_ADRESH
                                           	extern	_SSPCON2
                                           	extern	_SSPCON1
                                           	extern	_SSPSTAT
                                           	extern	_SSPADD
                                           	extern	_SSPBUF
                                           	extern	_T2CON
                                           	extern	_PR2
                                           	extern	_TMR2
                                           	extern	_T1CON
                                           	extern	_TMR1
                                           	extern	_TMR1L
                                           	extern	_TMR1H
                                           	extern	_RCON
                                           	extern	_WDTCON
                                           	extern	_HLVDCON
                                           	extern	_LVDCON
                                           	extern	_OSCCON
                                           	extern	_T0CON
                                           	extern	_TMR0
                                           	extern	_TMR0L
                                           	extern	_TMR0H
                                           	extern	_STATUS
                                           	extern	_FSR2L
                                           	extern	_FSR2H
                                           	extern	_PLUSW2
                                           	extern	_PREINC2
                                           	extern	_POSTDEC2
                                           	extern	_POSTINC2
                                           	extern	_INDF2
                                           	extern	_BSR
                                           	extern	_FSR1L
                                           	extern	_FSR1H
                                           	extern	_PLUSW1
                                           	extern	_PREINC1
                                           	extern	_POSTDEC1
                                           	extern	_POSTINC1
                                           	extern	_INDF1
                                           	extern	_WREG
                                           	extern	_FSR0L
                                           	extern	_FSR0H
                                           	extern	_PLUSW0
                                           	extern	_PREINC0
                                           	extern	_POSTDEC0
                                           	extern	_POSTINC0
                                           	extern	_INDF0
                                           	extern	_INTCON3
                                           	extern	_INTCON2
                                           	extern	_INTCON
                                           	extern	_PROD
                                           	extern	_PRODL
                                           	extern	_PRODH
                                           	extern	_TABLAT
                                           	extern	_TBLPTR
                                           	extern	_TBLPTRL
                                           	extern	_TBLPTRH
                                           	extern	_TBLPTRU
                                           	extern	_PC
                                           	extern	_PCL
                                           	extern	_PCLATH
                                           	extern	_PCLATU
                                           	extern	_STKPTR
                                           	extern	_TOS
                                           	extern	_TOSL
                                           	extern	_TOSH
                                           	extern	_TOSU
                                           	extern	_delay1ktcy
                                           
                                           ;--------------------------------------------------------
                                           ;	Equates to used internal registers
                                           ;--------------------------------------------------------
                                           STATUS	equ	0xfd8
                                           PCL	equ	0xff9
                                           PCLATH	equ	0xffa
                                           PCLATU	equ	0xffb
                                           WREG	equ	0xfe8
                                           TBLPTRL	equ	0xff6
                                           TBLPTRH	equ	0xff7
                                           TBLPTRU	equ	0xff8
                                           TABLAT	equ	0xff5
                                           FSR1L	equ	0xfe1
                                           FSR2L	equ	0xfd9
                                           POSTINC1	equ	0xfe6
                                           POSTDEC1	equ	0xfe5
                                           PREINC1	equ	0xfe4
                                           PLUSW2	equ	0xfdb
                                           
                                           
                                           	idata
                                           ___i__	db	0x00, 0x00
                                           
                                           
                                           ; Internal registers
                                           .registers	udata_ovr	0x0000
                                           r0x00	res	1
                                           r0x01	res	1
                                           r0x02	res	1
                                           r0x03	res	1
                                           r0x04	res	1
                                           
                                           ;--------------------------------------------------------
                                           ; global & static initialisations
                                           ;--------------------------------------------------------
                                           ; I code from now on!
                                           ; ; Starting pCode block
                                           S_main__pinguino_main	code
                                           _pinguino_main:
                                           ;	.line	111; /home/yeison/Documentos/python/dev/developing/Pinguino11/pinguino/source/main.c	if (RCONbits.NOT_POR == 0)
002b80   b2d0     btfsc   0xd0, 0x1, 0     	BTFSC	_RCONbits, 1
002b82   d002     bra     0x2b88           	BRA	_00328_DS_
                                           ;	.line	113; /home/yeison/Documentos/python/dev/developing/Pinguino11/pinguino/source/main.c	RCON |= 0b10010011;     // set all reset flag
002b84   0e93     movlw   0x93             	MOVLW	0x93
002b86   12d0     iorwf   0xd0, 0x1, 0     	IORWF	_RCON, F
                                           _00328_DS_:
                                           ;	.line	136; /home/yeison/Documentos/python/dev/developing/Pinguino11/pinguino/source/main.c	if (OSCCONbits.SCS > 0x02)
002b88   50d3     movf    0xd3, 0, 0       	MOVF	_OSCCONbits, W
002b8a   0b03     andlw   0x3              	ANDLW	0x03
                                           ; #	MOVWF	r0x00
                                           ; #	MOVF	r0x00, W
002b8c   0f80     addlw   0x80             	ADDLW	0x80
002b8e   0f7d     addlw   0x7d             	ADDLW	0x7d
002b90   e302     bnc     0x2b96           	BNC	_00333_DS_
                                           _00329_DS_:
                                           ;	.line	138; /home/yeison/Documentos/python/dev/developing/Pinguino11/pinguino/source/main.c	while (!OSCCONbits.IOFS);
002b92   a4d3     btfss   0xd3, 0x2, 0     	BTFSS	_OSCCONbits, 2
002b94   d7fe     bra     0x2b92           	BRA	_00329_DS_
                                           _00333_DS_:
                                           ;	.line	157; /home/yeison/Documentos/python/dev/developing/Pinguino11/pinguino/source/main.c	INTCONbits.GIEH     = 0;        // Disables all HP interrupts
002b96   9ef2     bcf     0xf2, 0x7, 0     	BCF	_INTCONbits, 7
                                           ;	.line	158; /home/yeison/Documentos/python/dev/developing/Pinguino11/pinguino/source/main.c	INTCONbits.GIEL     = 0;        // Disables all LP interrupts
002b98   9cf2     bcf     0xf2, 0x6, 0     	BCF	_INTCONbits, 6
                                           ;	.line	203; /home/yeison/Documentos/python/dev/developing/Pinguino11/pinguino/source/main.c	IO_init();
002b9a   ecd7     call    0x2bae, 0        	CALL	_IO_init
002b9c   f015
                                           ;	.line	204; /home/yeison/Documentos/python/dev/developing/Pinguino11/pinguino/source/main.c	IO_digital();
002b9e   ec02     call    0x2c04, 0        	CALL	_IO_digital
002ba0   f016
                                           ;	.line	251; /home/yeison/Documentos/python/dev/developing/Pinguino11/pinguino/source/main.c	setup();
002ba2   ecf3     call    0x2be6, 0        	CALL	_setup
002ba4   f015
                                           _00335_DS_:
                                           ;	.line	273; /home/yeison/Documentos/python/dev/developing/Pinguino11/pinguino/source/main.c	loop();
002ba6   eca2     call    0x2b44, 0        	CALL	_loop
002ba8   f015
002baa   d7fd     bra     0x2ba6           	BRA	_00335_DS_
002bac   0012     return  0                	RETURN	
                                           
                                           ; ; Starting pCode block
                                           S_main__epapout_init	code
                                           _epapout_init:
                                           ;	.line	84; /home/yeison/Documentos/python/dev/developing/Pinguino11/pinguino/source/main.c	void epapout_init() { return; }
002c18   0012     return  0                	RETURN	
                                           
                                           ; ; Starting pCode block
                                           S_main__epapin_init	code
                                           _epapin_init:
                                           ;	.line	83; /home/yeison/Documentos/python/dev/developing/Pinguino11/pinguino/source/main.c	void epapin_init()  { return; }
002c1a   0012     return  0                	RETURN	
                                           
                                           ; ; Starting pCode block
                                           S_main__epap_out	code
                                           _epap_out:
                                           ;	.line	82; /home/yeison/Documentos/python/dev/developing/Pinguino11/pinguino/source/main.c	void epap_out()     { return; }
002c1c   0012     return  0                	RETURN	
                                           
                                           ; ; Starting pCode block
                                           S_main__epap_in	code
                                           _epap_in:
                                           ;	.line	81; /home/yeison/Documentos/python/dev/developing/Pinguino11/pinguino/source/main.c	void epap_in()      { return; }
002c1e   0012     return  0                	RETURN	
                                           
                                           ; ; Starting pCode block
                                           S_main__loop	code
                                           _loop:
                                           ;	.line	20; /home/yeison/Documentos/python/dev/developing/Pinguino11/pinguino/source/user.c	digitalwrite(13,HIGH);
002b44   0e01     movlw   0x1              	MOVLW	0x01
002b46   6ee5     movwf   0xe5, 0          	MOVWF	POSTDEC1
002b48   0e0d     movlw   0xd              	MOVLW	0x0d
002b4a   6ee5     movwf   0xe5, 0          	MOVWF	POSTDEC1
002b4c   ece8     call    0x25d0, 0        	CALL	_digitalwrite
002b4e   f012
002b50   52e6     movf    0xe6, 0x1, 0     	MOVF	POSTINC1, F
002b52   52e6     movf    0xe6, 0x1, 0     	MOVF	POSTINC1, F
                                           ;	.line	21; /home/yeison/Documentos/python/dev/developing/Pinguino11/pinguino/source/user.c	Delayms(100);
002b54   6ae5     clrf    0xe5, 0          	CLRF	POSTDEC1
002b56   0e64     movlw   0x64             	MOVLW	0x64
002b58   6ee5     movwf   0xe5, 0          	MOVWF	POSTDEC1
002b5a   ec2e     call    0x2a5c, 0        	CALL	_Delayms
002b5c   f015
002b5e   52e6     movf    0xe6, 0x1, 0     	MOVF	POSTINC1, F
002b60   52e6     movf    0xe6, 0x1, 0     	MOVF	POSTINC1, F
                                           ;	.line	22; /home/yeison/Documentos/python/dev/developing/Pinguino11/pinguino/source/user.c	digitalwrite(13,LOW);
002b62   6ae5     clrf    0xe5, 0          	CLRF	POSTDEC1
002b64   0e0d     movlw   0xd              	MOVLW	0x0d
002b66   6ee5     movwf   0xe5, 0          	MOVWF	POSTDEC1
002b68   ece8     call    0x25d0, 0        	CALL	_digitalwrite
002b6a   f012
002b6c   52e6     movf    0xe6, 0x1, 0     	MOVF	POSTINC1, F
002b6e   52e6     movf    0xe6, 0x1, 0     	MOVF	POSTINC1, F
                                           ;	.line	23; /home/yeison/Documentos/python/dev/developing/Pinguino11/pinguino/source/user.c	Delayms(100);
002b70   6ae5     clrf    0xe5, 0          	CLRF	POSTDEC1
002b72   0e64     movlw   0x64             	MOVLW	0x64
002b74   6ee5     movwf   0xe5, 0          	MOVWF	POSTDEC1
002b76   ec2e     call    0x2a5c, 0        	CALL	_Delayms
002b78   f015
002b7a   52e6     movf    0xe6, 0x1, 0     	MOVF	POSTINC1, F
002b7c   52e6     movf    0xe6, 0x1, 0     	MOVF	POSTINC1, F
002b7e   0012     return  0                	RETURN	
                                           
                                           ; ; Starting pCode block
                                           S_main__setup	code
                                           _setup:
                                           ;	.line	13; /home/yeison/Documentos/python/dev/developing/Pinguino11/pinguino/source/user.c	pinmode(13,OUTPUT);
002be6   6ae5     clrf    0xe5, 0          	CLRF	POSTDEC1
002be8   0e0d     movlw   0xd              	MOVLW	0x0d
002bea   6ee5     movwf   0xe5, 0          	MOVWF	POSTDEC1
002bec   ecb9     call    0x2372, 0        	CALL	_pinmode
002bee   f011
002bf0   52e6     movf    0xe6, 0x1, 0     	MOVF	POSTINC1, F
002bf2   52e6     movf    0xe6, 0x1, 0     	MOVF	POSTINC1, F
002bf4   0012     return  0                	RETURN	
                                           
                                           ; ; Starting pCode block
                                           S_main__IO_digital	code
                                           _IO_digital:
                                           ;	.line	108; /home/yeison/Documentos/python/dev/developing/Pinguino11/pinguino/p8/pinguino/core/io.c	ADCON1 = 0x0F;				// AN0 to AN12 Digital I/O
002c04   0e0f     movlw   0xf              	MOVLW	0x0f
002c06   6ec1     movwf   0xc1, 0          	MOVWF	_ADCON1
                                           ;	.line	109; /home/yeison/Documentos/python/dev/developing/Pinguino11/pinguino/p8/pinguino/core/io.c	CMCON = 0x07;               // Comparators as Digital I/O
002c08   0e07     movlw   0x7              	MOVLW	0x07
002c0a   6eb4     movwf   0xb4, 0          	MOVWF	_CMCON
002c0c   0012     return  0                	RETURN	
                                           
                                           ; ; Starting pCode block
                                           S_main__IO_init	code
                                           _IO_init:
                                           ;	.line	46; /home/yeison/Documentos/python/dev/developing/Pinguino11/pinguino/p8/pinguino/core/io.c	LATA  = 0x00;
002bae   6a89     clrf    0x89, 0          	CLRF	_LATA
                                           ;	.line	47; /home/yeison/Documentos/python/dev/developing/Pinguino11/pinguino/p8/pinguino/core/io.c	LATB  = 0x00;
002bb0   6a8a     clrf    0x8a, 0          	CLRF	_LATB
                                           ;	.line	61; /home/yeison/Documentos/python/dev/developing/Pinguino11/pinguino/p8/pinguino/core/io.c	LATC  = 0x40;	
002bb2   0e40     movlw   0x40             	MOVLW	0x40
002bb4   6e8b     movwf   0x8b, 0          	MOVWF	_LATC
                                           ;	.line	68; /home/yeison/Documentos/python/dev/developing/Pinguino11/pinguino/p8/pinguino/core/io.c	LATD  = 0x00; 
002bb6   6a8c     clrf    0x8c, 0          	CLRF	_LATD
                                           ;	.line	69; /home/yeison/Documentos/python/dev/developing/Pinguino11/pinguino/p8/pinguino/core/io.c	LATE  = 0x00; 
002bb8   6a8d     clrf    0x8d, 0          	CLRF	_LATE
                                           ;	.line	72; /home/yeison/Documentos/python/dev/developing/Pinguino11/pinguino/p8/pinguino/core/io.c	TRISA = 0x00;
002bba   6a92     clrf    0x92, 0          	CLRF	_TRISA
                                           ;	.line	74; /home/yeison/Documentos/python/dev/developing/Pinguino11/pinguino/p8/pinguino/core/io.c	TRISB = 0x00;
002bbc   6a93     clrf    0x93, 0          	CLRF	_TRISB
                                           ;	.line	76; /home/yeison/Documentos/python/dev/developing/Pinguino11/pinguino/p8/pinguino/core/io.c	TRISCbits.TRISC0 = 0x00;
002bbe   9094     bcf     0x94, 0, 0       	BCF	_TRISCbits, 0
                                           ;	.line	77; /home/yeison/Documentos/python/dev/developing/Pinguino11/pinguino/p8/pinguino/core/io.c	TRISCbits.TRISC1 = 0x00;
002bc0   9294     bcf     0x94, 0x1, 0     	BCF	_TRISCbits, 1
                                           ;	.line	78; /home/yeison/Documentos/python/dev/developing/Pinguino11/pinguino/p8/pinguino/core/io.c	TRISCbits.TRISC2 = 0x00;
002bc2   9494     bcf     0x94, 0x2, 0     	BCF	_TRISCbits, 2
                                           ;	.line	79; /home/yeison/Documentos/python/dev/developing/Pinguino11/pinguino/p8/pinguino/core/io.c	TRISCbits.TRISC6 = 0x00;
002bc4   9c94     bcf     0x94, 0x6, 0     	BCF	_TRISCbits, 6
                                           ;	.line	80; /home/yeison/Documentos/python/dev/developing/Pinguino11/pinguino/p8/pinguino/core/io.c	TRISCbits.TRISC7 = 0x00;
002bc6   9e94     bcf     0x94, 0x7, 0     	BCF	_TRISCbits, 7
                                           ;	.line	84; /home/yeison/Documentos/python/dev/developing/Pinguino11/pinguino/p8/pinguino/core/io.c	TRISD = 0x00; 
002bc8   6a95     clrf    0x95, 0          	CLRF	_TRISD
                                           ;	.line	85; /home/yeison/Documentos/python/dev/developing/Pinguino11/pinguino/p8/pinguino/core/io.c	TRISE = 0x00; 
002bca   6a96     clrf    0x96, 0          	CLRF	_TRISE
002bcc   0012     return  0                	RETURN	
                                           
                                           ; ; Starting pCode block
                                           S_main__toggle	code
                                           _toggle:
                                           ;	.line	312; /home/yeison/Documentos/python/dev/developing/Pinguino11/pinguino/p8/pinguino/core/digitalw.c	void toggle(unsigned char pin)
002b02   cfd9     movff   0xfd9, 0xfe5     	MOVFF	FSR2L, POSTDEC1
002b04   ffe5
002b06   cfe1     movff   0xfe1, 0xfd9     	MOVFF	FSR1L, FSR2L
002b08   ffd9
002b0a   c000     movff   0, 0xfe5         	MOVFF	r0x00, POSTDEC1
002b0c   ffe5
002b0e   c001     movff   0x1, 0xfe5       	MOVFF	r0x01, POSTDEC1
002b10   ffe5
002b12   0e02     movlw   0x2              	MOVLW	0x02
002b14   cfdb     movff   0xfdb, 0         	MOVFF	PLUSW2, r0x00
002b16   f000
                                           ;	.line	315; /home/yeison/Documentos/python/dev/developing/Pinguino11/pinguino/p8/pinguino/core/digitalw.c	state = digitalread(pin);
002b18   5000     movf    0, 0, 0          	MOVF	r0x00, W
002b1a   6ee5     movwf   0xe5, 0          	MOVWF	POSTDEC1
002b1c   ec17     call    0x282e, 0        	CALL	_digitalread
002b1e   f014
002b20   6e01     movwf   0x1, 0           	MOVWF	r0x01
002b22   52e6     movf    0xe6, 0x1, 0     	MOVF	POSTINC1, F
                                           ;	.line	316; /home/yeison/Documentos/python/dev/developing/Pinguino11/pinguino/p8/pinguino/core/digitalw.c	digitalwrite(pin, state^1);
002b24   7001     btg     0x1, 0, 0        	BTG	r0x01, 0
002b26   5001     movf    0x1, 0, 0        	MOVF	r0x01, W
002b28   6ee5     movwf   0xe5, 0          	MOVWF	POSTDEC1
002b2a   5000     movf    0, 0, 0          	MOVF	r0x00, W
002b2c   6ee5     movwf   0xe5, 0          	MOVWF	POSTDEC1
002b2e   ece8     call    0x25d0, 0        	CALL	_digitalwrite
002b30   f012
002b32   52e6     movf    0xe6, 0x1, 0     	MOVF	POSTINC1, F
002b34   52e6     movf    0xe6, 0x1, 0     	MOVF	POSTINC1, F
002b36   cfe4     movff   0xfe4, 0x1       	MOVFF	PREINC1, r0x01
002b38   f001
002b3a   cfe4     movff   0xfe4, 0         	MOVFF	PREINC1, r0x00
002b3c   f000
002b3e   cfe4     movff   0xfe4, 0xfd9     	MOVFF	PREINC1, FSR2L
002b40   ffd9
002b42   0012     return  0                	RETURN	
                                           
                                           ; ; Starting pCode block
                                           S_main__pinmode	code
                                           _pinmode:
                                           ;	.line	270; /home/yeison/Documentos/python/dev/developing/Pinguino11/pinguino/p8/pinguino/core/digitalw.c	void pinmode(unsigned char pin, unsigned char state)
002372   cfd9     movff   0xfd9, 0xfe5     	MOVFF	FSR2L, POSTDEC1
002374   ffe5
002376   cfe1     movff   0xfe1, 0xfd9     	MOVFF	FSR1L, FSR2L
002378   ffd9
00237a   c000     movff   0, 0xfe5         	MOVFF	r0x00, POSTDEC1
00237c   ffe5
00237e   c001     movff   0x1, 0xfe5       	MOVFF	r0x01, POSTDEC1
002380   ffe5
002382   c002     movff   0x2, 0xfe5       	MOVFF	r0x02, POSTDEC1
002384   ffe5
002386   c003     movff   0x3, 0xfe5       	MOVFF	r0x03, POSTDEC1
002388   ffe5
00238a   c004     movff   0x4, 0xfe5       	MOVFF	r0x04, POSTDEC1
00238c   ffe5
00238e   0e02     movlw   0x2              	MOVLW	0x02
002390   cfdb     movff   0xfdb, 0         	MOVFF	PLUSW2, r0x00
002392   f000
002394   0e03     movlw   0x3              	MOVLW	0x03
002396   cfdb     movff   0xfdb, 0x1       	MOVFF	PLUSW2, r0x01
002398   f001
                                           ;	.line	272; /home/yeison/Documentos/python/dev/developing/Pinguino11/pinguino/p8/pinguino/core/digitalw.c	switch (port[pin])
00239a   0e54     movlw   0x54             	MOVLW	LOW(_port)
00239c   2400     addwf   0, 0, 0          	ADDWF	r0x00, W
00239e   6e02     movwf   0x2, 0           	MOVWF	r0x02
0023a0   6a03     clrf    0x3, 0           	CLRF	r0x03
0023a2   0e23     movlw   0x23             	MOVLW	HIGH(_port)
0023a4   2203     addwfc  0x3, 0x1, 0      	ADDWFC	r0x03, F
0023a6   6a04     clrf    0x4, 0           	CLRF	r0x04
0023a8   0e00     movlw   0                	MOVLW	UPPER(_port)
0023aa   2204     addwfc  0x4, 0x1, 0      	ADDWFC	r0x04, F
0023ac   c002     movff   0x2, 0xff6       	MOVFF	r0x02, TBLPTRL
0023ae   fff6
0023b0   c003     movff   0x3, 0xff7       	MOVFF	r0x03, TBLPTRH
0023b2   fff7
0023b4   c004     movff   0x4, 0xff8       	MOVFF	r0x04, TBLPTRU
0023b6   fff8
0023b8   0009     tblrd   *+               	TBLRD*+	
0023ba   cff5     movff   0xff5, 0x2       	MOVFF	TABLAT, r0x02
0023bc   f002
0023be   0e05     movlw   0x5              	MOVLW	0x05
0023c0   5c02     subwf   0x2, 0, 0        	SUBWF	r0x02, W
0023c2   b0d8     btfsc   0xd8, 0, 0       	BTFSC	STATUS, 0
0023c4   d0f8     bra     0x25b6           	BRA	_00256_DS_
0023c6   6afa     clrf    0xfa, 0          	CLRF	PCLATH
0023c8   6afb     clrf    0xfb, 0          	CLRF	PCLATU
0023ca   3402     rlcf    0x2, 0, 0        	RLCF	r0x02, W
0023cc   36fa     rlcf    0xfa, 0x1, 0     	RLCF	PCLATH, F
0023ce   34e8     rlcf    0xe8, 0, 0       	RLCF	WREG, W
0023d0   36fa     rlcf    0xfa, 0x1, 0     	RLCF	PCLATH, F
0023d2   0bfc     andlw   0xfc             	ANDLW	0xfc
0023d4   0fe4     addlw   0xe4             	ADDLW	LOW(_00277_DS_)
0023d6   6ee5     movwf   0xe5, 0          	MOVWF	POSTDEC1
0023d8   0e23     movlw   0x23             	MOVLW	HIGH(_00277_DS_)
0023da   22fa     addwfc  0xfa, 0x1, 0     	ADDWFC	PCLATH, F
0023dc   0e00     movlw   0                	MOVLW	UPPER(_00277_DS_)
0023de   22fb     addwfc  0xfb, 0x1, 0     	ADDWFC	PCLATU, F
0023e0   50e4     movf    0xe4, 0, 0       	MOVF	PREINC1, W
0023e2   6ef9     movwf   0xf9, 0          	MOVWF	PCL
                                           _00277_DS_:
0023e4   effc     goto    0x23f8           	GOTO	_00235_DS_
0023e6   f011
0023e8   ef29     goto    0x2452           	GOTO	_00239_DS_
0023ea   f012
0023ec   ef56     goto    0x24ac           	GOTO	_00243_DS_
0023ee   f012
0023f0   ef83     goto    0x2506           	GOTO	_00247_DS_
0023f2   f012
0023f4   efb0     goto    0x2560           	GOTO	_00251_DS_
0023f6   f012
                                           _00235_DS_:
                                           ;	.line	274; /home/yeison/Documentos/python/dev/developing/Pinguino11/pinguino/p8/pinguino/core/digitalw.c	case pA: if (state) TRISA=TRISA | mask[pin];
0023f8   5001     movf    0x1, 0, 0        	MOVF	r0x01, W
0023fa   e015     bz      0x2426           	BZ	_00237_DS_
0023fc   0e36     movlw   0x36             	MOVLW	LOW(_mask)
0023fe   2400     addwf   0, 0, 0          	ADDWF	r0x00, W
002400   6e02     movwf   0x2, 0           	MOVWF	r0x02
002402   6a03     clrf    0x3, 0           	CLRF	r0x03
002404   0e23     movlw   0x23             	MOVLW	HIGH(_mask)
002406   2203     addwfc  0x3, 0x1, 0      	ADDWFC	r0x03, F
002408   6a04     clrf    0x4, 0           	CLRF	r0x04
00240a   0e00     movlw   0                	MOVLW	UPPER(_mask)
00240c   2204     addwfc  0x4, 0x1, 0      	ADDWFC	r0x04, F
00240e   c002     movff   0x2, 0xff6       	MOVFF	r0x02, TBLPTRL
002410   fff6
002412   c003     movff   0x3, 0xff7       	MOVFF	r0x03, TBLPTRH
002414   fff7
002416   c004     movff   0x4, 0xff8       	MOVFF	r0x04, TBLPTRU
002418   fff8
00241a   0009     tblrd   *+               	TBLRD*+	
00241c   cff5     movff   0xff5, 0x2       	MOVFF	TABLAT, r0x02
00241e   f002
002420   5002     movf    0x2, 0, 0        	MOVF	r0x02, W
002422   1292     iorwf   0x92, 0x1, 0     	IORWF	_TRISA, F
002424   d0c8     bra     0x25b6           	BRA	_00256_DS_
                                           _00237_DS_:
                                           ;	.line	275; /home/yeison/Documentos/python/dev/developing/Pinguino11/pinguino/p8/pinguino/core/digitalw.c	else TRISA=TRISA & (255-mask[pin]);
002426   0e36     movlw   0x36             	MOVLW	LOW(_mask)
002428   2400     addwf   0, 0, 0          	ADDWF	r0x00, W
00242a   6e02     movwf   0x2, 0           	MOVWF	r0x02
00242c   6a03     clrf    0x3, 0           	CLRF	r0x03
00242e   0e23     movlw   0x23             	MOVLW	HIGH(_mask)
002430   2203     addwfc  0x3, 0x1, 0      	ADDWFC	r0x03, F
002432   6a04     clrf    0x4, 0           	CLRF	r0x04
002434   0e00     movlw   0                	MOVLW	UPPER(_mask)
002436   2204     addwfc  0x4, 0x1, 0      	ADDWFC	r0x04, F
002438   c002     movff   0x2, 0xff6       	MOVFF	r0x02, TBLPTRL
00243a   fff6
00243c   c003     movff   0x3, 0xff7       	MOVFF	r0x03, TBLPTRH
00243e   fff7
002440   c004     movff   0x4, 0xff8       	MOVFF	r0x04, TBLPTRU
002442   fff8
002444   0009     tblrd   *+               	TBLRD*+	
002446   cff5     movff   0xff5, 0x2       	MOVFF	TABLAT, r0x02
002448   f002
00244a   5002     movf    0x2, 0, 0        	MOVF	r0x02, W
00244c   08ff     sublw   0xff             	SUBLW	0xff
                                           ; #	MOVWF	r0x02
                                           ; #	MOVF	r0x02, W
00244e   1692     andwf   0x92, 0x1, 0     	ANDWF	_TRISA, F
                                           ;	.line	276; /home/yeison/Documentos/python/dev/developing/Pinguino11/pinguino/p8/pinguino/core/digitalw.c	break;
002450   d0b2     bra     0x25b6           	BRA	_00256_DS_
                                           _00239_DS_:
                                           ;	.line	277; /home/yeison/Documentos/python/dev/developing/Pinguino11/pinguino/p8/pinguino/core/digitalw.c	case pB: if (state) TRISB=TRISB | mask[pin];
002452   5001     movf    0x1, 0, 0        	MOVF	r0x01, W
002454   e015     bz      0x2480           	BZ	_00241_DS_
002456   0e36     movlw   0x36             	MOVLW	LOW(_mask)
002458   2400     addwf   0, 0, 0          	ADDWF	r0x00, W
00245a   6e02     movwf   0x2, 0           	MOVWF	r0x02
00245c   6a03     clrf    0x3, 0           	CLRF	r0x03
00245e   0e23     movlw   0x23             	MOVLW	HIGH(_mask)
002460   2203     addwfc  0x3, 0x1, 0      	ADDWFC	r0x03, F
002462   6a04     clrf    0x4, 0           	CLRF	r0x04
002464   0e00     movlw   0                	MOVLW	UPPER(_mask)
002466   2204     addwfc  0x4, 0x1, 0      	ADDWFC	r0x04, F
002468   c002     movff   0x2, 0xff6       	MOVFF	r0x02, TBLPTRL
00246a   fff6
00246c   c003     movff   0x3, 0xff7       	MOVFF	r0x03, TBLPTRH
00246e   fff7
002470   c004     movff   0x4, 0xff8       	MOVFF	r0x04, TBLPTRU
002472   fff8
002474   0009     tblrd   *+               	TBLRD*+	
002476   cff5     movff   0xff5, 0x2       	MOVFF	TABLAT, r0x02
002478   f002
00247a   5002     movf    0x2, 0, 0        	MOVF	r0x02, W
00247c   1293     iorwf   0x93, 0x1, 0     	IORWF	_TRISB, F
00247e   d09b     bra     0x25b6           	BRA	_00256_DS_
                                           _00241_DS_:
                                           ;	.line	278; /home/yeison/Documentos/python/dev/developing/Pinguino11/pinguino/p8/pinguino/core/digitalw.c	else TRISB=TRISB & (255-mask[pin]);
002480   0e36     movlw   0x36             	MOVLW	LOW(_mask)
002482   2400     addwf   0, 0, 0          	ADDWF	r0x00, W
002484   6e02     movwf   0x2, 0           	MOVWF	r0x02
002486   6a03     clrf    0x3, 0           	CLRF	r0x03
002488   0e23     movlw   0x23             	MOVLW	HIGH(_mask)
00248a   2203     addwfc  0x3, 0x1, 0      	ADDWFC	r0x03, F
00248c   6a04     clrf    0x4, 0           	CLRF	r0x04
00248e   0e00     movlw   0                	MOVLW	UPPER(_mask)
002490   2204     addwfc  0x4, 0x1, 0      	ADDWFC	r0x04, F
002492   c002     movff   0x2, 0xff6       	MOVFF	r0x02, TBLPTRL
002494   fff6
002496   c003     movff   0x3, 0xff7       	MOVFF	r0x03, TBLPTRH
002498   fff7
00249a   c004     movff   0x4, 0xff8       	MOVFF	r0x04, TBLPTRU
00249c   fff8
00249e   0009     tblrd   *+               	TBLRD*+	
0024a0   cff5     movff   0xff5, 0x2       	MOVFF	TABLAT, r0x02
0024a2   f002
0024a4   5002     movf    0x2, 0, 0        	MOVF	r0x02, W
0024a6   08ff     sublw   0xff             	SUBLW	0xff
                                           ; #	MOVWF	r0x02
                                           ; #	MOVF	r0x02, W
0024a8   1693     andwf   0x93, 0x1, 0     	ANDWF	_TRISB, F
                                           ;	.line	279; /home/yeison/Documentos/python/dev/developing/Pinguino11/pinguino/p8/pinguino/core/digitalw.c	break;
0024aa   d085     bra     0x25b6           	BRA	_00256_DS_
                                           _00243_DS_:
                                           ;	.line	280; /home/yeison/Documentos/python/dev/developing/Pinguino11/pinguino/p8/pinguino/core/digitalw.c	case pC: if (state) TRISC=TRISC | mask[pin];
0024ac   5001     movf    0x1, 0, 0        	MOVF	r0x01, W
0024ae   e015     bz      0x24da           	BZ	_00245_DS_
0024b0   0e36     movlw   0x36             	MOVLW	LOW(_mask)
0024b2   2400     addwf   0, 0, 0          	ADDWF	r0x00, W
0024b4   6e02     movwf   0x2, 0           	MOVWF	r0x02
0024b6   6a03     clrf    0x3, 0           	CLRF	r0x03
0024b8   0e23     movlw   0x23             	MOVLW	HIGH(_mask)
0024ba   2203     addwfc  0x3, 0x1, 0      	ADDWFC	r0x03, F
0024bc   6a04     clrf    0x4, 0           	CLRF	r0x04
0024be   0e00     movlw   0                	MOVLW	UPPER(_mask)
0024c0   2204     addwfc  0x4, 0x1, 0      	ADDWFC	r0x04, F
0024c2   c002     movff   0x2, 0xff6       	MOVFF	r0x02, TBLPTRL
0024c4   fff6
0024c6   c003     movff   0x3, 0xff7       	MOVFF	r0x03, TBLPTRH
0024c8   fff7
0024ca   c004     movff   0x4, 0xff8       	MOVFF	r0x04, TBLPTRU
0024cc   fff8
0024ce   0009     tblrd   *+               	TBLRD*+	
0024d0   cff5     movff   0xff5, 0x2       	MOVFF	TABLAT, r0x02
0024d2   f002
0024d4   5002     movf    0x2, 0, 0        	MOVF	r0x02, W
0024d6   1294     iorwf   0x94, 0x1, 0     	IORWF	_TRISC, F
0024d8   d06e     bra     0x25b6           	BRA	_00256_DS_
                                           _00245_DS_:
                                           ;	.line	281; /home/yeison/Documentos/python/dev/developing/Pinguino11/pinguino/p8/pinguino/core/digitalw.c	else TRISC=TRISC & (255-mask[pin]);
0024da   0e36     movlw   0x36             	MOVLW	LOW(_mask)
0024dc   2400     addwf   0, 0, 0          	ADDWF	r0x00, W
0024de   6e02     movwf   0x2, 0           	MOVWF	r0x02
0024e0   6a03     clrf    0x3, 0           	CLRF	r0x03
0024e2   0e23     movlw   0x23             	MOVLW	HIGH(_mask)
0024e4   2203     addwfc  0x3, 0x1, 0      	ADDWFC	r0x03, F
0024e6   6a04     clrf    0x4, 0           	CLRF	r0x04
0024e8   0e00     movlw   0                	MOVLW	UPPER(_mask)
0024ea   2204     addwfc  0x4, 0x1, 0      	ADDWFC	r0x04, F
0024ec   c002     movff   0x2, 0xff6       	MOVFF	r0x02, TBLPTRL
0024ee   fff6
0024f0   c003     movff   0x3, 0xff7       	MOVFF	r0x03, TBLPTRH
0024f2   fff7
0024f4   c004     movff   0x4, 0xff8       	MOVFF	r0x04, TBLPTRU
0024f6   fff8
0024f8   0009     tblrd   *+               	TBLRD*+	
0024fa   cff5     movff   0xff5, 0x2       	MOVFF	TABLAT, r0x02
0024fc   f002
0024fe   5002     movf    0x2, 0, 0        	MOVF	r0x02, W
002500   08ff     sublw   0xff             	SUBLW	0xff
                                           ; #	MOVWF	r0x02
                                           ; #	MOVF	r0x02, W
002502   1694     andwf   0x94, 0x1, 0     	ANDWF	_TRISC, F
                                           ;	.line	282; /home/yeison/Documentos/python/dev/developing/Pinguino11/pinguino/p8/pinguino/core/digitalw.c	break;
002504   d058     bra     0x25b6           	BRA	_00256_DS_
                                           _00247_DS_:
                                           ;	.line	284; /home/yeison/Documentos/python/dev/developing/Pinguino11/pinguino/p8/pinguino/core/digitalw.c	case pD: if (state) TRISD=TRISD | mask[pin];
002506   5001     movf    0x1, 0, 0        	MOVF	r0x01, W
002508   e015     bz      0x2534           	BZ	_00249_DS_
00250a   0e36     movlw   0x36             	MOVLW	LOW(_mask)
00250c   2400     addwf   0, 0, 0          	ADDWF	r0x00, W
00250e   6e02     movwf   0x2, 0           	MOVWF	r0x02
002510   6a03     clrf    0x3, 0           	CLRF	r0x03
002512   0e23     movlw   0x23             	MOVLW	HIGH(_mask)
002514   2203     addwfc  0x3, 0x1, 0      	ADDWFC	r0x03, F
002516   6a04     clrf    0x4, 0           	CLRF	r0x04
002518   0e00     movlw   0                	MOVLW	UPPER(_mask)
00251a   2204     addwfc  0x4, 0x1, 0      	ADDWFC	r0x04, F
00251c   c002     movff   0x2, 0xff6       	MOVFF	r0x02, TBLPTRL
00251e   fff6
002520   c003     movff   0x3, 0xff7       	MOVFF	r0x03, TBLPTRH
002522   fff7
002524   c004     movff   0x4, 0xff8       	MOVFF	r0x04, TBLPTRU
002526   fff8
002528   0009     tblrd   *+               	TBLRD*+	
00252a   cff5     movff   0xff5, 0x2       	MOVFF	TABLAT, r0x02
00252c   f002
00252e   5002     movf    0x2, 0, 0        	MOVF	r0x02, W
002530   1295     iorwf   0x95, 0x1, 0     	IORWF	_TRISD, F
002532   d041     bra     0x25b6           	BRA	_00256_DS_
                                           _00249_DS_:
                                           ;	.line	285; /home/yeison/Documentos/python/dev/developing/Pinguino11/pinguino/p8/pinguino/core/digitalw.c	else TRISD=TRISD & (255-mask[pin]);
002534   0e36     movlw   0x36             	MOVLW	LOW(_mask)
002536   2400     addwf   0, 0, 0          	ADDWF	r0x00, W
002538   6e02     movwf   0x2, 0           	MOVWF	r0x02
00253a   6a03     clrf    0x3, 0           	CLRF	r0x03
00253c   0e23     movlw   0x23             	MOVLW	HIGH(_mask)
00253e   2203     addwfc  0x3, 0x1, 0      	ADDWFC	r0x03, F
002540   6a04     clrf    0x4, 0           	CLRF	r0x04
002542   0e00     movlw   0                	MOVLW	UPPER(_mask)
002544   2204     addwfc  0x4, 0x1, 0      	ADDWFC	r0x04, F
002546   c002     movff   0x2, 0xff6       	MOVFF	r0x02, TBLPTRL
002548   fff6
00254a   c003     movff   0x3, 0xff7       	MOVFF	r0x03, TBLPTRH
00254c   fff7
00254e   c004     movff   0x4, 0xff8       	MOVFF	r0x04, TBLPTRU
002550   fff8
002552   0009     tblrd   *+               	TBLRD*+	
002554   cff5     movff   0xff5, 0x2       	MOVFF	TABLAT, r0x02
002556   f002
002558   5002     movf    0x2, 0, 0        	MOVF	r0x02, W
00255a   08ff     sublw   0xff             	SUBLW	0xff
                                           ; #	MOVWF	r0x02
                                           ; #	MOVF	r0x02, W
00255c   1695     andwf   0x95, 0x1, 0     	ANDWF	_TRISD, F
                                           ;	.line	286; /home/yeison/Documentos/python/dev/developing/Pinguino11/pinguino/p8/pinguino/core/digitalw.c	break;
00255e   d02b     bra     0x25b6           	BRA	_00256_DS_
                                           _00251_DS_:
                                           ;	.line	287; /home/yeison/Documentos/python/dev/developing/Pinguino11/pinguino/p8/pinguino/core/digitalw.c	case pE: if (state) TRISE=TRISE | mask[pin];
002560   5001     movf    0x1, 0, 0        	MOVF	r0x01, W
002562   e015     bz      0x258e           	BZ	_00253_DS_
002564   0e36     movlw   0x36             	MOVLW	LOW(_mask)
002566   2400     addwf   0, 0, 0          	ADDWF	r0x00, W
002568   6e01     movwf   0x1, 0           	MOVWF	r0x01
00256a   6a02     clrf    0x2, 0           	CLRF	r0x02
00256c   0e23     movlw   0x23             	MOVLW	HIGH(_mask)
00256e   2202     addwfc  0x2, 0x1, 0      	ADDWFC	r0x02, F
002570   6a03     clrf    0x3, 0           	CLRF	r0x03
002572   0e00     movlw   0                	MOVLW	UPPER(_mask)
002574   2203     addwfc  0x3, 0x1, 0      	ADDWFC	r0x03, F
002576   c001     movff   0x1, 0xff6       	MOVFF	r0x01, TBLPTRL
002578   fff6
00257a   c002     movff   0x2, 0xff7       	MOVFF	r0x02, TBLPTRH
00257c   fff7
00257e   c003     movff   0x3, 0xff8       	MOVFF	r0x03, TBLPTRU
002580   fff8
002582   0009     tblrd   *+               	TBLRD*+	
002584   cff5     movff   0xff5, 0x1       	MOVFF	TABLAT, r0x01
002586   f001
002588   5001     movf    0x1, 0, 0        	MOVF	r0x01, W
00258a   1296     iorwf   0x96, 0x1, 0     	IORWF	_TRISE, F
00258c   d014     bra     0x25b6           	BRA	_00256_DS_
                                           _00253_DS_:
                                           ;	.line	288; /home/yeison/Documentos/python/dev/developing/Pinguino11/pinguino/p8/pinguino/core/digitalw.c	else TRISE=TRISE & (255-mask[pin]);
00258e   6a01     clrf    0x1, 0           	CLRF	r0x01
002590   6a02     clrf    0x2, 0           	CLRF	r0x02
002592   0e36     movlw   0x36             	MOVLW	LOW(_mask)
002594   2600     addwf   0, 0x1, 0        	ADDWF	r0x00, F
002596   0e23     movlw   0x23             	MOVLW	HIGH(_mask)
002598   2201     addwfc  0x1, 0x1, 0      	ADDWFC	r0x01, F
00259a   0e00     movlw   0                	MOVLW	UPPER(_mask)
00259c   2202     addwfc  0x2, 0x1, 0      	ADDWFC	r0x02, F
00259e   c000     movff   0, 0xff6         	MOVFF	r0x00, TBLPTRL
0025a0   fff6
0025a2   c001     movff   0x1, 0xff7       	MOVFF	r0x01, TBLPTRH
0025a4   fff7
0025a6   c002     movff   0x2, 0xff8       	MOVFF	r0x02, TBLPTRU
0025a8   fff8
0025aa   0009     tblrd   *+               	TBLRD*+	
0025ac   cff5     movff   0xff5, 0         	MOVFF	TABLAT, r0x00
0025ae   f000
0025b0   5000     movf    0, 0, 0          	MOVF	r0x00, W
0025b2   08ff     sublw   0xff             	SUBLW	0xff
                                           ; #	MOVWF	r0x00
                                           ; #	MOVF	r0x00, W
0025b4   1696     andwf   0x96, 0x1, 0     	ANDWF	_TRISE, F
                                           _00256_DS_:
                                           ;	.line	291; /home/yeison/Documentos/python/dev/developing/Pinguino11/pinguino/p8/pinguino/core/digitalw.c	}
0025b6   cfe4     movff   0xfe4, 0x4       	MOVFF	PREINC1, r0x04
0025b8   f004
0025ba   cfe4     movff   0xfe4, 0x3       	MOVFF	PREINC1, r0x03
0025bc   f003
0025be   cfe4     movff   0xfe4, 0x2       	MOVFF	PREINC1, r0x02
0025c0   f002
0025c2   cfe4     movff   0xfe4, 0x1       	MOVFF	PREINC1, r0x01
0025c4   f001
0025c6   cfe4     movff   0xfe4, 0         	MOVFF	PREINC1, r0x00
0025c8   f000
0025ca   cfe4     movff   0xfe4, 0xfd9     	MOVFF	PREINC1, FSR2L
0025cc   ffd9
0025ce   0012     return  0                	RETURN	
                                           
                                           ; ; Starting pCode block
                                           S_main__digitalread	code
                                           _digitalread:
                                           ;	.line	229; /home/yeison/Documentos/python/dev/developing/Pinguino11/pinguino/p8/pinguino/core/digitalw.c	unsigned char digitalread(unsigned char pin)
00282e   cfd9     movff   0xfd9, 0xfe5     	MOVFF	FSR2L, POSTDEC1
002830   ffe5
002832   cfe1     movff   0xfe1, 0xfd9     	MOVFF	FSR1L, FSR2L
002834   ffd9
002836   c000     movff   0, 0xfe5         	MOVFF	r0x00, POSTDEC1
002838   ffe5
00283a   c001     movff   0x1, 0xfe5       	MOVFF	r0x01, POSTDEC1
00283c   ffe5
00283e   c002     movff   0x2, 0xfe5       	MOVFF	r0x02, POSTDEC1
002840   ffe5
002842   c003     movff   0x3, 0xfe5       	MOVFF	r0x03, POSTDEC1
002844   ffe5
002846   0e02     movlw   0x2              	MOVLW	0x02
002848   cfdb     movff   0xfdb, 0         	MOVFF	PLUSW2, r0x00
00284a   f000
                                           ;	.line	231; /home/yeison/Documentos/python/dev/developing/Pinguino11/pinguino/p8/pinguino/core/digitalw.c	switch (port[pin])
00284c   0e54     movlw   0x54             	MOVLW	LOW(_port)
00284e   2400     addwf   0, 0, 0          	ADDWF	r0x00, W
002850   6e01     movwf   0x1, 0           	MOVWF	r0x01
002852   6a02     clrf    0x2, 0           	CLRF	r0x02
002854   0e23     movlw   0x23             	MOVLW	HIGH(_port)
002856   2202     addwfc  0x2, 0x1, 0      	ADDWFC	r0x02, F
002858   6a03     clrf    0x3, 0           	CLRF	r0x03
00285a   0e00     movlw   0                	MOVLW	UPPER(_port)
00285c   2203     addwfc  0x3, 0x1, 0      	ADDWFC	r0x03, F
00285e   c001     movff   0x1, 0xff6       	MOVFF	r0x01, TBLPTRL
002860   fff6
002862   c002     movff   0x2, 0xff7       	MOVFF	r0x02, TBLPTRH
002864   fff7
002866   c003     movff   0x3, 0xff8       	MOVFF	r0x03, TBLPTRU
002868   fff8
00286a   0009     tblrd   *+               	TBLRD*+	
00286c   cff5     movff   0xff5, 0x1       	MOVFF	TABLAT, r0x01
00286e   f001
002870   0e05     movlw   0x5              	MOVLW	0x05
002872   5c01     subwf   0x1, 0, 0        	SUBWF	r0x01, W
002874   b0d8     btfsc   0xd8, 0, 0       	BTFSC	STATUS, 0
002876   d09a     bra     0x29ac           	BRA	_00208_DS_
002878   6afa     clrf    0xfa, 0          	CLRF	PCLATH
00287a   6afb     clrf    0xfb, 0          	CLRF	PCLATU
00287c   3401     rlcf    0x1, 0, 0        	RLCF	r0x01, W
00287e   36fa     rlcf    0xfa, 0x1, 0     	RLCF	PCLATH, F
002880   34e8     rlcf    0xe8, 0, 0       	RLCF	WREG, W
002882   36fa     rlcf    0xfa, 0x1, 0     	RLCF	PCLATH, F
002884   0bfc     andlw   0xfc             	ANDLW	0xfc
002886   0f96     addlw   0x96             	ADDLW	LOW(_00230_DS_)
002888   6ee5     movwf   0xe5, 0          	MOVWF	POSTDEC1
00288a   0e28     movlw   0x28             	MOVLW	HIGH(_00230_DS_)
00288c   22fa     addwfc  0xfa, 0x1, 0     	ADDWFC	PCLATH, F
00288e   0e00     movlw   0                	MOVLW	UPPER(_00230_DS_)
002890   22fb     addwfc  0xfb, 0x1, 0     	ADDWFC	PCLATU, F
002892   50e4     movf    0xe4, 0, 0       	MOVF	PREINC1, W
002894   6ef9     movwf   0xf9, 0          	MOVWF	PCL
                                           _00230_DS_:
002896   ef55     goto    0x28aa           	GOTO	_00188_DS_
002898   f014
00289a   ef6f     goto    0x28de           	GOTO	_00192_DS_
00289c   f014
00289e   ef89     goto    0x2912           	GOTO	_00196_DS_
0028a0   f014
0028a2   efa3     goto    0x2946           	GOTO	_00200_DS_
0028a4   f014
0028a6   efbd     goto    0x297a           	GOTO	_00204_DS_
0028a8   f014
                                           _00188_DS_:
                                           ;	.line	233; /home/yeison/Documentos/python/dev/developing/Pinguino11/pinguino/p8/pinguino/core/digitalw.c	case pA: if ((PORTA & mask[pin])!=0) return (1);
0028aa   0e36     movlw   0x36             	MOVLW	LOW(_mask)
0028ac   2400     addwf   0, 0, 0          	ADDWF	r0x00, W
0028ae   6e01     movwf   0x1, 0           	MOVWF	r0x01
0028b0   6a02     clrf    0x2, 0           	CLRF	r0x02
0028b2   0e23     movlw   0x23             	MOVLW	HIGH(_mask)
0028b4   2202     addwfc  0x2, 0x1, 0      	ADDWFC	r0x02, F
0028b6   6a03     clrf    0x3, 0           	CLRF	r0x03
0028b8   0e00     movlw   0                	MOVLW	UPPER(_mask)
0028ba   2203     addwfc  0x3, 0x1, 0      	ADDWFC	r0x03, F
0028bc   c001     movff   0x1, 0xff6       	MOVFF	r0x01, TBLPTRL
0028be   fff6
0028c0   c002     movff   0x2, 0xff7       	MOVFF	r0x02, TBLPTRH
0028c2   fff7
0028c4   c003     movff   0x3, 0xff8       	MOVFF	r0x03, TBLPTRU
0028c6   fff8
0028c8   0009     tblrd   *+               	TBLRD*+	
0028ca   cff5     movff   0xff5, 0x1       	MOVFF	TABLAT, r0x01
0028cc   f001
0028ce   5080     movf    0x80, 0, 0       	MOVF	_PORTA, W
0028d0   1601     andwf   0x1, 0x1, 0      	ANDWF	r0x01, F
0028d2   5001     movf    0x1, 0, 0        	MOVF	r0x01, W
0028d4   e002     bz      0x28da           	BZ	_00190_DS_
0028d6   0e01     movlw   0x1              	MOVLW	0x01
0028d8   d06a     bra     0x29ae           	BRA	_00209_DS_
                                           _00190_DS_:
                                           ;	.line	234; /home/yeison/Documentos/python/dev/developing/Pinguino11/pinguino/p8/pinguino/core/digitalw.c	else return (0);
0028da   6ae8     clrf    0xe8, 0          	CLRF	WREG
0028dc   d068     bra     0x29ae           	BRA	_00209_DS_
                                           _00192_DS_:
                                           ;	.line	236; /home/yeison/Documentos/python/dev/developing/Pinguino11/pinguino/p8/pinguino/core/digitalw.c	case pB: if ((PORTB & mask[pin])!=0) return (1);
0028de   0e36     movlw   0x36             	MOVLW	LOW(_mask)
0028e0   2400     addwf   0, 0, 0          	ADDWF	r0x00, W
0028e2   6e01     movwf   0x1, 0           	MOVWF	r0x01
0028e4   6a02     clrf    0x2, 0           	CLRF	r0x02
0028e6   0e23     movlw   0x23             	MOVLW	HIGH(_mask)
0028e8   2202     addwfc  0x2, 0x1, 0      	ADDWFC	r0x02, F
0028ea   6a03     clrf    0x3, 0           	CLRF	r0x03
0028ec   0e00     movlw   0                	MOVLW	UPPER(_mask)
0028ee   2203     addwfc  0x3, 0x1, 0      	ADDWFC	r0x03, F
0028f0   c001     movff   0x1, 0xff6       	MOVFF	r0x01, TBLPTRL
0028f2   fff6
0028f4   c002     movff   0x2, 0xff7       	MOVFF	r0x02, TBLPTRH
0028f6   fff7
0028f8   c003     movff   0x3, 0xff8       	MOVFF	r0x03, TBLPTRU
0028fa   fff8
0028fc   0009     tblrd   *+               	TBLRD*+	
0028fe   cff5     movff   0xff5, 0x1       	MOVFF	TABLAT, r0x01
002900   f001
002902   5081     movf    0x81, 0, 0       	MOVF	_PORTB, W
002904   1601     andwf   0x1, 0x1, 0      	ANDWF	r0x01, F
002906   5001     movf    0x1, 0, 0        	MOVF	r0x01, W
002908   e002     bz      0x290e           	BZ	_00194_DS_
00290a   0e01     movlw   0x1              	MOVLW	0x01
00290c   d050     bra     0x29ae           	BRA	_00209_DS_
                                           _00194_DS_:
                                           ;	.line	237; /home/yeison/Documentos/python/dev/developing/Pinguino11/pinguino/p8/pinguino/core/digitalw.c	else return (0);
00290e   6ae8     clrf    0xe8, 0          	CLRF	WREG
002910   d04e     bra     0x29ae           	BRA	_00209_DS_
                                           _00196_DS_:
                                           ;	.line	239; /home/yeison/Documentos/python/dev/developing/Pinguino11/pinguino/p8/pinguino/core/digitalw.c	case pC: if ((PORTC & mask[pin])!=0) return (1);
002912   0e36     movlw   0x36             	MOVLW	LOW(_mask)
002914   2400     addwf   0, 0, 0          	ADDWF	r0x00, W
002916   6e01     movwf   0x1, 0           	MOVWF	r0x01
002918   6a02     clrf    0x2, 0           	CLRF	r0x02
00291a   0e23     movlw   0x23             	MOVLW	HIGH(_mask)
00291c   2202     addwfc  0x2, 0x1, 0      	ADDWFC	r0x02, F
00291e   6a03     clrf    0x3, 0           	CLRF	r0x03
002920   0e00     movlw   0                	MOVLW	UPPER(_mask)
002922   2203     addwfc  0x3, 0x1, 0      	ADDWFC	r0x03, F
002924   c001     movff   0x1, 0xff6       	MOVFF	r0x01, TBLPTRL
002926   fff6
002928   c002     movff   0x2, 0xff7       	MOVFF	r0x02, TBLPTRH
00292a   fff7
00292c   c003     movff   0x3, 0xff8       	MOVFF	r0x03, TBLPTRU
00292e   fff8
002930   0009     tblrd   *+               	TBLRD*+	
002932   cff5     movff   0xff5, 0x1       	MOVFF	TABLAT, r0x01
002934   f001
002936   5082     movf    0x82, 0, 0       	MOVF	_PORTC, W
002938   1601     andwf   0x1, 0x1, 0      	ANDWF	r0x01, F
00293a   5001     movf    0x1, 0, 0        	MOVF	r0x01, W
00293c   e002     bz      0x2942           	BZ	_00198_DS_
00293e   0e01     movlw   0x1              	MOVLW	0x01
002940   d036     bra     0x29ae           	BRA	_00209_DS_
                                           _00198_DS_:
                                           ;	.line	240; /home/yeison/Documentos/python/dev/developing/Pinguino11/pinguino/p8/pinguino/core/digitalw.c	else return (0);
002942   6ae8     clrf    0xe8, 0          	CLRF	WREG
002944   d034     bra     0x29ae           	BRA	_00209_DS_
                                           _00200_DS_:
                                           ;	.line	243; /home/yeison/Documentos/python/dev/developing/Pinguino11/pinguino/p8/pinguino/core/digitalw.c	case pD: if ((PORTD & mask[pin])!=0) return (1);
002946   0e36     movlw   0x36             	MOVLW	LOW(_mask)
002948   2400     addwf   0, 0, 0          	ADDWF	r0x00, W
00294a   6e01     movwf   0x1, 0           	MOVWF	r0x01
00294c   6a02     clrf    0x2, 0           	CLRF	r0x02
00294e   0e23     movlw   0x23             	MOVLW	HIGH(_mask)
002950   2202     addwfc  0x2, 0x1, 0      	ADDWFC	r0x02, F
002952   6a03     clrf    0x3, 0           	CLRF	r0x03
002954   0e00     movlw   0                	MOVLW	UPPER(_mask)
002956   2203     addwfc  0x3, 0x1, 0      	ADDWFC	r0x03, F
002958   c001     movff   0x1, 0xff6       	MOVFF	r0x01, TBLPTRL
00295a   fff6
00295c   c002     movff   0x2, 0xff7       	MOVFF	r0x02, TBLPTRH
00295e   fff7
002960   c003     movff   0x3, 0xff8       	MOVFF	r0x03, TBLPTRU
002962   fff8
002964   0009     tblrd   *+               	TBLRD*+	
002966   cff5     movff   0xff5, 0x1       	MOVFF	TABLAT, r0x01
002968   f001
00296a   5083     movf    0x83, 0, 0       	MOVF	_PORTD, W
00296c   1601     andwf   0x1, 0x1, 0      	ANDWF	r0x01, F
00296e   5001     movf    0x1, 0, 0        	MOVF	r0x01, W
002970   e002     bz      0x2976           	BZ	_00202_DS_
002972   0e01     movlw   0x1              	MOVLW	0x01
002974   d01c     bra     0x29ae           	BRA	_00209_DS_
                                           _00202_DS_:
                                           ;	.line	244; /home/yeison/Documentos/python/dev/developing/Pinguino11/pinguino/p8/pinguino/core/digitalw.c	else return (0);
002976   6ae8     clrf    0xe8, 0          	CLRF	WREG
002978   d01a     bra     0x29ae           	BRA	_00209_DS_
                                           _00204_DS_:
                                           ;	.line	246; /home/yeison/Documentos/python/dev/developing/Pinguino11/pinguino/p8/pinguino/core/digitalw.c	case pE: if ((PORTE & mask[pin])!=0) return (1);
00297a   6a01     clrf    0x1, 0           	CLRF	r0x01
00297c   6a02     clrf    0x2, 0           	CLRF	r0x02
00297e   0e36     movlw   0x36             	MOVLW	LOW(_mask)
002980   2600     addwf   0, 0x1, 0        	ADDWF	r0x00, F
002982   0e23     movlw   0x23             	MOVLW	HIGH(_mask)
002984   2201     addwfc  0x1, 0x1, 0      	ADDWFC	r0x01, F
002986   0e00     movlw   0                	MOVLW	UPPER(_mask)
002988   2202     addwfc  0x2, 0x1, 0      	ADDWFC	r0x02, F
00298a   c000     movff   0, 0xff6         	MOVFF	r0x00, TBLPTRL
00298c   fff6
00298e   c001     movff   0x1, 0xff7       	MOVFF	r0x01, TBLPTRH
002990   fff7
002992   c002     movff   0x2, 0xff8       	MOVFF	r0x02, TBLPTRU
002994   fff8
002996   0009     tblrd   *+               	TBLRD*+	
002998   cff5     movff   0xff5, 0         	MOVFF	TABLAT, r0x00
00299a   f000
00299c   5084     movf    0x84, 0, 0       	MOVF	_PORTE, W
00299e   1600     andwf   0, 0x1, 0        	ANDWF	r0x00, F
0029a0   5000     movf    0, 0, 0          	MOVF	r0x00, W
0029a2   e002     bz      0x29a8           	BZ	_00206_DS_
0029a4   0e01     movlw   0x1              	MOVLW	0x01
0029a6   d003     bra     0x29ae           	BRA	_00209_DS_
                                           _00206_DS_:
                                           ;	.line	247; /home/yeison/Documentos/python/dev/developing/Pinguino11/pinguino/p8/pinguino/core/digitalw.c	else return (0);
0029a8   6ae8     clrf    0xe8, 0          	CLRF	WREG
0029aa   d001     bra     0x29ae           	BRA	_00209_DS_
                                           _00208_DS_:
                                           ;	.line	251; /home/yeison/Documentos/python/dev/developing/Pinguino11/pinguino/p8/pinguino/core/digitalw.c	return (0);
0029ac   6ae8     clrf    0xe8, 0          	CLRF	WREG
                                           _00209_DS_:
0029ae   cfe4     movff   0xfe4, 0x3       	MOVFF	PREINC1, r0x03
0029b0   f003
0029b2   cfe4     movff   0xfe4, 0x2       	MOVFF	PREINC1, r0x02
0029b4   f002
0029b6   cfe4     movff   0xfe4, 0x1       	MOVFF	PREINC1, r0x01
0029b8   f001
0029ba   cfe4     movff   0xfe4, 0         	MOVFF	PREINC1, r0x00
0029bc   f000
0029be   cfe4     movff   0xfe4, 0xfd9     	MOVFF	PREINC1, FSR2L
0029c0   ffd9
0029c2   0012     return  0                	RETURN	
                                           
                                           ; ; Starting pCode block
                                           S_main__digitalwrite	code
                                           _digitalwrite:
                                           ;	.line	189; /home/yeison/Documentos/python/dev/developing/Pinguino11/pinguino/p8/pinguino/core/digitalw.c	void digitalwrite(unsigned char pin, unsigned char state)
0025d0   cfd9     movff   0xfd9, 0xfe5     	MOVFF	FSR2L, POSTDEC1
0025d2   ffe5
0025d4   cfe1     movff   0xfe1, 0xfd9     	MOVFF	FSR1L, FSR2L
0025d6   ffd9
0025d8   c000     movff   0, 0xfe5         	MOVFF	r0x00, POSTDEC1
0025da   ffe5
0025dc   c001     movff   0x1, 0xfe5       	MOVFF	r0x01, POSTDEC1
0025de   ffe5
0025e0   c002     movff   0x2, 0xfe5       	MOVFF	r0x02, POSTDEC1
0025e2   ffe5
0025e4   c003     movff   0x3, 0xfe5       	MOVFF	r0x03, POSTDEC1
0025e6   ffe5
0025e8   c004     movff   0x4, 0xfe5       	MOVFF	r0x04, POSTDEC1
0025ea   ffe5
0025ec   0e02     movlw   0x2              	MOVLW	0x02
0025ee   cfdb     movff   0xfdb, 0         	MOVFF	PLUSW2, r0x00
0025f0   f000
0025f2   0e03     movlw   0x3              	MOVLW	0x03
0025f4   cfdb     movff   0xfdb, 0x1       	MOVFF	PLUSW2, r0x01
0025f6   f001
                                           ;	.line	191; /home/yeison/Documentos/python/dev/developing/Pinguino11/pinguino/p8/pinguino/core/digitalw.c	switch (port[pin])
0025f8   0e54     movlw   0x54             	MOVLW	LOW(_port)
0025fa   2400     addwf   0, 0, 0          	ADDWF	r0x00, W
0025fc   6e02     movwf   0x2, 0           	MOVWF	r0x02
0025fe   6a03     clrf    0x3, 0           	CLRF	r0x03
002600   0e23     movlw   0x23             	MOVLW	HIGH(_port)
002602   2203     addwfc  0x3, 0x1, 0      	ADDWFC	r0x03, F
002604   6a04     clrf    0x4, 0           	CLRF	r0x04
002606   0e00     movlw   0                	MOVLW	UPPER(_port)
002608   2204     addwfc  0x4, 0x1, 0      	ADDWFC	r0x04, F
00260a   c002     movff   0x2, 0xff6       	MOVFF	r0x02, TBLPTRL
00260c   fff6
00260e   c003     movff   0x3, 0xff7       	MOVFF	r0x03, TBLPTRH
002610   fff7
002612   c004     movff   0x4, 0xff8       	MOVFF	r0x04, TBLPTRU
002614   fff8
002616   0009     tblrd   *+               	TBLRD*+	
002618   cff5     movff   0xff5, 0x2       	MOVFF	TABLAT, r0x02
00261a   f002
00261c   0e05     movlw   0x5              	MOVLW	0x05
00261e   5c02     subwf   0x2, 0, 0        	SUBWF	r0x02, W
002620   b0d8     btfsc   0xd8, 0, 0       	BTFSC	STATUS, 0
002622   d0f8     bra     0x2814           	BRA	_00162_DS_
002624   6afa     clrf    0xfa, 0          	CLRF	PCLATH
002626   6afb     clrf    0xfb, 0          	CLRF	PCLATU
002628   3402     rlcf    0x2, 0, 0        	RLCF	r0x02, W
00262a   36fa     rlcf    0xfa, 0x1, 0     	RLCF	PCLATH, F
00262c   34e8     rlcf    0xe8, 0, 0       	RLCF	WREG, W
00262e   36fa     rlcf    0xfa, 0x1, 0     	RLCF	PCLATH, F
002630   0bfc     andlw   0xfc             	ANDLW	0xfc
002632   0f42     addlw   0x42             	ADDLW	LOW(_00183_DS_)
002634   6ee5     movwf   0xe5, 0          	MOVWF	POSTDEC1
002636   0e26     movlw   0x26             	MOVLW	HIGH(_00183_DS_)
002638   22fa     addwfc  0xfa, 0x1, 0     	ADDWFC	PCLATH, F
00263a   0e00     movlw   0                	MOVLW	UPPER(_00183_DS_)
00263c   22fb     addwfc  0xfb, 0x1, 0     	ADDWFC	PCLATU, F
00263e   50e4     movf    0xe4, 0, 0       	MOVF	PREINC1, W
002640   6ef9     movwf   0xf9, 0          	MOVWF	PCL
                                           _00183_DS_:
002642   ef2b     goto    0x2656           	GOTO	_00141_DS_
002644   f013
002646   ef58     goto    0x26b0           	GOTO	_00145_DS_
002648   f013
00264a   ef85     goto    0x270a           	GOTO	_00149_DS_
00264c   f013
00264e   efb2     goto    0x2764           	GOTO	_00153_DS_
002650   f013
002652   efdf     goto    0x27be           	GOTO	_00157_DS_
002654   f013
                                           _00141_DS_:
                                           ;	.line	193; /home/yeison/Documentos/python/dev/developing/Pinguino11/pinguino/p8/pinguino/core/digitalw.c	case pA: if (state) LATA=LATA | mask[pin];
002656   5001     movf    0x1, 0, 0        	MOVF	r0x01, W
002658   e015     bz      0x2684           	BZ	_00143_DS_
00265a   0e36     movlw   0x36             	MOVLW	LOW(_mask)
00265c   2400     addwf   0, 0, 0          	ADDWF	r0x00, W
00265e   6e02     movwf   0x2, 0           	MOVWF	r0x02
002660   6a03     clrf    0x3, 0           	CLRF	r0x03
002662   0e23     movlw   0x23             	MOVLW	HIGH(_mask)
002664   2203     addwfc  0x3, 0x1, 0      	ADDWFC	r0x03, F
002666   6a04     clrf    0x4, 0           	CLRF	r0x04
002668   0e00     movlw   0                	MOVLW	UPPER(_mask)
00266a   2204     addwfc  0x4, 0x1, 0      	ADDWFC	r0x04, F
00266c   c002     movff   0x2, 0xff6       	MOVFF	r0x02, TBLPTRL
00266e   fff6
002670   c003     movff   0x3, 0xff7       	MOVFF	r0x03, TBLPTRH
002672   fff7
002674   c004     movff   0x4, 0xff8       	MOVFF	r0x04, TBLPTRU
002676   fff8
002678   0009     tblrd   *+               	TBLRD*+	
00267a   cff5     movff   0xff5, 0x2       	MOVFF	TABLAT, r0x02
00267c   f002
00267e   5002     movf    0x2, 0, 0        	MOVF	r0x02, W
002680   1289     iorwf   0x89, 0x1, 0     	IORWF	_LATA, F
002682   d0c8     bra     0x2814           	BRA	_00162_DS_
                                           _00143_DS_:
                                           ;	.line	194; /home/yeison/Documentos/python/dev/developing/Pinguino11/pinguino/p8/pinguino/core/digitalw.c	else LATA=LATA & (255-mask[pin]);
002684   0e36     movlw   0x36             	MOVLW	LOW(_mask)
002686   2400     addwf   0, 0, 0          	ADDWF	r0x00, W
002688   6e02     movwf   0x2, 0           	MOVWF	r0x02
00268a   6a03     clrf    0x3, 0           	CLRF	r0x03
00268c   0e23     movlw   0x23             	MOVLW	HIGH(_mask)
00268e   2203     addwfc  0x3, 0x1, 0      	ADDWFC	r0x03, F
002690   6a04     clrf    0x4, 0           	CLRF	r0x04
002692   0e00     movlw   0                	MOVLW	UPPER(_mask)
002694   2204     addwfc  0x4, 0x1, 0      	ADDWFC	r0x04, F
002696   c002     movff   0x2, 0xff6       	MOVFF	r0x02, TBLPTRL
002698   fff6
00269a   c003     movff   0x3, 0xff7       	MOVFF	r0x03, TBLPTRH
00269c   fff7
00269e   c004     movff   0x4, 0xff8       	MOVFF	r0x04, TBLPTRU
0026a0   fff8
0026a2   0009     tblrd   *+               	TBLRD*+	
0026a4   cff5     movff   0xff5, 0x2       	MOVFF	TABLAT, r0x02
0026a6   f002
0026a8   5002     movf    0x2, 0, 0        	MOVF	r0x02, W
0026aa   08ff     sublw   0xff             	SUBLW	0xff
                                           ; #	MOVWF	r0x02
                                           ; #	MOVF	r0x02, W
0026ac   1689     andwf   0x89, 0x1, 0     	ANDWF	_LATA, F
                                           ;	.line	195; /home/yeison/Documentos/python/dev/developing/Pinguino11/pinguino/p8/pinguino/core/digitalw.c	break;
0026ae   d0b2     bra     0x2814           	BRA	_00162_DS_
                                           _00145_DS_:
                                           ;	.line	196; /home/yeison/Documentos/python/dev/developing/Pinguino11/pinguino/p8/pinguino/core/digitalw.c	case pB: if (state) LATB=LATB | mask[pin]; 
0026b0   5001     movf    0x1, 0, 0        	MOVF	r0x01, W
0026b2   e015     bz      0x26de           	BZ	_00147_DS_
0026b4   0e36     movlw   0x36             	MOVLW	LOW(_mask)
0026b6   2400     addwf   0, 0, 0          	ADDWF	r0x00, W
0026b8   6e02     movwf   0x2, 0           	MOVWF	r0x02
0026ba   6a03     clrf    0x3, 0           	CLRF	r0x03
0026bc   0e23     movlw   0x23             	MOVLW	HIGH(_mask)
0026be   2203     addwfc  0x3, 0x1, 0      	ADDWFC	r0x03, F
0026c0   6a04     clrf    0x4, 0           	CLRF	r0x04
0026c2   0e00     movlw   0                	MOVLW	UPPER(_mask)
0026c4   2204     addwfc  0x4, 0x1, 0      	ADDWFC	r0x04, F
0026c6   c002     movff   0x2, 0xff6       	MOVFF	r0x02, TBLPTRL
0026c8   fff6
0026ca   c003     movff   0x3, 0xff7       	MOVFF	r0x03, TBLPTRH
0026cc   fff7
0026ce   c004     movff   0x4, 0xff8       	MOVFF	r0x04, TBLPTRU
0026d0   fff8
0026d2   0009     tblrd   *+               	TBLRD*+	
0026d4   cff5     movff   0xff5, 0x2       	MOVFF	TABLAT, r0x02
0026d6   f002
0026d8   5002     movf    0x2, 0, 0        	MOVF	r0x02, W
0026da   128a     iorwf   0x8a, 0x1, 0     	IORWF	_LATB, F
0026dc   d09b     bra     0x2814           	BRA	_00162_DS_
                                           _00147_DS_:
                                           ;	.line	197; /home/yeison/Documentos/python/dev/developing/Pinguino11/pinguino/p8/pinguino/core/digitalw.c	else LATB=LATB & (255-mask[pin]);
0026de   0e36     movlw   0x36             	MOVLW	LOW(_mask)
0026e0   2400     addwf   0, 0, 0          	ADDWF	r0x00, W
0026e2   6e02     movwf   0x2, 0           	MOVWF	r0x02
0026e4   6a03     clrf    0x3, 0           	CLRF	r0x03
0026e6   0e23     movlw   0x23             	MOVLW	HIGH(_mask)
0026e8   2203     addwfc  0x3, 0x1, 0      	ADDWFC	r0x03, F
0026ea   6a04     clrf    0x4, 0           	CLRF	r0x04
0026ec   0e00     movlw   0                	MOVLW	UPPER(_mask)
0026ee   2204     addwfc  0x4, 0x1, 0      	ADDWFC	r0x04, F
0026f0   c002     movff   0x2, 0xff6       	MOVFF	r0x02, TBLPTRL
0026f2   fff6
0026f4   c003     movff   0x3, 0xff7       	MOVFF	r0x03, TBLPTRH
0026f6   fff7
0026f8   c004     movff   0x4, 0xff8       	MOVFF	r0x04, TBLPTRU
0026fa   fff8
0026fc   0009     tblrd   *+               	TBLRD*+	
0026fe   cff5     movff   0xff5, 0x2       	MOVFF	TABLAT, r0x02
002700   f002
002702   5002     movf    0x2, 0, 0        	MOVF	r0x02, W
002704   08ff     sublw   0xff             	SUBLW	0xff
                                           ; #	MOVWF	r0x02
                                           ; #	MOVF	r0x02, W
002706   168a     andwf   0x8a, 0x1, 0     	ANDWF	_LATB, F
                                           ;	.line	198; /home/yeison/Documentos/python/dev/developing/Pinguino11/pinguino/p8/pinguino/core/digitalw.c	break;
002708   d085     bra     0x2814           	BRA	_00162_DS_
                                           _00149_DS_:
                                           ;	.line	199; /home/yeison/Documentos/python/dev/developing/Pinguino11/pinguino/p8/pinguino/core/digitalw.c	case pC: if (state) LATC=LATC | mask[pin];
00270a   5001     movf    0x1, 0, 0        	MOVF	r0x01, W
00270c   e015     bz      0x2738           	BZ	_00151_DS_
00270e   0e36     movlw   0x36             	MOVLW	LOW(_mask)
002710   2400     addwf   0, 0, 0          	ADDWF	r0x00, W
002712   6e02     movwf   0x2, 0           	MOVWF	r0x02
002714   6a03     clrf    0x3, 0           	CLRF	r0x03
002716   0e23     movlw   0x23             	MOVLW	HIGH(_mask)
002718   2203     addwfc  0x3, 0x1, 0      	ADDWFC	r0x03, F
00271a   6a04     clrf    0x4, 0           	CLRF	r0x04
00271c   0e00     movlw   0                	MOVLW	UPPER(_mask)
00271e   2204     addwfc  0x4, 0x1, 0      	ADDWFC	r0x04, F
002720   c002     movff   0x2, 0xff6       	MOVFF	r0x02, TBLPTRL
002722   fff6
002724   c003     movff   0x3, 0xff7       	MOVFF	r0x03, TBLPTRH
002726   fff7
002728   c004     movff   0x4, 0xff8       	MOVFF	r0x04, TBLPTRU
00272a   fff8
00272c   0009     tblrd   *+               	TBLRD*+	
00272e   cff5     movff   0xff5, 0x2       	MOVFF	TABLAT, r0x02
002730   f002
002732   5002     movf    0x2, 0, 0        	MOVF	r0x02, W
002734   128b     iorwf   0x8b, 0x1, 0     	IORWF	_LATC, F
002736   d06e     bra     0x2814           	BRA	_00162_DS_
                                           _00151_DS_:
                                           ;	.line	200; /home/yeison/Documentos/python/dev/developing/Pinguino11/pinguino/p8/pinguino/core/digitalw.c	else LATC=LATC & (255-mask[pin]);
002738   0e36     movlw   0x36             	MOVLW	LOW(_mask)
00273a   2400     addwf   0, 0, 0          	ADDWF	r0x00, W
00273c   6e02     movwf   0x2, 0           	MOVWF	r0x02
00273e   6a03     clrf    0x3, 0           	CLRF	r0x03
002740   0e23     movlw   0x23             	MOVLW	HIGH(_mask)
002742   2203     addwfc  0x3, 0x1, 0      	ADDWFC	r0x03, F
002744   6a04     clrf    0x4, 0           	CLRF	r0x04
002746   0e00     movlw   0                	MOVLW	UPPER(_mask)
002748   2204     addwfc  0x4, 0x1, 0      	ADDWFC	r0x04, F
00274a   c002     movff   0x2, 0xff6       	MOVFF	r0x02, TBLPTRL
00274c   fff6
00274e   c003     movff   0x3, 0xff7       	MOVFF	r0x03, TBLPTRH
002750   fff7
002752   c004     movff   0x4, 0xff8       	MOVFF	r0x04, TBLPTRU
002754   fff8
002756   0009     tblrd   *+               	TBLRD*+	
002758   cff5     movff   0xff5, 0x2       	MOVFF	TABLAT, r0x02
00275a   f002
00275c   5002     movf    0x2, 0, 0        	MOVF	r0x02, W
00275e   08ff     sublw   0xff             	SUBLW	0xff
                                           ; #	MOVWF	r0x02
                                           ; #	MOVF	r0x02, W
002760   168b     andwf   0x8b, 0x1, 0     	ANDWF	_LATC, F
                                           ;	.line	201; /home/yeison/Documentos/python/dev/developing/Pinguino11/pinguino/p8/pinguino/core/digitalw.c	break;
002762   d058     bra     0x2814           	BRA	_00162_DS_
                                           _00153_DS_:
                                           ;	.line	203; /home/yeison/Documentos/python/dev/developing/Pinguino11/pinguino/p8/pinguino/core/digitalw.c	case pD: if (state) LATD=LATD | mask[pin]; 
002764   5001     movf    0x1, 0, 0        	MOVF	r0x01, W
002766   e015     bz      0x2792           	BZ	_00155_DS_
002768   0e36     movlw   0x36             	MOVLW	LOW(_mask)
00276a   2400     addwf   0, 0, 0          	ADDWF	r0x00, W
00276c   6e02     movwf   0x2, 0           	MOVWF	r0x02
00276e   6a03     clrf    0x3, 0           	CLRF	r0x03
002770   0e23     movlw   0x23             	MOVLW	HIGH(_mask)
002772   2203     addwfc  0x3, 0x1, 0      	ADDWFC	r0x03, F
002774   6a04     clrf    0x4, 0           	CLRF	r0x04
002776   0e00     movlw   0                	MOVLW	UPPER(_mask)
002778   2204     addwfc  0x4, 0x1, 0      	ADDWFC	r0x04, F
00277a   c002     movff   0x2, 0xff6       	MOVFF	r0x02, TBLPTRL
00277c   fff6
00277e   c003     movff   0x3, 0xff7       	MOVFF	r0x03, TBLPTRH
002780   fff7
002782   c004     movff   0x4, 0xff8       	MOVFF	r0x04, TBLPTRU
002784   fff8
002786   0009     tblrd   *+               	TBLRD*+	
002788   cff5     movff   0xff5, 0x2       	MOVFF	TABLAT, r0x02
00278a   f002
00278c   5002     movf    0x2, 0, 0        	MOVF	r0x02, W
00278e   128c     iorwf   0x8c, 0x1, 0     	IORWF	_LATD, F
002790   d041     bra     0x2814           	BRA	_00162_DS_
                                           _00155_DS_:
                                           ;	.line	204; /home/yeison/Documentos/python/dev/developing/Pinguino11/pinguino/p8/pinguino/core/digitalw.c	else LATD=LATD & (255-mask[pin]);
002792   0e36     movlw   0x36             	MOVLW	LOW(_mask)
002794   2400     addwf   0, 0, 0          	ADDWF	r0x00, W
002796   6e02     movwf   0x2, 0           	MOVWF	r0x02
002798   6a03     clrf    0x3, 0           	CLRF	r0x03
00279a   0e23     movlw   0x23             	MOVLW	HIGH(_mask)
00279c   2203     addwfc  0x3, 0x1, 0      	ADDWFC	r0x03, F
00279e   6a04     clrf    0x4, 0           	CLRF	r0x04
0027a0   0e00     movlw   0                	MOVLW	UPPER(_mask)
0027a2   2204     addwfc  0x4, 0x1, 0      	ADDWFC	r0x04, F
0027a4   c002     movff   0x2, 0xff6       	MOVFF	r0x02, TBLPTRL
0027a6   fff6
0027a8   c003     movff   0x3, 0xff7       	MOVFF	r0x03, TBLPTRH
0027aa   fff7
0027ac   c004     movff   0x4, 0xff8       	MOVFF	r0x04, TBLPTRU
0027ae   fff8
0027b0   0009     tblrd   *+               	TBLRD*+	
0027b2   cff5     movff   0xff5, 0x2       	MOVFF	TABLAT, r0x02
0027b4   f002
0027b6   5002     movf    0x2, 0, 0        	MOVF	r0x02, W
0027b8   08ff     sublw   0xff             	SUBLW	0xff
                                           ; #	MOVWF	r0x02
                                           ; #	MOVF	r0x02, W
0027ba   168c     andwf   0x8c, 0x1, 0     	ANDWF	_LATD, F
                                           ;	.line	205; /home/yeison/Documentos/python/dev/developing/Pinguino11/pinguino/p8/pinguino/core/digitalw.c	break;
0027bc   d02b     bra     0x2814           	BRA	_00162_DS_
                                           _00157_DS_:
                                           ;	.line	206; /home/yeison/Documentos/python/dev/developing/Pinguino11/pinguino/p8/pinguino/core/digitalw.c	case pE: if (state) LATE=LATE | mask[pin]; 
0027be   5001     movf    0x1, 0, 0        	MOVF	r0x01, W
0027c0   e015     bz      0x27ec           	BZ	_00159_DS_
0027c2   0e36     movlw   0x36             	MOVLW	LOW(_mask)
0027c4   2400     addwf   0, 0, 0          	ADDWF	r0x00, W
0027c6   6e01     movwf   0x1, 0           	MOVWF	r0x01
0027c8   6a02     clrf    0x2, 0           	CLRF	r0x02
0027ca   0e23     movlw   0x23             	MOVLW	HIGH(_mask)
0027cc   2202     addwfc  0x2, 0x1, 0      	ADDWFC	r0x02, F
0027ce   6a03     clrf    0x3, 0           	CLRF	r0x03
0027d0   0e00     movlw   0                	MOVLW	UPPER(_mask)
0027d2   2203     addwfc  0x3, 0x1, 0      	ADDWFC	r0x03, F
0027d4   c001     movff   0x1, 0xff6       	MOVFF	r0x01, TBLPTRL
0027d6   fff6
0027d8   c002     movff   0x2, 0xff7       	MOVFF	r0x02, TBLPTRH
0027da   fff7
0027dc   c003     movff   0x3, 0xff8       	MOVFF	r0x03, TBLPTRU
0027de   fff8
0027e0   0009     tblrd   *+               	TBLRD*+	
0027e2   cff5     movff   0xff5, 0x1       	MOVFF	TABLAT, r0x01
0027e4   f001
0027e6   5001     movf    0x1, 0, 0        	MOVF	r0x01, W
0027e8   128d     iorwf   0x8d, 0x1, 0     	IORWF	_LATE, F
0027ea   d014     bra     0x2814           	BRA	_00162_DS_
                                           _00159_DS_:
                                           ;	.line	207; /home/yeison/Documentos/python/dev/developing/Pinguino11/pinguino/p8/pinguino/core/digitalw.c	else LATE=LATE & (255-mask[pin]);
0027ec   6a01     clrf    0x1, 0           	CLRF	r0x01
0027ee   6a02     clrf    0x2, 0           	CLRF	r0x02
0027f0   0e36     movlw   0x36             	MOVLW	LOW(_mask)
0027f2   2600     addwf   0, 0x1, 0        	ADDWF	r0x00, F
0027f4   0e23     movlw   0x23             	MOVLW	HIGH(_mask)
0027f6   2201     addwfc  0x1, 0x1, 0      	ADDWFC	r0x01, F
0027f8   0e00     movlw   0                	MOVLW	UPPER(_mask)
0027fa   2202     addwfc  0x2, 0x1, 0      	ADDWFC	r0x02, F
0027fc   c000     movff   0, 0xff6         	MOVFF	r0x00, TBLPTRL
0027fe   fff6
002800   c001     movff   0x1, 0xff7       	MOVFF	r0x01, TBLPTRH
002802   fff7
002804   c002     movff   0x2, 0xff8       	MOVFF	r0x02, TBLPTRU
002806   fff8
002808   0009     tblrd   *+               	TBLRD*+	
00280a   cff5     movff   0xff5, 0         	MOVFF	TABLAT, r0x00
00280c   f000
00280e   5000     movf    0, 0, 0          	MOVF	r0x00, W
002810   08ff     sublw   0xff             	SUBLW	0xff
                                           ; #	MOVWF	r0x00
                                           ; #	MOVF	r0x00, W
002812   168d     andwf   0x8d, 0x1, 0     	ANDWF	_LATE, F
                                           _00162_DS_:
                                           ;	.line	210; /home/yeison/Documentos/python/dev/developing/Pinguino11/pinguino/p8/pinguino/core/digitalw.c	}
002814   cfe4     movff   0xfe4, 0x4       	MOVFF	PREINC1, r0x04
002816   f004
002818   cfe4     movff   0xfe4, 0x3       	MOVFF	PREINC1, r0x03
00281a   f003
00281c   cfe4     movff   0xfe4, 0x2       	MOVFF	PREINC1, r0x02
00281e   f002
002820   cfe4     movff   0xfe4, 0x1       	MOVFF	PREINC1, r0x01
002822   f001
002824   cfe4     movff   0xfe4, 0         	MOVFF	PREINC1, r0x00
002826   f000
002828   cfe4     movff   0xfe4, 0xfd9     	MOVFF	PREINC1, FSR2L
00282a   ffd9
00282c   0012     return  0                	RETURN	
                                           
                                           ; ; Starting pCode block
                                           S_main__Delayus	code
                                           _Delayus:
                                           ;	.line	86; /home/yeison/Documentos/python/dev/developing/Pinguino11/pinguino/p8/pinguino/core/delay.c	void Delayus(unsigned int microseconds)
002ab2   cfd9     movff   0xfd9, 0xfe5     	MOVFF	FSR2L, POSTDEC1
002ab4   ffe5
002ab6   cfe1     movff   0xfe1, 0xfd9     	MOVFF	FSR1L, FSR2L
002ab8   ffd9
002aba   c000     movff   0, 0xfe5         	MOVFF	r0x00, POSTDEC1
002abc   ffe5
002abe   c001     movff   0x1, 0xfe5       	MOVFF	r0x01, POSTDEC1
002ac0   ffe5
002ac2   c002     movff   0x2, 0xfe5       	MOVFF	r0x02, POSTDEC1
002ac4   ffe5
002ac6   c003     movff   0x3, 0xfe5       	MOVFF	r0x03, POSTDEC1
002ac8   ffe5
002aca   0e02     movlw   0x2              	MOVLW	0x02
002acc   cfdb     movff   0xfdb, 0         	MOVFF	PLUSW2, r0x00
002ace   f000
002ad0   0e03     movlw   0x3              	MOVLW	0x03
002ad2   cfdb     movff   0xfdb, 0x1       	MOVFF	PLUSW2, r0x01
002ad4   f001
                                           ;	.line	90; /home/yeison/Documentos/python/dev/developing/Pinguino11/pinguino/p8/pinguino/core/delay.c	for (i=0; i<microseconds; i++)
002ad6   6a02     clrf    0x2, 0           	CLRF	r0x02
002ad8   6a03     clrf    0x3, 0           	CLRF	r0x03
                                           _00125_DS_:
002ada   5001     movf    0x1, 0, 0        	MOVF	r0x01, W
002adc   5c03     subwf   0x3, 0, 0        	SUBWF	r0x03, W
002ade   e102     bnz     0x2ae4           	BNZ	_00136_DS_
002ae0   5000     movf    0, 0, 0          	MOVF	r0x00, W
002ae2   5c02     subwf   0x2, 0, 0        	SUBWF	r0x02, W
                                           _00136_DS_:
002ae4   e203     bc      0x2aec           	BC	_00127_DS_
002ae6   4a02     infsnz  0x2, 0x1, 0      	INFSNZ	r0x02, F
002ae8   2a03     incf    0x3, 0x1, 0      	INCF	r0x03, F
002aea   d7f7     bra     0x2ada           	BRA	_00125_DS_
                                           _00127_DS_:
002aec   cfe4     movff   0xfe4, 0x3       	MOVFF	PREINC1, r0x03
002aee   f003
002af0   cfe4     movff   0xfe4, 0x2       	MOVFF	PREINC1, r0x02
002af2   f002
002af4   cfe4     movff   0xfe4, 0x1       	MOVFF	PREINC1, r0x01
002af6   f001
002af8   cfe4     movff   0xfe4, 0         	MOVFF	PREINC1, r0x00
002afa   f000
002afc   cfe4     movff   0xfe4, 0xfd9     	MOVFF	PREINC1, FSR2L
002afe   ffd9
002b00   0012     return  0                	RETURN	
                                           
                                           ; ; Starting pCode block
                                           S_main__Delayms	code
                                           _Delayms:
                                           ;	.line	78; /home/yeison/Documentos/python/dev/developing/Pinguino11/pinguino/p8/pinguino/core/delay.c	void Delayms(unsigned int milliseconds)
002a5c   cfd9     movff   0xfd9, 0xfe5     	MOVFF	FSR2L, POSTDEC1
002a5e   ffe5
002a60   cfe1     movff   0xfe1, 0xfd9     	MOVFF	FSR1L, FSR2L
002a62   ffd9
002a64   c000     movff   0, 0xfe5         	MOVFF	r0x00, POSTDEC1
002a66   ffe5
002a68   c001     movff   0x1, 0xfe5       	MOVFF	r0x01, POSTDEC1
002a6a   ffe5
002a6c   c002     movff   0x2, 0xfe5       	MOVFF	r0x02, POSTDEC1
002a6e   ffe5
002a70   c003     movff   0x3, 0xfe5       	MOVFF	r0x03, POSTDEC1
002a72   ffe5
002a74   0e02     movlw   0x2              	MOVLW	0x02
002a76   cfdb     movff   0xfdb, 0         	MOVFF	PLUSW2, r0x00
002a78   f000
002a7a   0e03     movlw   0x3              	MOVLW	0x03
002a7c   cfdb     movff   0xfdb, 0x1       	MOVFF	PLUSW2, r0x01
002a7e   f001
                                           ;	.line	82; /home/yeison/Documentos/python/dev/developing/Pinguino11/pinguino/p8/pinguino/core/delay.c	for (i=0; i<milliseconds; i++)
002a80   6a02     clrf    0x2, 0           	CLRF	r0x02
002a82   6a03     clrf    0x3, 0           	CLRF	r0x03
                                           _00107_DS_:
002a84   5001     movf    0x1, 0, 0        	MOVF	r0x01, W
002a86   5c03     subwf   0x3, 0, 0        	SUBWF	r0x03, W
002a88   e102     bnz     0x2a8e           	BNZ	_00118_DS_
002a8a   5000     movf    0, 0, 0          	MOVF	r0x00, W
002a8c   5c02     subwf   0x2, 0, 0        	SUBWF	r0x02, W
                                           _00118_DS_:
002a8e   e206     bc      0x2a9c           	BC	_00109_DS_
                                           ;	.line	83; /home/yeison/Documentos/python/dev/developing/Pinguino11/pinguino/p8/pinguino/core/delay.c	delay1ktcy(12);
002a90   0e0c     movlw   0xc              	MOVLW	0x0c
002a92   ec39     call    0x72, 0          	CALL	_delay1ktcy
002a94   f000
                                           ;	.line	82; /home/yeison/Documentos/python/dev/developing/Pinguino11/pinguino/p8/pinguino/core/delay.c	for (i=0; i<milliseconds; i++)
002a96   4a02     infsnz  0x2, 0x1, 0      	INFSNZ	r0x02, F
002a98   2a03     incf    0x3, 0x1, 0      	INCF	r0x03, F
002a9a   d7f4     bra     0x2a84           	BRA	_00107_DS_
                                           _00109_DS_:
002a9c   cfe4     movff   0xfe4, 0x3       	MOVFF	PREINC1, r0x03
002a9e   f003
002aa0   cfe4     movff   0xfe4, 0x2       	MOVFF	PREINC1, r0x02
002aa2   f002
002aa4   cfe4     movff   0xfe4, 0x1       	MOVFF	PREINC1, r0x01
002aa6   f001
002aa8   cfe4     movff   0xfe4, 0         	MOVFF	PREINC1, r0x00
002aaa   f000
002aac   cfe4     movff   0xfe4, 0xfd9     	MOVFF	PREINC1, FSR2L
002aae   ffd9
002ab0   0012     return  0                	RETURN	
                                           
                                           ; ; Starting pCode block for Ival
                                           	code
                                           _mask:
002336   0201     mulwf   0x1, 0           	DB	0x01, 0x02, 0x04, 0x08, 0x10, 0x20, 0x40, 0x80, 0x40, 0x80, 0x01, 0x02
002338   0804     sublw   0x4              
00233a   2010     addwfc  0x10, 0, 0       
00233c   8040     bsf     0x40, 0, 0       
00233e   8040     bsf     0x40, 0, 0       
002340   0201     mulwf   0x1, 0           
002342   0104     movlb   0x4              	DB	0x04, 0x01, 0x02, 0x04, 0x08, 0x20, 0x01, 0x02, 0x04, 0x01, 0x02, 0x04
002344   0402     decf    0x2, 0, 0        
002346   2008     addwfc  0x8, 0, 0        
002348   0201     mulwf   0x1, 0           
00234a   0104     movlb   0x4              
00234c   0402     decf    0x2, 0, 0        
00234e   1008     iorwf   0x8, 0, 0        	DB	0x08, 0x10, 0x20, 0x40, 0x80, 0x10
002350   4020     rrncf   0x20, 0, 0       
002352   1080     iorwf   0x80, 0, 0       
                                           ; ; Starting pCode block for Ival
                                           _port:
002354   0101     movlb   0x1              	DB	0x01, 0x01, 0x01, 0x01, 0x01, 0x01, 0x01, 0x01, 0x02, 0x02, 0x02, 0x02
002356   0101     movlb   0x1              
002358   0101     movlb   0x1              
00235a   0101     movlb   0x1              
00235c   0202     mulwf   0x2, 0           
00235e   0202     mulwf   0x2, 0           
002360   0002     dw      0x2              	DB	0x02, 0x00, 0x00, 0x00, 0x00, 0x00, 0x04, 0x04, 0x04, 0x03, 0x03, 0x03
002362   0000     nop                      
002364   0000     nop                      
002366   0404     decf    0x4, 0, 0        
002368   0304     mulwf   0x4, 0x1         
00236a   0303     mulwf   0x3, 0x1         
00236c   0303     mulwf   0x3, 0x1         	DB	0x03, 0x03, 0x03, 0x03, 0x03, 0x00
00236e   0303     mulwf   0x3, 0x1         
002370   0003     sleep                    
                                           
                                           
                                           ; Statistics:
                                           ; code size:	 2036 (0x07f4) bytes ( 1.55%)
                                           ;           	 1018 (0x03fa) words
                                           ; udata size:	    0 (0x0000) bytes ( 0.00%)
                                           ; access size:	    5 (0x0005) bytes
                                           
                                           
                                           	end
