gplink-1.2.0 #983 (Jul 12 2013)
Copyright (c) 1998-2013 gputils project
Listing File Generated: 1-17-2014  08:51:29
 
 
Address  Value    Disassembly              Source
-------  -----    -----------              ------
                                           ;--------------------------------------------------------
                                           ; File Created by SDCC : free open source ANSI-C Compiler
                                           ; Version 3.2.1 #8447 (Jul 12 2013) (Linux)
                                           ; This file was generated Fri Jan 17 08:51:28 2014
                                           ;--------------------------------------------------------
                                           ; PIC16 port for the Microchip 16-bit core micros
                                           ;--------------------------------------------------------
                                           	list	p=18f47j53
                                           	radix	dec
                                           
                                           
                                           ;--------------------------------------------------------
                                           ; public variables in this module
                                           ;--------------------------------------------------------
                                           	global	_hidRxLen
                                           	global	_hidProtocol
                                           	global	_hidIdleRate
                                           	global	_HIDPostProcess
                                           	global	_deviceAddress
                                           	global	___uflags
                                           	global	__entry
                                           	global	__startup
                                           	global	_EnableUSBModule
                                           	global	_ProcessUSBTransactions
                                           	global	_ProcessCDCRequest
                                           	global	_CDCgets
                                           	global	_CDCInitEndpoint
                                           	global	_I2C_master
                                           	global	_I2C_slave
                                           	global	_I2C_init
                                           	global	_I2C_write
                                           	global	_I2C_read
                                           	global	_I2C_wait
                                           	global	_I2C_start
                                           	global	_I2C_stop
                                           	global	_I2C_restart
                                           	global	_I2C_sendAck
                                           	global	_I2C_sendNack
                                           	global	_main
                                           	global	_CONTROL_LINE
                                           	global	_deviceState
                                           	global	_remoteWakeup
                                           	global	_selfPowered
                                           	global	_currentConfiguration
                                           	global	_ctrlTransferStage
                                           	global	_requestHandled
                                           	global	_outPtr
                                           	global	_inPtr
                                           	global	_wCount
                                           	global	_ep_bdt
                                           	global	_SetupPacket
                                           	global	_controlTransferBuffer
                                           	global	_CDCControlBuffer
                                           	global	_CDCRxBuffer
                                           	global	_CDCTxBuffer
                                           	global	_line_config
                                           	global	_zlp
                                           	global	__cdc_buffer
                                           	global	_i2cAddr
                                           	global	_MemoryAddr
                                           	global	_ProcessStandardRequest
                                           	global	_InDataStage
                                           	global	_OutDataStage
                                           	global	_SetupStage
                                           	global	_WaitForSetupStage
                                           	global	_ProcessControlTransfer
                                           	global	_UnSuspend
                                           	global	_StartOfFrame
                                           	global	_Stall
                                           	global	_Suspend
                                           	global	_BusReset
                                           	global	_CDCputs
                                           	global	_Delayms
                                           	global	_Delayus
                                           	global	_pprintf
                                           	global	_psprintf2
                                           	global	_psprintf
                                           	global	_CDC_init
                                           	global	_CDCwrite
                                           	global	_CDCprintf
                                           	global	_CDCprint
                                           	global	_CDCprintln
                                           	global	_CDCgetkey
                                           	global	_CDCgetstring
                                           	global	_CDC_interrupt
                                           	global	_digitalwrite
                                           	global	_digitalread
                                           	global	_pinmode
                                           	global	_toggle
                                           	global	_IO_init
                                           	global	_IO_digital
                                           	global	_IO_remap
                                           	global	_eeprom_byte_write
                                           	global	_eeprom_page_write
                                           	global	_eeprom_byte_read
                                           	global	_eeprom_byte_read_seq
                                           	global	_setup
                                           	global	_loop
                                           	global	_high_priority_isr
                                           	global	_low_priority_isr
                                           	global	_libdevice_descriptor
                                           	global	_libconfiguration_descriptor
                                           	global	_lang
                                           	global	_manu
                                           	global	_prod
                                           	global	_libstring_descriptor
                                           	global	_mask
                                           	global	_port
                                           
                                           ;--------------------------------------------------------
                                           ; extern variables in this module
                                           ;--------------------------------------------------------
                                           	extern	__gptrget1
                                           	extern	__gptrput1
                                           	extern	__gptrget3
                                           	extern	__gptrput3
                                           	extern	__gptrget4
                                           	extern	__gptrget2
                                           	extern	_ADCTRIGbits
                                           	extern	_PD0bits
                                           	extern	_PMDIS0bits
                                           	extern	_PD1bits
                                           	extern	_PMDIS1bits
                                           	extern	_PD2bits
                                           	extern	_PMDIS2bits
                                           	extern	_PD3bits
                                           	extern	_PMDIS3bits
                                           	extern	_PPSCONbits
                                           	extern	_CCP10CONbits
                                           	extern	_CCP9CONbits
                                           	extern	_CCP8CONbits
                                           	extern	_CCP7CONbits
                                           	extern	_CCP6CONbits
                                           	extern	_CCP5CONbits
                                           	extern	_CCP4CONbits
                                           	extern	_CCP3CONbits
                                           	extern	_ECCP3DELbits
                                           	extern	_ECCP3ASbits
                                           	extern	_PSTR3CONbits
                                           	extern	_T8CONbits
                                           	extern	_T6CONbits
                                           	extern	_T5GCONbits
                                           	extern	_T5CONbits
                                           	extern	_CM3CONbits
                                           	extern	_UEP0bits
                                           	extern	_UEP1bits
                                           	extern	_UEP2bits
                                           	extern	_UEP3bits
                                           	extern	_UEP4bits
                                           	extern	_UEP5bits
                                           	extern	_UEP6bits
                                           	extern	_UEP7bits
                                           	extern	_UEP8bits
                                           	extern	_UEP9bits
                                           	extern	_UEP10bits
                                           	extern	_UEP11bits
                                           	extern	_UEP12bits
                                           	extern	_UEP13bits
                                           	extern	_UEP14bits
                                           	extern	_UEP15bits
                                           	extern	_UIEbits
                                           	extern	_UEIEbits
                                           	extern	_UADDRbits
                                           	extern	_UCFGbits
                                           	extern	_PADCFG1bits
                                           	extern	_REFOCONbits
                                           	extern	_RTCCALbits
                                           	extern	_RTCCFGbits
                                           	extern	_ODCON3bits
                                           	extern	_ODCON2bits
                                           	extern	_ODCON1bits
                                           	extern	_ALRMRPTbits
                                           	extern	_ALRMCFGbits
                                           	extern	_ANCON0bits
                                           	extern	_ANCON1bits
                                           	extern	_DSWAKELbits
                                           	extern	_DSWAKEHbits
                                           	extern	_DSCONLbits
                                           	extern	_DSCONHbits
                                           	extern	_CCPTMRS2bits
                                           	extern	_CCPTMRS1bits
                                           	extern	_CCPTMRS0bits
                                           	extern	_CVRCONbits
                                           	extern	_PMSTATLbits
                                           	extern	_PMSTATHbits
                                           	extern	_PMELbits
                                           	extern	_PMEHbits
                                           	extern	_PMMODELbits
                                           	extern	_PMMODEHbits
                                           	extern	_PMCONLbits
                                           	extern	_PMCONHbits
                                           	extern	_UFRMLbits
                                           	extern	_UFRMHbits
                                           	extern	_UIRbits
                                           	extern	_UEIRbits
                                           	extern	_USTATbits
                                           	extern	_UCONbits
                                           	extern	_PMADDRHbits
                                           	extern	_CMSTATbits
                                           	extern	_CMSTATUSbits
                                           	extern	_SSP2CON2bits
                                           	extern	_SSP2CON1bits
                                           	extern	_SSP2STATbits
                                           	extern	_SSP2MSKbits
                                           	extern	_T4CONbits
                                           	extern	_T3CONbits
                                           	extern	_BAUDCON2bits
                                           	extern	_BAUDCONbits
                                           	extern	_BAUDCON1bits
                                           	extern	_BAUDCTLbits
                                           	extern	_PORTAbits
                                           	extern	_PORTBbits
                                           	extern	_PORTCbits
                                           	extern	_PORTDbits
                                           	extern	_PORTEbits
                                           	extern	_HLVDCONbits
                                           	extern	_DMACON2bits
                                           	extern	_OSCCON2bits
                                           	extern	_DMACON1bits
                                           	extern	_LATAbits
                                           	extern	_LATBbits
                                           	extern	_LATCbits
                                           	extern	_LATDbits
                                           	extern	_LATEbits
                                           	extern	_PIE4bits
                                           	extern	_PIR4bits
                                           	extern	_IPR4bits
                                           	extern	_PIE5bits
                                           	extern	_TRISAbits
                                           	extern	_TRISBbits
                                           	extern	_TRISCbits
                                           	extern	_TRISDbits
                                           	extern	_TRISEbits
                                           	extern	_T3GCONbits
                                           	extern	_PIR5bits
                                           	extern	_IPR5bits
                                           	extern	_T1GCONbits
                                           	extern	_OSCTUNEbits
                                           	extern	_RCSTA2bits
                                           	extern	_PIE1bits
                                           	extern	_PIR1bits
                                           	extern	_IPR1bits
                                           	extern	_PIE2bits
                                           	extern	_PIR2bits
                                           	extern	_IPR2bits
                                           	extern	_PIE3bits
                                           	extern	_PIR3bits
                                           	extern	_IPR3bits
                                           	extern	_EECON1bits
                                           	extern	_TXSTA2bits
                                           	extern	_RCSTAbits
                                           	extern	_RCSTA1bits
                                           	extern	_TXSTAbits
                                           	extern	_TXSTA1bits
                                           	extern	_CTMUICONbits
                                           	extern	_CTMUCONLbits
                                           	extern	_CTMUCONHbits
                                           	extern	_CCP2CONbits
                                           	extern	_ECCP2CONbits
                                           	extern	_ECCP2DELbits
                                           	extern	_PWM2CONbits
                                           	extern	_ECCP2ASbits
                                           	extern	_PSTR2CONbits
                                           	extern	_CCP1CONbits
                                           	extern	_ECCP1CONbits
                                           	extern	_ECCP1DELbits
                                           	extern	_PWM1CONbits
                                           	extern	_ECCP1ASbits
                                           	extern	_PSTR1CONbits
                                           	extern	_WDTCONbits
                                           	extern	_ADCON1bits
                                           	extern	_ADCON0bits
                                           	extern	_SSP1CON2bits
                                           	extern	_SSPCON2bits
                                           	extern	_SSP1CON1bits
                                           	extern	_SSPCON1bits
                                           	extern	_SSP1STATbits
                                           	extern	_SSPSTATbits
                                           	extern	_SSP1MSKbits
                                           	extern	_T2CONbits
                                           	extern	_T1CONbits
                                           	extern	_RCONbits
                                           	extern	_CM2CONbits
                                           	extern	_CM2CON1bits
                                           	extern	_CM1CONbits
                                           	extern	_CM1CON1bits
                                           	extern	_OSCCONbits
                                           	extern	_T0CONbits
                                           	extern	_STATUSbits
                                           	extern	_INTCON3bits
                                           	extern	_INTCON2bits
                                           	extern	_INTCONbits
                                           	extern	_STKPTRbits
                                           	extern	_stack_end
                                           	extern	_ADCTRIG
                                           	extern	_PD0
                                           	extern	_PMDIS0
                                           	extern	_PD1
                                           	extern	_PMDIS1
                                           	extern	_PD2
                                           	extern	_PMDIS2
                                           	extern	_PD3
                                           	extern	_PMDIS3
                                           	extern	_PPSCON
                                           	extern	_RPOR0
                                           	extern	_RPOR1
                                           	extern	_RPOR2
                                           	extern	_RPOR3
                                           	extern	_RPOR4
                                           	extern	_RPOR5
                                           	extern	_RPOR6
                                           	extern	_RPOR7
                                           	extern	_RPOR8
                                           	extern	_RPOR9
                                           	extern	_RPOR10
                                           	extern	_RPOR11
                                           	extern	_RPOR12
                                           	extern	_RPOR13
                                           	extern	_RPOR17
                                           	extern	_RPOR18
                                           	extern	_RPOR19
                                           	extern	_RPOR20
                                           	extern	_RPOR21
                                           	extern	_RPOR22
                                           	extern	_RPOR23
                                           	extern	_RPOR24
                                           	extern	_RPINR1
                                           	extern	_RPINR2
                                           	extern	_RPINR3
                                           	extern	_RPINR4
                                           	extern	_RPINR6
                                           	extern	_RPINR15
                                           	extern	_RPINR7
                                           	extern	_RPINR8
                                           	extern	_RPINR9
                                           	extern	_RPINR12
                                           	extern	_RPINR13
                                           	extern	_RPINR14
                                           	extern	_RPINR16
                                           	extern	_RPINR17
                                           	extern	_RPINR21
                                           	extern	_RPINR22
                                           	extern	_RPINR23
                                           	extern	_RPINR24
                                           	extern	_CCP10CON
                                           	extern	_CCPR10L
                                           	extern	_CCPR10H
                                           	extern	_CCP9CON
                                           	extern	_CCPR9L
                                           	extern	_CCPR9H
                                           	extern	_CCP8CON
                                           	extern	_CCPR8L
                                           	extern	_CCPR8H
                                           	extern	_CCP7CON
                                           	extern	_CCPR7L
                                           	extern	_CCPR7H
                                           	extern	_CCP6CON
                                           	extern	_CCPR6L
                                           	extern	_CCPR6H
                                           	extern	_CCP5CON
                                           	extern	_CCPR5L
                                           	extern	_CCPR5H
                                           	extern	_CCP4CON
                                           	extern	_CCPR4L
                                           	extern	_CCPR4H
                                           	extern	_CCP3CON
                                           	extern	_CCPR3L
                                           	extern	_CCPR3H
                                           	extern	_ECCP3DEL
                                           	extern	_ECCP3AS
                                           	extern	_PSTR3CON
                                           	extern	_T8CON
                                           	extern	_PR8
                                           	extern	_TMR8
                                           	extern	_T6CON
                                           	extern	_PR6
                                           	extern	_TMR6
                                           	extern	_T5GCON
                                           	extern	_T5CON
                                           	extern	_TMR5L
                                           	extern	_TMR5H
                                           	extern	_CM3CON
                                           	extern	_UEP0
                                           	extern	_UEP1
                                           	extern	_UEP2
                                           	extern	_UEP3
                                           	extern	_UEP4
                                           	extern	_UEP5
                                           	extern	_UEP6
                                           	extern	_UEP7
                                           	extern	_UEP8
                                           	extern	_UEP9
                                           	extern	_UEP10
                                           	extern	_UEP11
                                           	extern	_UEP12
                                           	extern	_UEP13
                                           	extern	_UEP14
                                           	extern	_UEP15
                                           	extern	_UIE
                                           	extern	_UEIE
                                           	extern	_UADDR
                                           	extern	_UCFG
                                           	extern	_RTCVALL
                                           	extern	_RTCVALH
                                           	extern	_PADCFG1
                                           	extern	_REFOCON
                                           	extern	_RTCCAL
                                           	extern	_RTCCFG
                                           	extern	_ODCON3
                                           	extern	_ODCON2
                                           	extern	_ODCON1
                                           	extern	_ALRMVALL
                                           	extern	_ALRMVALH
                                           	extern	_ALRMRPT
                                           	extern	_ALRMCFG
                                           	extern	_ANCON0
                                           	extern	_ANCON1
                                           	extern	_DSWAKEL
                                           	extern	_DSWAKEH
                                           	extern	_DSCONL
                                           	extern	_DSCONH
                                           	extern	_DSGPR0
                                           	extern	_DSGPR1
                                           	extern	_CCPTMRS2
                                           	extern	_CCPTMRS1
                                           	extern	_CCPTMRS0
                                           	extern	_CVRCON
                                           	extern	_PMSTATL
                                           	extern	_PMSTATH
                                           	extern	_PMEL
                                           	extern	_PMEH
                                           	extern	_PMDIN2L
                                           	extern	_PMDIN2H
                                           	extern	_PMDOUT2L
                                           	extern	_PMDOUT2H
                                           	extern	_PMMODEL
                                           	extern	_PMMODEH
                                           	extern	_PMCONL
                                           	extern	_PMCONH
                                           	extern	_UFRM
                                           	extern	_UFRML
                                           	extern	_UFRMH
                                           	extern	_UIR
                                           	extern	_UEIR
                                           	extern	_USTAT
                                           	extern	_UCON
                                           	extern	_DMABCH
                                           	extern	_DMABCL
                                           	extern	_RXADDRH
                                           	extern	_RXADDRL
                                           	extern	_TXADDRH
                                           	extern	_TXADDRL
                                           	extern	_PMDIN1L
                                           	extern	_PMDIN1H
                                           	extern	_PMADDRL
                                           	extern	_PMDOUT1L
                                           	extern	_PMADDRH
                                           	extern	_PMDOUT1H
                                           	extern	_CMSTAT
                                           	extern	_CMSTATUS
                                           	extern	_SSP2CON2
                                           	extern	_SSP2CON1
                                           	extern	_SSP2STAT
                                           	extern	_SSP2ADD
                                           	extern	_SSP2MSK
                                           	extern	_SSP2BUF
                                           	extern	_T4CON
                                           	extern	_PR4
                                           	extern	_TMR4
                                           	extern	_T3CON
                                           	extern	_TMR3
                                           	extern	_TMR3L
                                           	extern	_TMR3H
                                           	extern	_BAUDCON2
                                           	extern	_SPBRGH2
                                           	extern	_BAUDCON
                                           	extern	_BAUDCON1
                                           	extern	_BAUDCTL
                                           	extern	_SPBRGH
                                           	extern	_SPBRGH1
                                           	extern	_PORTA
                                           	extern	_PORTB
                                           	extern	_PORTC
                                           	extern	_PORTD
                                           	extern	_PORTE
                                           	extern	_HLVDCON
                                           	extern	_DMACON2
                                           	extern	_OSCCON2
                                           	extern	_DMACON1
                                           	extern	_LATA
                                           	extern	_LATB
                                           	extern	_LATC
                                           	extern	_LATD
                                           	extern	_LATE
                                           	extern	_PIE4
                                           	extern	_PIR4
                                           	extern	_IPR4
                                           	extern	_PIE5
                                           	extern	_TRISA
                                           	extern	_TRISB
                                           	extern	_TRISC
                                           	extern	_TRISD
                                           	extern	_TRISE
                                           	extern	_T3GCON
                                           	extern	_PIR5
                                           	extern	_IPR5
                                           	extern	_T1GCON
                                           	extern	_OSCTUNE
                                           	extern	_RCSTA2
                                           	extern	_PIE1
                                           	extern	_PIR1
                                           	extern	_IPR1
                                           	extern	_PIE2
                                           	extern	_PIR2
                                           	extern	_IPR2
                                           	extern	_PIE3
                                           	extern	_PIR3
                                           	extern	_IPR3
                                           	extern	_EECON1
                                           	extern	_EECON2
                                           	extern	_TXSTA2
                                           	extern	_TXREG2
                                           	extern	_RCREG2
                                           	extern	_SPBRG2
                                           	extern	_RCSTA
                                           	extern	_RCSTA1
                                           	extern	_TXSTA
                                           	extern	_TXSTA1
                                           	extern	_TXREG
                                           	extern	_TXREG1
                                           	extern	_RCREG
                                           	extern	_RCREG1
                                           	extern	_SPBRG
                                           	extern	_SPBRG1
                                           	extern	_CTMUICON
                                           	extern	_CTMUCONL
                                           	extern	_CTMUCONH
                                           	extern	_CCP2CON
                                           	extern	_ECCP2CON
                                           	extern	_CCPR2
                                           	extern	_CCPR2L
                                           	extern	_CCPR2H
                                           	extern	_ECCP2DEL
                                           	extern	_PWM2CON
                                           	extern	_ECCP2AS
                                           	extern	_PSTR2CON
                                           	extern	_CCP1CON
                                           	extern	_ECCP1CON
                                           	extern	_CCPR1
                                           	extern	_CCPR1L
                                           	extern	_CCPR1H
                                           	extern	_ECCP1DEL
                                           	extern	_PWM1CON
                                           	extern	_ECCP1AS
                                           	extern	_PSTR1CON
                                           	extern	_WDTCON
                                           	extern	_ADCON1
                                           	extern	_ADCON0
                                           	extern	_ADRES
                                           	extern	_ADRESL
                                           	extern	_ADRESH
                                           	extern	_SSP1CON2
                                           	extern	_SSPCON2
                                           	extern	_SSP1CON1
                                           	extern	_SSPCON1
                                           	extern	_SSP1STAT
                                           	extern	_SSPSTAT
                                           	extern	_SSP1ADD
                                           	extern	_SSP1MSK
                                           	extern	_SSPADD
                                           	extern	_SSP1BUF
                                           	extern	_SSPBUF
                                           	extern	_T2CON
                                           	extern	_PR2
                                           	extern	_TMR2
                                           	extern	_T1CON
                                           	extern	_TMR1
                                           	extern	_TMR1L
                                           	extern	_TMR1H
                                           	extern	_RCON
                                           	extern	_CM2CON
                                           	extern	_CM2CON1
                                           	extern	_CM1CON
                                           	extern	_CM1CON1
                                           	extern	_OSCCON
                                           	extern	_T0CON
                                           	extern	_TMR0
                                           	extern	_TMR0L
                                           	extern	_TMR0H
                                           	extern	_STATUS
                                           	extern	_FSR2L
                                           	extern	_FSR2H
                                           	extern	_PLUSW2
                                           	extern	_PREINC2
                                           	extern	_POSTDEC2
                                           	extern	_POSTINC2
                                           	extern	_INDF2
                                           	extern	_BSR
                                           	extern	_FSR1L
                                           	extern	_FSR1H
                                           	extern	_PLUSW1
                                           	extern	_PREINC1
                                           	extern	_POSTDEC1
                                           	extern	_POSTINC1
                                           	extern	_INDF1
                                           	extern	_WREG
                                           	extern	_FSR0L
                                           	extern	_FSR0H
                                           	extern	_PLUSW0
                                           	extern	_PREINC0
                                           	extern	_POSTDEC0
                                           	extern	_POSTINC0
                                           	extern	_INDF0
                                           	extern	_INTCON3
                                           	extern	_INTCON2
                                           	extern	_INTCON
                                           	extern	_PROD
                                           	extern	_PRODL
                                           	extern	_PRODH
                                           	extern	_TABLAT
                                           	extern	_TBLPTR
                                           	extern	_TBLPTRL
                                           	extern	_TBLPTRH
                                           	extern	_TBLPTRU
                                           	extern	_PC
                                           	extern	_PCL
                                           	extern	_PCLATH
                                           	extern	_PCLATU
                                           	extern	_STKPTR
                                           	extern	_TOS
                                           	extern	_TOSL
                                           	extern	_TOSH
                                           	extern	_TOSU
                                           	extern	_delay1ktcy
                                           	extern	__modulong
                                           	extern	__divulong
                                           	extern	_cinit
                                           
                                           ;--------------------------------------------------------
                                           ;	Equates to used internal registers
                                           ;--------------------------------------------------------
                                           STATUS	equ	0xfd8
                                           PCL	equ	0xff9
                                           PCLATH	equ	0xffa
                                           PCLATU	equ	0xffb
                                           INTCON	equ	0xff2
                                           WREG	equ	0xfe8
                                           BSR	equ	0xfe0
                                           TOSL	equ	0xffd
                                           TOSH	equ	0xffe
                                           TOSU	equ	0xfff
                                           TBLPTRL	equ	0xff6
                                           TBLPTRH	equ	0xff7
                                           TBLPTRU	equ	0xff8
                                           TABLAT	equ	0xff5
                                           FSR0L	equ	0xfe9
                                           FSR0H	equ	0xfea
                                           FSR1L	equ	0xfe1
                                           FSR2L	equ	0xfd9
                                           FSR2H	equ	0xfda
                                           INDF0	equ	0xfef
                                           POSTINC0	equ	0xfee
                                           POSTINC1	equ	0xfe6
                                           POSTDEC1	equ	0xfe5
                                           PREINC1	equ	0xfe4
                                           PLUSW2	equ	0xfdb
                                           PRODL	equ	0xff3
                                           PRODH	equ	0xff4
                                           
                                           
                                           	idata
                                           ___uflags	db	0x00
                                           _CONTROL_LINE	db	0x00
                                           _i2cAddr	db	0x50
                                           _MemoryAddr	db	0x00, 0x00
                                           
                                           
                                           ; Internal registers
                                           .registers	udata_ovr	0x0000
                                           r0x00	res	1
                                           r0x01	res	1
                                           r0x02	res	1
                                           r0x03	res	1
                                           r0x04	res	1
                                           r0x05	res	1
                                           r0x06	res	1
                                           r0x07	res	1
                                           r0x08	res	1
                                           r0x09	res	1
                                           r0x0a	res	1
                                           r0x0b	res	1
                                           r0x0c	res	1
                                           r0x0d	res	1
                                           r0x0e	res	1
                                           r0x0f	res	1
                                           r0x10	res	1
                                           r0x11	res	1
                                           r0x12	res	1
                                           r0x13	res	1
                                           r0x14	res	1
                                           r0x15	res	1
                                           r0x16	res	1
                                           r0x17	res	1
                                           r0x18	res	1
                                           r0x19	res	1
                                           r0x1a	res	1
                                           r0x1b	res	1
                                           r0x1c	res	1
                                           r0x1d	res	1
                                           r0x1e	res	1
                                           r0x1f	res	1
                                           r0x20	res	1
                                           
                                           
                                           usbram5	udata
                                           _SetupPacket	res	64
                                           _controlTransferBuffer	res	64
                                           _CDCRxBuffer	res	64
                                           _CDCTxBuffer	res	64
                                           
                                           udata_main_0	udata
                                           _deviceAddress	res	1
                                           
                                           udata_main_1	udata
                                           _HIDPostProcess	res	1
                                           
                                           udata_main_2	udata
                                           _hidIdleRate	res	1
                                           
                                           udata_main_3	udata
                                           _hidProtocol	res	1
                                           
                                           udata_main_4	udata
                                           _hidRxLen	res	1
                                           
                                           udata_main_5	udata
                                           _pputchar	res	3
                                           
                                           udata_main_6	udata
                                           _requestHandled	res	1
                                           
                                           udata_main_7	udata
                                           _outPtr	res	3
                                           
                                           udata_main_8	udata
                                           _wCount	res	2
                                           
                                           udata_main_9	udata
                                           _inPtr	res	3
                                           
                                           udata_main_10	udata
                                           _selfPowered	res	1
                                           
                                           udata_main_11	udata
                                           _remoteWakeup	res	1
                                           
                                           udata_main_12	udata
                                           _deviceState	res	1
                                           
                                           udata_main_13	udata
                                           _currentConfiguration	res	1
                                           
                                           udata_main_14	udata
                                           _ctrlTransferStage	res	1
                                           
                                           udata_main_15	udata
                                           _line_config	res	7
                                           
                                           udata_main_16	udata
                                           _zlp	res	8
                                           
                                           udata_main_17	udata
                                           _CDCControlBuffer	res	16
                                           
                                           udata_main_18	udata
                                           _pprinti_buffer_1_151	res	12
                                           
                                           udata_main_19	udata
                                           _pprintfl_buffer_1_161	res	12
                                           
                                           udata_main_20	udata
                                           _pprintfl_tmp_1_161	res	12
                                           
                                           udata_main_21	udata
                                           _pprintfl_helper_1_161	res	4
                                           
                                           udata_main_22	udata
                                           _pprint_scr_1_175	res	2
                                           
                                           udata_main_23	udata
                                           _psprintf2_out_1_196	res	3
                                           
                                           udata_main_24	udata
                                           _CDCwrite_c_1_203	res	1
                                           
                                           udata_main_25	udata
                                           __cdc_buffer	res	64
                                           
                                           udata_main_26	udata
                                           _CDCgetkey_buffer_1_213	res	64
                                           
                                           udata_main_27	udata
                                           _CDCgetstring_buffer_1_215	res	80
                                           
                                           
                                           ustat_main_00	udata	0X0D00
                                           _ep_bdt        	res	128
                                           
                                           ;--------------------------------------------------------
                                           ; interrupt vector
                                           ;--------------------------------------------------------
                                           
                                           ;--------------------------------------------------------
                                           ; global & static initialisations
                                           ;--------------------------------------------------------
                                           ; ; Starting pCode block
                                           S_main___entry	code	0X000C00
                                           __entry:
000c00   efb4     goto    0x3d68           	goto __startup
000c02   f01e
                                           	
                                           ; ; Starting pCode block for absolute section
                                           ; ;-----------------------------------------
                                           S_main_ivec_0x1_high_priority_isr	code	0X000C08
                                           ivec_0x1_high_priority_isr:
000c08   efcc     goto    0x4598           	GOTO	_high_priority_isr
000c0a   f022
                                           
                                           ; ; Starting pCode block for absolute section
                                           ; ;-----------------------------------------
                                           S_main_ivec_0x2_low_priority_isr	code	0X000C18
                                           ivec_0x2_low_priority_isr:
000c18   ef42     goto    0x4684           	GOTO	_low_priority_isr
000c1a   f023
                                           
                                           ; I code from now on!
                                           ; ; Starting pCode block
                                           S_main__main	code
                                           _main:
                                           ;	.line	111; /dvpt/pinguino/git/pinguino-ide/pinguino/source/main.c	if (RCONbits.NOT_POR == 0)
0048b8   b2d0     btfsc   0xd0, 0x1, 0     	BTFSC	_RCONbits, 1
0048ba   d002     bra     0x48c0           	BRA	_01880_DS_
                                           ;	.line	113; /dvpt/pinguino/git/pinguino-ide/pinguino/source/main.c	RCON |= 0b10010011;     // set all reset flag
0048bc   0e93     movlw   0x93             	MOVLW	0x93
0048be   12d0     iorwf   0xd0, 0x1, 0     	IORWF	_RCON, F
                                           _01880_DS_:
                                           ;	.line	126; /dvpt/pinguino/git/pinguino-ide/pinguino/source/main.c	OSCTUNEbits.PLLEN = 1;
0048c0   8c9b     bsf     0x9b, 0x6, 0     	BSF	_OSCTUNEbits, 6
                                           ;	.line	127; /dvpt/pinguino/git/pinguino-ide/pinguino/source/main.c	while (pll_startup_counter--);
0048c2   0e58     movlw   0x58             	MOVLW	0x58
0048c4   6e00     movwf   0, 0             	MOVWF	r0x00
0048c6   0e02     movlw   0x2              	MOVLW	0x02
0048c8   6e01     movwf   0x1, 0           	MOVWF	r0x01
                                           _01881_DS_:
0048ca   c000     movff   0, 0x2           	MOVFF	r0x00, r0x02
0048cc   f002
0048ce   c001     movff   0x1, 0x3         	MOVFF	r0x01, r0x03
0048d0   f003
0048d2   0eff     movlw   0xff             	MOVLW	0xff
0048d4   2600     addwf   0, 0x1, 0        	ADDWF	r0x00, F
0048d6   2201     addwfc  0x1, 0x1, 0      	ADDWFC	r0x01, F
0048d8   5002     movf    0x2, 0, 0        	MOVF	r0x02, W
0048da   1003     iorwf   0x3, 0, 0        	IORWF	r0x03, W
0048dc   e1f6     bnz     0x48ca           	BNZ	_01881_DS_
                                           ;	.line	158; /dvpt/pinguino/git/pinguino-ide/pinguino/source/main.c	INTCONbits.GIEH     = 0;        // Disables all HP interrupts
0048de   9ef2     bcf     0xf2, 0x7, 0     	BCF	_INTCONbits, 7
                                           ;	.line	159; /dvpt/pinguino/git/pinguino-ide/pinguino/source/main.c	INTCONbits.GIEL     = 0;        // Disables all LP interrupts
0048e0   9cf2     bcf     0xf2, 0x6, 0     	BCF	_INTCONbits, 6
                                           ;	.line	204; /dvpt/pinguino/git/pinguino-ide/pinguino/source/main.c	IO_init();
0048e2   ec00     call    0x4c00, 0        	CALL	_IO_init
0048e4   f026
                                           ;	.line	205; /dvpt/pinguino/git/pinguino-ide/pinguino/source/main.c	IO_digital();
0048e6   ec06     call    0xc0c, 0         	CALL	_IO_digital
0048e8   f006
                                           ;	.line	211; /dvpt/pinguino/git/pinguino-ide/pinguino/source/main.c	IO_remap();
0048ea   ec7c     call    0x4af8, 0        	CALL	_IO_remap
0048ec   f025
                                           ;	.line	224; /dvpt/pinguino/git/pinguino-ide/pinguino/source/main.c	CDC_init();
0048ee   ecc6     call    0x438c, 0        	CALL	_CDC_init
0048f0   f021
                                           ;	.line	252; /dvpt/pinguino/git/pinguino-ide/pinguino/source/main.c	setup();
0048f2   ec0b     call    0x4416, 0        	CALL	_setup
0048f4   f022
                                           _01885_DS_:
                                           ;	.line	273; /dvpt/pinguino/git/pinguino-ide/pinguino/source/main.c	loop();
0048f6   ec4d     call    0x449a, 0        	CALL	_loop
0048f8   f022
0048fa   d7fd     bra     0x48f6           	BRA	_01885_DS_
0048fc   0012     return  0                	RETURN	
                                           
                                           ; ; Starting pCode block
                                           S_main__low_priority_isr	code
                                           _low_priority_isr:
                                           ;	.line	371; /dvpt/pinguino/git/pinguino-ide/pinguino/source/main.c	void low_priority_isr(void) __interrupt 2
004684   cfd8     movff   0xfd8, 0xfe5     	MOVFF	STATUS, POSTDEC1
004686   ffe5
004688   cfe0     movff   0xfe0, 0xfe5     	MOVFF	BSR, POSTDEC1
00468a   ffe5
00468c   6ee5     movwf   0xe5, 0          	MOVWF	POSTDEC1
00468e   cff3     movff   0xff3, 0xfe5     	MOVFF	PRODL, POSTDEC1
004690   ffe5
004692   cff4     movff   0xff4, 0xfe5     	MOVFF	PRODH, POSTDEC1
004694   ffe5
004696   cfe9     movff   0xfe9, 0xfe5     	MOVFF	FSR0L, POSTDEC1
004698   ffe5
00469a   cfea     movff   0xfea, 0xfe5     	MOVFF	FSR0H, POSTDEC1
00469c   ffe5
00469e   cffa     movff   0xffa, 0xfe5     	MOVFF	PCLATH, POSTDEC1
0046a0   ffe5
0046a2   cffb     movff   0xffb, 0xfe5     	MOVFF	PCLATU, POSTDEC1
0046a4   ffe5
0046a6   cfd9     movff   0xfd9, 0xfe5     	MOVFF	FSR2L, POSTDEC1
0046a8   ffe5
0046aa   cfe1     movff   0xfe1, 0xfd9     	MOVFF	FSR1L, FSR2L
0046ac   ffd9
0046ae   cff6     movff   0xff6, 0xfe5     	MOVFF TBLPTRL, POSTDEC1
0046b0   ffe5
0046b2   cff7     movff   0xff7, 0xfe5     	MOVFF TBLPTRH, POSTDEC1
0046b4   ffe5
0046b6   cff8     movff   0xff8, 0xfe5     	MOVFF TBLPTRU, POSTDEC1
0046b8   ffe5
0046ba   cff5     movff   0xff5, 0xfe5     	MOVFF TABLAT, POSTDEC1
0046bc   ffe5
                                           	
0046be   cfe4     movff   0xfe4, 0xff5     	MOVFF PREINC1, TABLAT
0046c0   fff5
0046c2   cfe4     movff   0xfe4, 0xff8     	MOVFF PREINC1, TBLPTRU
0046c4   fff8
0046c6   cfe4     movff   0xfe4, 0xff7     	MOVFF PREINC1, TBLPTRH
0046c8   fff7
0046ca   cfe4     movff   0xfe4, 0xff6     	MOVFF PREINC1, TBLPTRL
0046cc   fff6
                                           	
0046ce   cfe4     movff   0xfe4, 0xfd9     	MOVFF	PREINC1, FSR2L
0046d0   ffd9
0046d2   cfe4     movff   0xfe4, 0xffb     	MOVFF	PREINC1, PCLATU
0046d4   fffb
0046d6   cfe4     movff   0xfe4, 0xffa     	MOVFF	PREINC1, PCLATH
0046d8   fffa
0046da   cfe4     movff   0xfe4, 0xfea     	MOVFF	PREINC1, FSR0H
0046dc   ffea
0046de   cfe4     movff   0xfe4, 0xfe9     	MOVFF	PREINC1, FSR0L
0046e0   ffe9
0046e2   cfe4     movff   0xfe4, 0xff4     	MOVFF	PREINC1, PRODH
0046e4   fff4
0046e6   cfe4     movff   0xfe4, 0xff3     	MOVFF	PREINC1, PRODL
0046e8   fff3
0046ea   50e4     movf    0xe4, 0, 0       	MOVF	PREINC1, W
0046ec   cfe4     movff   0xfe4, 0xfe0     	MOVFF	PREINC1, BSR
0046ee   ffe0
0046f0   cfe4     movff   0xfe4, 0xfd8     	MOVFF	PREINC1, STATUS
0046f2   ffd8
0046f4   0010     retfie  0                	RETFIE	
                                           
                                           ; ; Starting pCode block
                                           S_main__high_priority_isr	code
                                           _high_priority_isr:
                                           ;	.line	294; /dvpt/pinguino/git/pinguino-ide/pinguino/source/main.c	void high_priority_isr(void) __interrupt 1
004598   cfd8     movff   0xfd8, 0xfe5     	MOVFF	STATUS, POSTDEC1
00459a   ffe5
00459c   cfe0     movff   0xfe0, 0xfe5     	MOVFF	BSR, POSTDEC1
00459e   ffe5
0045a0   6ee5     movwf   0xe5, 0          	MOVWF	POSTDEC1
0045a2   cff3     movff   0xff3, 0xfe5     	MOVFF	PRODL, POSTDEC1
0045a4   ffe5
0045a6   cff4     movff   0xff4, 0xfe5     	MOVFF	PRODH, POSTDEC1
0045a8   ffe5
0045aa   cfe9     movff   0xfe9, 0xfe5     	MOVFF	FSR0L, POSTDEC1
0045ac   ffe5
0045ae   cfea     movff   0xfea, 0xfe5     	MOVFF	FSR0H, POSTDEC1
0045b0   ffe5
0045b2   cffa     movff   0xffa, 0xfe5     	MOVFF	PCLATH, POSTDEC1
0045b4   ffe5
0045b6   cffb     movff   0xffb, 0xfe5     	MOVFF	PCLATU, POSTDEC1
0045b8   ffe5
0045ba   cfd9     movff   0xfd9, 0xfe5     	MOVFF	FSR2L, POSTDEC1
0045bc   ffe5
0045be   cfe1     movff   0xfe1, 0xfd9     	MOVFF	FSR1L, FSR2L
0045c0   ffd9
0045c2   cff6     movff   0xff6, 0xfe5     	MOVFF TBLPTRL, POSTDEC1
0045c4   ffe5
0045c6   cff7     movff   0xff7, 0xfe5     	MOVFF TBLPTRH, POSTDEC1
0045c8   ffe5
0045ca   cff8     movff   0xff8, 0xfe5     	MOVFF TBLPTRU, POSTDEC1
0045cc   ffe5
0045ce   cff5     movff   0xff5, 0xfe5     	MOVFF TABLAT, POSTDEC1
0045d0   ffe5
                                           	
                                           ;	.line	304; /dvpt/pinguino/git/pinguino-ide/pinguino/source/main.c	CDC_interrupt();
0045d2   ec83     call    0x4d06, 0        	CALL	_CDC_interrupt
0045d4   f026
0045d6   cfe4     movff   0xfe4, 0xff5     	MOVFF PREINC1, TABLAT
0045d8   fff5
0045da   cfe4     movff   0xfe4, 0xff8     	MOVFF PREINC1, TBLPTRU
0045dc   fff8
0045de   cfe4     movff   0xfe4, 0xff7     	MOVFF PREINC1, TBLPTRH
0045e0   fff7
0045e2   cfe4     movff   0xfe4, 0xff6     	MOVFF PREINC1, TBLPTRL
0045e4   fff6
                                           	
0045e6   cfe4     movff   0xfe4, 0xfd9     	MOVFF	PREINC1, FSR2L
0045e8   ffd9
0045ea   cfe4     movff   0xfe4, 0xffb     	MOVFF	PREINC1, PCLATU
0045ec   fffb
0045ee   cfe4     movff   0xfe4, 0xffa     	MOVFF	PREINC1, PCLATH
0045f0   fffa
0045f2   cfe4     movff   0xfe4, 0xfea     	MOVFF	PREINC1, FSR0H
0045f4   ffea
0045f6   cfe4     movff   0xfe4, 0xfe9     	MOVFF	PREINC1, FSR0L
0045f8   ffe9
0045fa   cfe4     movff   0xfe4, 0xff4     	MOVFF	PREINC1, PRODH
0045fc   fff4
0045fe   cfe4     movff   0xfe4, 0xff3     	MOVFF	PREINC1, PRODL
004600   fff3
004602   50e4     movf    0xe4, 0, 0       	MOVF	PREINC1, W
004604   cfe4     movff   0xfe4, 0xfe0     	MOVFF	PREINC1, BSR
004606   ffe0
004608   cfe4     movff   0xfe4, 0xfd8     	MOVFF	PREINC1, STATUS
00460a   ffd8
00460c   0010     retfie  0                	RETFIE	
                                           
                                           ; ; Starting pCode block
                                           S_main__loop	code
                                           _loop:
                                           ;	.line	127; /dvpt/pinguino/git/pinguino-ide/pinguino/source/user.c	void loop()
00449a   c000     movff   0, 0xfe5         	MOVFF	r0x00, POSTDEC1
00449c   ffe5
                                           ;	.line	130; /dvpt/pinguino/git/pinguino-ide/pinguino/source/user.c	digitalwrite(12, HIGH);                     
00449e   0e01     movlw   0x1              	MOVLW	0x01
0044a0   6ee5     movwf   0xe5, 0          	MOVWF	POSTDEC1
0044a2   0e0c     movlw   0xc              	MOVLW	0x0c
0044a4   6ee5     movwf   0xe5, 0          	MOVWF	POSTDEC1
0044a6   ec5c     call    0x24b8, 0        	CALL	_digitalwrite
0044a8   f012
0044aa   52e6     movf    0xe6, 0x1, 0     	MOVF	POSTINC1, F
0044ac   52e6     movf    0xe6, 0x1, 0     	MOVF	POSTINC1, F
                                           ;	.line	131; /dvpt/pinguino/git/pinguino-ide/pinguino/source/user.c	CDCprintf("Reading ...\n\r");
0044ae   0e00     movlw   0                	MOVLW	UPPER(__str_15)
0044b0   6ee5     movwf   0xe5, 0          	MOVWF	POSTDEC1
0044b2   0e28     movlw   0x28             	MOVLW	HIGH(__str_15)
0044b4   6ee5     movwf   0xe5, 0          	MOVWF	POSTDEC1
0044b6   0ebe     movlw   0xbe             	MOVLW	LOW(__str_15)
0044b8   6ee5     movwf   0xe5, 0          	MOVWF	POSTDEC1
0044ba   ec80     call    0x4300, 0        	CALL	_CDCprintf
0044bc   f021
0044be   0e03     movlw   0x3              	MOVLW	0x03
0044c0   26e1     addwf   0xe1, 0x1, 0     	ADDWF	FSR1L, F
                                           ;	.line	134; /dvpt/pinguino/git/pinguino-ide/pinguino/source/user.c	I2C_start();                                
0044c2   ecbe     call    0x4b7c, 0        	CALL	_I2C_start
0044c4   f025
0044c6   0101     movlb   0x1              	BANKSEL	(_MemoryAddr + 1)
                                           ;	.line	135; /dvpt/pinguino/git/pinguino-ide/pinguino/source/user.c	value = eeprom_byte_read(high8(MemoryAddr), low8(MemoryAddr));
0044c8   5177     movf    0x77, 0, 0x1     	MOVF	(_MemoryAddr + 1), W, B
0044ca   6e00     movwf   0, 0             	MOVWF	r0x00
                                           ; removed redundant BANKSEL
0044cc   5176     movf    0x76, 0, 0x1     	MOVF	_MemoryAddr, W, B
0044ce   6ee5     movwf   0xe5, 0          	MOVWF	POSTDEC1
0044d0   5000     movf    0, 0, 0          	MOVF	r0x00, W
0044d2   6ee5     movwf   0xe5, 0          	MOVWF	POSTDEC1
0044d4   ec07     call    0x460e, 0        	CALL	_eeprom_byte_read
0044d6   f023
0044d8   52e6     movf    0xe6, 0x1, 0     	MOVF	POSTINC1, F
0044da   52e6     movf    0xe6, 0x1, 0     	MOVF	POSTINC1, F
                                           ;	.line	136; /dvpt/pinguino/git/pinguino-ide/pinguino/source/user.c	CDCprintln("%d value red from eeprom", value);
0044dc   6ae5     clrf    0xe5, 0          	CLRF	POSTDEC1
0044de   6ee5     movwf   0xe5, 0          	MOVWF	POSTDEC1
0044e0   0e00     movlw   0                	MOVLW	UPPER(__str_16)
0044e2   6ee5     movwf   0xe5, 0          	MOVWF	POSTDEC1
0044e4   0e28     movlw   0x28             	MOVLW	HIGH(__str_16)
0044e6   6ee5     movwf   0xe5, 0          	MOVWF	POSTDEC1
0044e8   0ecc     movlw   0xcc             	MOVLW	LOW(__str_16)
0044ea   6ee5     movwf   0xe5, 0          	MOVWF	POSTDEC1
0044ec   ec50     call    0x3ca0, 0        	CALL	_CDCprintln
0044ee   f01e
0044f0   0e05     movlw   0x5              	MOVLW	0x05
0044f2   26e1     addwf   0xe1, 0x1, 0     	ADDWF	FSR1L, F
                                           ;	.line	137; /dvpt/pinguino/git/pinguino-ide/pinguino/source/user.c	I2C_stop();                                 
0044f4   eca8     call    0x4b50, 0        	CALL	_I2C_stop
0044f6   f025
                                           ;	.line	139; /dvpt/pinguino/git/pinguino-ide/pinguino/source/user.c	digitalwrite(12, LOW);                      
0044f8   6ae5     clrf    0xe5, 0          	CLRF	POSTDEC1
0044fa   0e0c     movlw   0xc              	MOVLW	0x0c
0044fc   6ee5     movwf   0xe5, 0          	MOVWF	POSTDEC1
0044fe   ec5c     call    0x24b8, 0        	CALL	_digitalwrite
004500   f012
004502   52e6     movf    0xe6, 0x1, 0     	MOVF	POSTINC1, F
004504   52e6     movf    0xe6, 0x1, 0     	MOVF	POSTINC1, F
                                           ;	.line	140; /dvpt/pinguino/git/pinguino-ide/pinguino/source/user.c	Delayms(1000);                                
004506   0e03     movlw   0x3              	MOVLW	0x03
004508   6ee5     movwf   0xe5, 0          	MOVWF	POSTDEC1
00450a   0ee8     movlw   0xe8             	MOVLW	0xe8
00450c   6ee5     movwf   0xe5, 0          	MOVWF	POSTDEC1
00450e   ece3     call    0x47c6, 0        	CALL	_Delayms
004510   f023
004512   52e6     movf    0xe6, 0x1, 0     	MOVF	POSTINC1, F
004514   52e6     movf    0xe6, 0x1, 0     	MOVF	POSTINC1, F
004516   cfe4     movff   0xfe4, 0         	MOVFF	PREINC1, r0x00
004518   f000
00451a   0012     return  0                	RETURN	
                                           
                                           ; ; Starting pCode block
                                           S_main__setup	code
                                           _setup:
                                           ;	.line	117; /dvpt/pinguino/git/pinguino-ide/pinguino/source/user.c	void setup()
004416   c000     movff   0, 0xfe5         	MOVFF	r0x00, POSTDEC1
004418   ffe5
00441a   c001     movff   0x1, 0xfe5       	MOVFF	r0x01, POSTDEC1
00441c   ffe5
                                           ;	.line	119; /dvpt/pinguino/git/pinguino-ide/pinguino/source/user.c	Delayms(10000);
00441e   0e27     movlw   0x27             	MOVLW	0x27
004420   6ee5     movwf   0xe5, 0          	MOVWF	POSTDEC1
004422   0e10     movlw   0x10             	MOVLW	0x10
004424   6ee5     movwf   0xe5, 0          	MOVWF	POSTDEC1
004426   ece3     call    0x47c6, 0        	CALL	_Delayms
004428   f023
00442a   52e6     movf    0xe6, 0x1, 0     	MOVF	POSTINC1, F
00442c   52e6     movf    0xe6, 0x1, 0     	MOVF	POSTINC1, F
                                           ;	.line	120; /dvpt/pinguino/git/pinguino-ide/pinguino/source/user.c	CDCprintf("\n\r\n\r*** 24xx512 i2c Eeprom Demo. ***\n\r\n\r");
00442e   0e00     movlw   0                	MOVLW	UPPER(__str_13)
004430   6ee5     movwf   0xe5, 0          	MOVWF	POSTDEC1
004432   0e28     movlw   0x28             	MOVLW	HIGH(__str_13)
004434   6ee5     movwf   0xe5, 0          	MOVWF	POSTDEC1
004436   0e86     movlw   0x86             	MOVLW	LOW(__str_13)
004438   6ee5     movwf   0xe5, 0          	MOVWF	POSTDEC1
00443a   ec80     call    0x4300, 0        	CALL	_CDCprintf
00443c   f021
00443e   0e03     movlw   0x3              	MOVLW	0x03
004440   26e1     addwf   0xe1, 0x1, 0     	ADDWF	FSR1L, F
                                           ;	.line	121; /dvpt/pinguino/git/pinguino-ide/pinguino/source/user.c	pinmode(12, OUTPUT);                
004442   6ae5     clrf    0xe5, 0          	CLRF	POSTDEC1
004444   0e0c     movlw   0xc              	MOVLW	0x0c
004446   6ee5     movwf   0xe5, 0          	MOVWF	POSTDEC1
004448   ec2d     call    0x225a, 0        	CALL	_pinmode
00444a   f011
00444c   52e6     movf    0xe6, 0x1, 0     	MOVF	POSTINC1, F
00444e   52e6     movf    0xe6, 0x1, 0     	MOVF	POSTINC1, F
                                           ;	.line	122; /dvpt/pinguino/git/pinguino-ide/pinguino/source/user.c	I2C_master(I2C_100KHZ);             
004450   6ae5     clrf    0xe5, 0          	CLRF	POSTDEC1
004452   0e64     movlw   0x64             	MOVLW	0x64
004454   6ee5     movwf   0xe5, 0          	MOVWF	POSTDEC1
004456   ecdf     call    0x49be, 0        	CALL	_I2C_master
004458   f024
00445a   52e6     movf    0xe6, 0x1, 0     	MOVF	POSTINC1, F
00445c   52e6     movf    0xe6, 0x1, 0     	MOVF	POSTINC1, F
                                           ;	.line	124; /dvpt/pinguino/git/pinguino-ide/pinguino/source/user.c	CDCprintf("Writing ...\n\r");
00445e   0e00     movlw   0                	MOVLW	UPPER(__str_14)
004460   6ee5     movwf   0xe5, 0          	MOVWF	POSTDEC1
004462   0e28     movlw   0x28             	MOVLW	HIGH(__str_14)
004464   6ee5     movwf   0xe5, 0          	MOVWF	POSTDEC1
004466   0eb0     movlw   0xb0             	MOVLW	LOW(__str_14)
004468   6ee5     movwf   0xe5, 0          	MOVWF	POSTDEC1
00446a   ec80     call    0x4300, 0        	CALL	_CDCprintf
00446c   f021
00446e   0e03     movlw   0x3              	MOVLW	0x03
004470   26e1     addwf   0xe1, 0x1, 0     	ADDWF	FSR1L, F
004472   0101     movlb   0x1              	BANKSEL	(_MemoryAddr + 1)
                                           ;	.line	125; /dvpt/pinguino/git/pinguino-ide/pinguino/source/user.c	eeprom_byte_write(high8(MemoryAddr), low8(MemoryAddr), 10);
004474   5177     movf    0x77, 0, 0x1     	MOVF	(_MemoryAddr + 1), W, B
004476   6e00     movwf   0, 0             	MOVWF	r0x00
                                           ; removed redundant BANKSEL
004478   5176     movf    0x76, 0, 0x1     	MOVF	_MemoryAddr, W, B
00447a   6e01     movwf   0x1, 0           	MOVWF	r0x01
00447c   0e0a     movlw   0xa              	MOVLW	0x0a
00447e   6ee5     movwf   0xe5, 0          	MOVWF	POSTDEC1
004480   5001     movf    0x1, 0, 0        	MOVF	r0x01, W
004482   6ee5     movwf   0xe5, 0          	MOVWF	POSTDEC1
004484   5000     movf    0, 0, 0          	MOVF	r0x00, W
004486   6ee5     movwf   0xe5, 0          	MOVWF	POSTDEC1
004488   eca7     call    0x414e, 0        	CALL	_eeprom_byte_write
00448a   f020
00448c   0e03     movlw   0x3              	MOVLW	0x03
00448e   26e1     addwf   0xe1, 0x1, 0     	ADDWF	FSR1L, F
004490   cfe4     movff   0xfe4, 0x1       	MOVFF	PREINC1, r0x01
004492   f001
004494   cfe4     movff   0xfe4, 0         	MOVFF	PREINC1, r0x00
004496   f000
004498   0012     return  0                	RETURN	
                                           
                                           ; ; Starting pCode block
                                           S_main__eeprom_byte_read_seq	code
                                           _eeprom_byte_read_seq:
                                           ;	.line	97; /dvpt/pinguino/git/pinguino-ide/pinguino/source/user.c	void eeprom_byte_read_seq(u8 Hi_addr, u8 Lo_addr, int num_bytes, u8 *read_data){
002ae4   cfd9     movff   0xfd9, 0xfe5     	MOVFF	FSR2L, POSTDEC1
002ae6   ffe5
002ae8   cfe1     movff   0xfe1, 0xfd9     	MOVFF	FSR1L, FSR2L
002aea   ffd9
002aec   c000     movff   0, 0xfe5         	MOVFF	r0x00, POSTDEC1
002aee   ffe5
002af0   c001     movff   0x1, 0xfe5       	MOVFF	r0x01, POSTDEC1
002af2   ffe5
002af4   c002     movff   0x2, 0xfe5       	MOVFF	r0x02, POSTDEC1
002af6   ffe5
002af8   c003     movff   0x3, 0xfe5       	MOVFF	r0x03, POSTDEC1
002afa   ffe5
002afc   c004     movff   0x4, 0xfe5       	MOVFF	r0x04, POSTDEC1
002afe   ffe5
002b00   c005     movff   0x5, 0xfe5       	MOVFF	r0x05, POSTDEC1
002b02   ffe5
002b04   c006     movff   0x6, 0xfe5       	MOVFF	r0x06, POSTDEC1
002b06   ffe5
002b08   c007     movff   0x7, 0xfe5       	MOVFF	r0x07, POSTDEC1
002b0a   ffe5
002b0c   c008     movff   0x8, 0xfe5       	MOVFF	r0x08, POSTDEC1
002b0e   ffe5
002b10   c009     movff   0x9, 0xfe5       	MOVFF	r0x09, POSTDEC1
002b12   ffe5
002b14   c00a     movff   0xa, 0xfe5       	MOVFF	r0x0a, POSTDEC1
002b16   ffe5
002b18   c00b     movff   0xb, 0xfe5       	MOVFF	r0x0b, POSTDEC1
002b1a   ffe5
002b1c   c00c     movff   0xc, 0xfe5       	MOVFF	r0x0c, POSTDEC1
002b1e   ffe5
002b20   c00d     movff   0xd, 0xfe5       	MOVFF	r0x0d, POSTDEC1
002b22   ffe5
002b24   0e02     movlw   0x2              	MOVLW	0x02
002b26   cfdb     movff   0xfdb, 0         	MOVFF	PLUSW2, r0x00
002b28   f000
002b2a   0e03     movlw   0x3              	MOVLW	0x03
002b2c   cfdb     movff   0xfdb, 0x1       	MOVFF	PLUSW2, r0x01
002b2e   f001
002b30   0e04     movlw   0x4              	MOVLW	0x04
002b32   cfdb     movff   0xfdb, 0x2       	MOVFF	PLUSW2, r0x02
002b34   f002
002b36   0e05     movlw   0x5              	MOVLW	0x05
002b38   cfdb     movff   0xfdb, 0x3       	MOVFF	PLUSW2, r0x03
002b3a   f003
002b3c   0e06     movlw   0x6              	MOVLW	0x06
002b3e   cfdb     movff   0xfdb, 0x4       	MOVFF	PLUSW2, r0x04
002b40   f004
002b42   0e07     movlw   0x7              	MOVLW	0x07
002b44   cfdb     movff   0xfdb, 0x5       	MOVFF	PLUSW2, r0x05
002b46   f005
002b48   0e08     movlw   0x8              	MOVLW	0x08
002b4a   cfdb     movff   0xfdb, 0x6       	MOVFF	PLUSW2, r0x06
002b4c   f006
                                           ;	.line	99; /dvpt/pinguino/git/pinguino-ide/pinguino/source/user.c	I2C_start();
002b4e   ecbe     call    0x4b7c, 0        	CALL	_I2C_start
002b50   f025
002b52   0101     movlb   0x1              	BANKSEL	_i2cAddr
                                           ;	.line	100; /dvpt/pinguino/git/pinguino-ide/pinguino/source/user.c	I2C_write((i2cAddr << 1) + 1);
002b54   4575     rlncf   0x75, 0, 0x1     	RLNCF	_i2cAddr, W, B
002b56   0bfe     andlw   0xfe             	ANDLW	0xfe
002b58   6e07     movwf   0x7, 0           	MOVWF	r0x07
002b5a   2a07     incf    0x7, 0x1, 0      	INCF	r0x07, F
002b5c   5007     movf    0x7, 0, 0        	MOVF	r0x07, W
002b5e   6ee5     movwf   0xe5, 0          	MOVWF	POSTDEC1
002b60   ec7b     call    0x46f6, 0        	CALL	_I2C_write
002b62   f023
002b64   52e6     movf    0xe6, 0x1, 0     	MOVF	POSTINC1, F
                                           ;	.line	101; /dvpt/pinguino/git/pinguino-ide/pinguino/source/user.c	I2C_write(Hi_addr);
002b66   5000     movf    0, 0, 0          	MOVF	r0x00, W
002b68   6ee5     movwf   0xe5, 0          	MOVWF	POSTDEC1
002b6a   ec7b     call    0x46f6, 0        	CALL	_I2C_write
002b6c   f023
002b6e   52e6     movf    0xe6, 0x1, 0     	MOVF	POSTINC1, F
                                           ;	.line	102; /dvpt/pinguino/git/pinguino-ide/pinguino/source/user.c	I2C_write(Lo_addr);
002b70   5001     movf    0x1, 0, 0        	MOVF	r0x01, W
002b72   6ee5     movwf   0xe5, 0          	MOVWF	POSTDEC1
002b74   ec7b     call    0x46f6, 0        	CALL	_I2C_write
002b76   f023
002b78   52e6     movf    0xe6, 0x1, 0     	MOVF	POSTINC1, F
                                           ;	.line	103; /dvpt/pinguino/git/pinguino-ide/pinguino/source/user.c	I2C_start();
002b7a   ecbe     call    0x4b7c, 0        	CALL	_I2C_start
002b7c   f025
                                           ;	.line	104; /dvpt/pinguino/git/pinguino-ide/pinguino/source/user.c	for( i = 0 ; i < num_bytes - 1 ; i++) {
002b7e   5002     movf    0x2, 0, 0        	MOVF	r0x02, W
002b80   0fff     addlw   0xff             	ADDLW	0xff
002b82   6e00     movwf   0, 0             	MOVWF	r0x00
002b84   0eff     movlw   0xff             	MOVLW	0xff
002b86   2003     addwfc  0x3, 0, 0        	ADDWFC	r0x03, W
002b88   6e01     movwf   0x1, 0           	MOVWF	r0x01
002b8a   6a07     clrf    0x7, 0           	CLRF	r0x07
                                           _01849_DS_:
002b8c   c007     movff   0x7, 0x8         	MOVFF	r0x07, r0x08
002b8e   f008
002b90   6a09     clrf    0x9, 0           	CLRF	r0x09
002b92   5009     movf    0x9, 0, 0        	MOVF	r0x09, W
002b94   0f80     addlw   0x80             	ADDLW	0x80
002b96   6ef3     movwf   0xf3, 0          	MOVWF	PRODL
002b98   5001     movf    0x1, 0, 0        	MOVF	r0x01, W
002b9a   0f80     addlw   0x80             	ADDLW	0x80
002b9c   5cf3     subwf   0xf3, 0, 0       	SUBWF	PRODL, W
002b9e   e102     bnz     0x2ba4           	BNZ	_01863_DS_
002ba0   5000     movf    0, 0, 0          	MOVF	r0x00, W
002ba2   5c08     subwf   0x8, 0, 0        	SUBWF	r0x08, W
                                           _01863_DS_:
002ba4   e233     bc      0x2c0c           	BC	_01847_DS_
                                           ;	.line	105; /dvpt/pinguino/git/pinguino-ide/pinguino/source/user.c	read_data[i] = I2C_read();
002ba6   5007     movf    0x7, 0, 0        	MOVF	r0x07, W
002ba8   2404     addwf   0x4, 0, 0        	ADDWF	r0x04, W
002baa   6e0a     movwf   0xa, 0           	MOVWF	r0x0a
002bac   6ae8     clrf    0xe8, 0          	CLRF	WREG
002bae   2005     addwfc  0x5, 0, 0        	ADDWFC	r0x05, W
002bb0   6e0b     movwf   0xb, 0           	MOVWF	r0x0b
002bb2   6ae8     clrf    0xe8, 0          	CLRF	WREG
002bb4   2006     addwfc  0x6, 0, 0        	ADDWFC	r0x06, W
002bb6   6e0c     movwf   0xc, 0           	MOVWF	r0x0c
002bb8   ec19     call    0x4a32, 0        	CALL	_I2C_read
002bba   f025
002bbc   6e0d     movwf   0xd, 0           	MOVWF	r0x0d
002bbe   c00d     movff   0xd, 0xfe5       	MOVFF	r0x0d, POSTDEC1
002bc0   ffe5
002bc2   c00a     movff   0xa, 0xfe9       	MOVFF	r0x0a, FSR0L
002bc4   ffe9
002bc6   c00b     movff   0xb, 0xff3       	MOVFF	r0x0b, PRODL
002bc8   fff3
002bca   500c     movf    0xc, 0, 0        	MOVF	r0x0c, W
002bcc   ec78     call    0x4cf0, 0        	CALL	__gptrput1
002bce   f026
                                           ;	.line	106; /dvpt/pinguino/git/pinguino-ide/pinguino/source/user.c	CDCprintln("%u data_read_read ", read_data[i]);
002bd0   6ae5     clrf    0xe5, 0          	CLRF	POSTDEC1
002bd2   500d     movf    0xd, 0, 0        	MOVF	r0x0d, W
002bd4   6ee5     movwf   0xe5, 0          	MOVWF	POSTDEC1
002bd6   0e00     movlw   0                	MOVLW	UPPER(__str_11)
002bd8   6ee5     movwf   0xe5, 0          	MOVWF	POSTDEC1
002bda   0e28     movlw   0x28             	MOVLW	HIGH(__str_11)
002bdc   6ee5     movwf   0xe5, 0          	MOVWF	POSTDEC1
002bde   0e5a     movlw   0x5a             	MOVLW	LOW(__str_11)
002be0   6ee5     movwf   0xe5, 0          	MOVWF	POSTDEC1
002be2   ec50     call    0x3ca0, 0        	CALL	_CDCprintln
002be4   f01e
002be6   0e05     movlw   0x5              	MOVLW	0x05
002be8   26e1     addwf   0xe1, 0x1, 0     	ADDWF	FSR1L, F
                                           ;	.line	107; /dvpt/pinguino/git/pinguino-ide/pinguino/source/user.c	if (i >= num_bytes)                               
002bea   5009     movf    0x9, 0, 0        	MOVF	r0x09, W
002bec   0f80     addlw   0x80             	ADDLW	0x80
002bee   6ef3     movwf   0xf3, 0          	MOVWF	PRODL
002bf0   5003     movf    0x3, 0, 0        	MOVF	r0x03, W
002bf2   0f80     addlw   0x80             	ADDLW	0x80
002bf4   5cf3     subwf   0xf3, 0, 0       	SUBWF	PRODL, W
002bf6   e102     bnz     0x2bfc           	BNZ	_01864_DS_
002bf8   5002     movf    0x2, 0, 0        	MOVF	r0x02, W
002bfa   5c08     subwf   0x8, 0, 0        	SUBWF	r0x08, W
                                           _01864_DS_:
002bfc   e303     bnc     0x2c04           	BNC	_01845_DS_
                                           ;	.line	108; /dvpt/pinguino/git/pinguino-ide/pinguino/source/user.c	I2C_sendNack();                     
002bfe   ec4c     call    0x4a98, 0        	CALL	_I2C_sendNack
002c00   f025
002c02   d002     bra     0x2c08           	BRA	_01850_DS_
                                           _01845_DS_:
                                           ;	.line	110; /dvpt/pinguino/git/pinguino-ide/pinguino/source/user.c	I2C_sendAck();
002c04   ec64     call    0x4ac8, 0        	CALL	_I2C_sendAck
002c06   f025
                                           _01850_DS_:
                                           ;	.line	104; /dvpt/pinguino/git/pinguino-ide/pinguino/source/user.c	for( i = 0 ; i < num_bytes - 1 ; i++) {
002c08   2a07     incf    0x7, 0x1, 0      	INCF	r0x07, F
002c0a   d7c0     bra     0x2b8c           	BRA	_01849_DS_
                                           _01847_DS_:
                                           ;	.line	112; /dvpt/pinguino/git/pinguino-ide/pinguino/source/user.c	read_data[i+1] = I2C_read();
002c0c   4a08     infsnz  0x8, 0x1, 0      	INFSNZ	r0x08, F
002c0e   2a09     incf    0x9, 0x1, 0      	INCF	r0x09, F
002c10   5008     movf    0x8, 0, 0        	MOVF	r0x08, W
002c12   2604     addwf   0x4, 0x1, 0      	ADDWF	r0x04, F
002c14   5009     movf    0x9, 0, 0        	MOVF	r0x09, W
002c16   2205     addwfc  0x5, 0x1, 0      	ADDWFC	r0x05, F
002c18   6ae8     clrf    0xe8, 0          	CLRF	WREG
002c1a   be09     btfsc   0x9, 0x7, 0      	BTFSC	r0x09, 7
002c1c   68e8     setf    0xe8, 0          	SETF	WREG
002c1e   2206     addwfc  0x6, 0x1, 0      	ADDWFC	r0x06, F
002c20   ec19     call    0x4a32, 0        	CALL	_I2C_read
002c22   f025
002c24   6e00     movwf   0, 0             	MOVWF	r0x00
002c26   c000     movff   0, 0xfe5         	MOVFF	r0x00, POSTDEC1
002c28   ffe5
002c2a   c004     movff   0x4, 0xfe9       	MOVFF	r0x04, FSR0L
002c2c   ffe9
002c2e   c005     movff   0x5, 0xff3       	MOVFF	r0x05, PRODL
002c30   fff3
002c32   5006     movf    0x6, 0, 0        	MOVF	r0x06, W
002c34   ec78     call    0x4cf0, 0        	CALL	__gptrput1
002c36   f026
                                           ;	.line	113; /dvpt/pinguino/git/pinguino-ide/pinguino/source/user.c	CDCprintln("%u data_read_read_end ", read_data[i+1]);
002c38   6ae5     clrf    0xe5, 0          	CLRF	POSTDEC1
002c3a   5000     movf    0, 0, 0          	MOVF	r0x00, W
002c3c   6ee5     movwf   0xe5, 0          	MOVWF	POSTDEC1
002c3e   0e00     movlw   0                	MOVLW	UPPER(__str_12)
002c40   6ee5     movwf   0xe5, 0          	MOVWF	POSTDEC1
002c42   0e28     movlw   0x28             	MOVLW	HIGH(__str_12)
002c44   6ee5     movwf   0xe5, 0          	MOVWF	POSTDEC1
002c46   0e6e     movlw   0x6e             	MOVLW	LOW(__str_12)
002c48   6ee5     movwf   0xe5, 0          	MOVWF	POSTDEC1
002c4a   ec50     call    0x3ca0, 0        	CALL	_CDCprintln
002c4c   f01e
002c4e   0e05     movlw   0x5              	MOVLW	0x05
002c50   26e1     addwf   0xe1, 0x1, 0     	ADDWF	FSR1L, F
                                           ;	.line	114; /dvpt/pinguino/git/pinguino-ide/pinguino/source/user.c	I2C_stop();
002c52   eca8     call    0x4b50, 0        	CALL	_I2C_stop
002c54   f025
002c56   cfe4     movff   0xfe4, 0xd       	MOVFF	PREINC1, r0x0d
002c58   f00d
002c5a   cfe4     movff   0xfe4, 0xc       	MOVFF	PREINC1, r0x0c
002c5c   f00c
002c5e   cfe4     movff   0xfe4, 0xb       	MOVFF	PREINC1, r0x0b
002c60   f00b
002c62   cfe4     movff   0xfe4, 0xa       	MOVFF	PREINC1, r0x0a
002c64   f00a
002c66   cfe4     movff   0xfe4, 0x9       	MOVFF	PREINC1, r0x09
002c68   f009
002c6a   cfe4     movff   0xfe4, 0x8       	MOVFF	PREINC1, r0x08
002c6c   f008
002c6e   cfe4     movff   0xfe4, 0x7       	MOVFF	PREINC1, r0x07
002c70   f007
002c72   cfe4     movff   0xfe4, 0x6       	MOVFF	PREINC1, r0x06
002c74   f006
002c76   cfe4     movff   0xfe4, 0x5       	MOVFF	PREINC1, r0x05
002c78   f005
002c7a   cfe4     movff   0xfe4, 0x4       	MOVFF	PREINC1, r0x04
002c7c   f004
002c7e   cfe4     movff   0xfe4, 0x3       	MOVFF	PREINC1, r0x03
002c80   f003
002c82   cfe4     movff   0xfe4, 0x2       	MOVFF	PREINC1, r0x02
002c84   f002
002c86   cfe4     movff   0xfe4, 0x1       	MOVFF	PREINC1, r0x01
002c88   f001
002c8a   cfe4     movff   0xfe4, 0         	MOVFF	PREINC1, r0x00
002c8c   f000
002c8e   cfe4     movff   0xfe4, 0xfd9     	MOVFF	PREINC1, FSR2L
002c90   ffd9
002c92   0012     return  0                	RETURN	
                                           
                                           ; ; Starting pCode block
                                           S_main__eeprom_byte_read	code
                                           _eeprom_byte_read:
                                           ;	.line	84; /dvpt/pinguino/git/pinguino-ide/pinguino/source/user.c	u8 eeprom_byte_read(u8 Hi_addr, u8 Lo_addr)
00460e   cfd9     movff   0xfd9, 0xfe5     	MOVFF	FSR2L, POSTDEC1
004610   ffe5
004612   cfe1     movff   0xfe1, 0xfd9     	MOVFF	FSR1L, FSR2L
004614   ffd9
004616   c000     movff   0, 0xfe5         	MOVFF	r0x00, POSTDEC1
004618   ffe5
00461a   c001     movff   0x1, 0xfe5       	MOVFF	r0x01, POSTDEC1
00461c   ffe5
00461e   c002     movff   0x2, 0xfe5       	MOVFF	r0x02, POSTDEC1
004620   ffe5
004622   0e02     movlw   0x2              	MOVLW	0x02
004624   cfdb     movff   0xfdb, 0         	MOVFF	PLUSW2, r0x00
004626   f000
004628   0e03     movlw   0x3              	MOVLW	0x03
00462a   cfdb     movff   0xfdb, 0x1       	MOVFF	PLUSW2, r0x01
00462c   f001
                                           ;	.line	87; /dvpt/pinguino/git/pinguino-ide/pinguino/source/user.c	I2C_start();
00462e   ecbe     call    0x4b7c, 0        	CALL	_I2C_start
004630   f025
004632   0101     movlb   0x1              	BANKSEL	_i2cAddr
                                           ;	.line	88; /dvpt/pinguino/git/pinguino-ide/pinguino/source/user.c	I2C_write((i2cAddr << 1) + 1);
004634   4575     rlncf   0x75, 0, 0x1     	RLNCF	_i2cAddr, W, B
004636   0bfe     andlw   0xfe             	ANDLW	0xfe
004638   6e02     movwf   0x2, 0           	MOVWF	r0x02
00463a   2a02     incf    0x2, 0x1, 0      	INCF	r0x02, F
00463c   5002     movf    0x2, 0, 0        	MOVF	r0x02, W
00463e   6ee5     movwf   0xe5, 0          	MOVWF	POSTDEC1
004640   ec7b     call    0x46f6, 0        	CALL	_I2C_write
004642   f023
004644   52e6     movf    0xe6, 0x1, 0     	MOVF	POSTINC1, F
                                           ;	.line	89; /dvpt/pinguino/git/pinguino-ide/pinguino/source/user.c	I2C_write(Hi_addr);
004646   5000     movf    0, 0, 0          	MOVF	r0x00, W
004648   6ee5     movwf   0xe5, 0          	MOVWF	POSTDEC1
00464a   ec7b     call    0x46f6, 0        	CALL	_I2C_write
00464c   f023
00464e   52e6     movf    0xe6, 0x1, 0     	MOVF	POSTINC1, F
                                           ;	.line	90; /dvpt/pinguino/git/pinguino-ide/pinguino/source/user.c	I2C_write(Lo_addr);
004650   5001     movf    0x1, 0, 0        	MOVF	r0x01, W
004652   6ee5     movwf   0xe5, 0          	MOVWF	POSTDEC1
004654   ec7b     call    0x46f6, 0        	CALL	_I2C_write
004656   f023
004658   52e6     movf    0xe6, 0x1, 0     	MOVF	POSTINC1, F
                                           ;	.line	91; /dvpt/pinguino/git/pinguino-ide/pinguino/source/user.c	temp = I2C_read();                  
00465a   ec19     call    0x4a32, 0        	CALL	_I2C_read
00465c   f025
                                           ; #	MOVWF	r0x00
                                           ; #	MOVF	r0x00, W
                                           ;	.line	92; /dvpt/pinguino/git/pinguino-ide/pinguino/source/user.c	CDCwrite(temp);
00465e   6e00     movwf   0, 0             	MOVWF	r0x00
004660   6ee5     movwf   0xe5, 0          	MOVWF	POSTDEC1
004662   ecd4     call    0x4ba8, 0        	CALL	_CDCwrite
004664   f025
004666   52e6     movf    0xe6, 0x1, 0     	MOVF	POSTINC1, F
                                           ;	.line	93; /dvpt/pinguino/git/pinguino-ide/pinguino/source/user.c	I2C_sendNack();                     
004668   ec4c     call    0x4a98, 0        	CALL	_I2C_sendNack
00466a   f025
                                           ;	.line	94; /dvpt/pinguino/git/pinguino-ide/pinguino/source/user.c	I2C_stop();
00466c   eca8     call    0x4b50, 0        	CALL	_I2C_stop
00466e   f025
                                           ;	.line	95; /dvpt/pinguino/git/pinguino-ide/pinguino/source/user.c	return temp;
004670   5000     movf    0, 0, 0          	MOVF	r0x00, W
004672   cfe4     movff   0xfe4, 0x2       	MOVFF	PREINC1, r0x02
004674   f002
004676   cfe4     movff   0xfe4, 0x1       	MOVFF	PREINC1, r0x01
004678   f001
00467a   cfe4     movff   0xfe4, 0         	MOVFF	PREINC1, r0x00
00467c   f000
00467e   cfe4     movff   0xfe4, 0xfd9     	MOVFF	PREINC1, FSR2L
004680   ffd9
004682   0012     return  0                	RETURN	
                                           
                                           ; ; Starting pCode block
                                           S_main__eeprom_page_write	code
                                           _eeprom_page_write:
                                           ;	.line	66; /dvpt/pinguino/git/pinguino-ide/pinguino/source/user.c	void eeprom_page_write(u8 Hi_addr, u8 Lo_addr, u8 *data)
00323a   cfd9     movff   0xfd9, 0xfe5     	MOVFF	FSR2L, POSTDEC1
00323c   ffe5
00323e   cfe1     movff   0xfe1, 0xfd9     	MOVFF	FSR1L, FSR2L
003240   ffd9
003242   c000     movff   0, 0xfe5         	MOVFF	r0x00, POSTDEC1
003244   ffe5
003246   c001     movff   0x1, 0xfe5       	MOVFF	r0x01, POSTDEC1
003248   ffe5
00324a   c002     movff   0x2, 0xfe5       	MOVFF	r0x02, POSTDEC1
00324c   ffe5
00324e   c003     movff   0x3, 0xfe5       	MOVFF	r0x03, POSTDEC1
003250   ffe5
003252   c004     movff   0x4, 0xfe5       	MOVFF	r0x04, POSTDEC1
003254   ffe5
003256   c005     movff   0x5, 0xfe5       	MOVFF	r0x05, POSTDEC1
003258   ffe5
00325a   c006     movff   0x6, 0xfe5       	MOVFF	r0x06, POSTDEC1
00325c   ffe5
00325e   0e02     movlw   0x2              	MOVLW	0x02
003260   cfdb     movff   0xfdb, 0         	MOVFF	PLUSW2, r0x00
003262   f000
003264   0e03     movlw   0x3              	MOVLW	0x03
003266   cfdb     movff   0xfdb, 0x1       	MOVFF	PLUSW2, r0x01
003268   f001
00326a   0e04     movlw   0x4              	MOVLW	0x04
00326c   cfdb     movff   0xfdb, 0x2       	MOVFF	PLUSW2, r0x02
00326e   f002
003270   0e05     movlw   0x5              	MOVLW	0x05
003272   cfdb     movff   0xfdb, 0x3       	MOVFF	PLUSW2, r0x03
003274   f003
003276   0e06     movlw   0x6              	MOVLW	0x06
003278   cfdb     movff   0xfdb, 0x4       	MOVFF	PLUSW2, r0x04
00327a   f004
                                           ;	.line	69; /dvpt/pinguino/git/pinguino-ide/pinguino/source/user.c	CDCprintln("---------------LAST-------------");
00327c   0e00     movlw   0                	MOVLW	UPPER(__str_8)
00327e   6ee5     movwf   0xe5, 0          	MOVWF	POSTDEC1
003280   0e28     movlw   0x28             	MOVLW	HIGH(__str_8)
003282   6ee5     movwf   0xe5, 0          	MOVWF	POSTDEC1
003284   0e06     movlw   0x6              	MOVLW	LOW(__str_8)
003286   6ee5     movwf   0xe5, 0          	MOVWF	POSTDEC1
003288   ec50     call    0x3ca0, 0        	CALL	_CDCprintln
00328a   f01e
00328c   0e03     movlw   0x3              	MOVLW	0x03
00328e   26e1     addwf   0xe1, 0x1, 0     	ADDWF	FSR1L, F
                                           ;	.line	70; /dvpt/pinguino/git/pinguino-ide/pinguino/source/user.c	I2C_start();
003290   ecbe     call    0x4b7c, 0        	CALL	_I2C_start
003292   f025
003294   0101     movlb   0x1              	BANKSEL	_i2cAddr
                                           ;	.line	71; /dvpt/pinguino/git/pinguino-ide/pinguino/source/user.c	I2C_write((i2cAddr << 1) & 0xFE);            
003296   4575     rlncf   0x75, 0, 0x1     	RLNCF	_i2cAddr, W, B
003298   0bfe     andlw   0xfe             	ANDLW	0xfe
00329a   6e05     movwf   0x5, 0           	MOVWF	r0x05
00329c   9005     bcf     0x5, 0, 0        	BCF	r0x05, 0
00329e   5005     movf    0x5, 0, 0        	MOVF	r0x05, W
0032a0   6ee5     movwf   0xe5, 0          	MOVWF	POSTDEC1
0032a2   ec7b     call    0x46f6, 0        	CALL	_I2C_write
0032a4   f023
0032a6   52e6     movf    0xe6, 0x1, 0     	MOVF	POSTINC1, F
                                           ;	.line	72; /dvpt/pinguino/git/pinguino-ide/pinguino/source/user.c	CDCprintln("--------------------------------");
0032a8   0e00     movlw   0                	MOVLW	UPPER(__str_9)
0032aa   6ee5     movwf   0xe5, 0          	MOVWF	POSTDEC1
0032ac   0e28     movlw   0x28             	MOVLW	HIGH(__str_9)
0032ae   6ee5     movwf   0xe5, 0          	MOVWF	POSTDEC1
0032b0   0e28     movlw   0x28             	MOVLW	LOW(__str_9)
0032b2   6ee5     movwf   0xe5, 0          	MOVWF	POSTDEC1
0032b4   ec50     call    0x3ca0, 0        	CALL	_CDCprintln
0032b6   f01e
0032b8   0e03     movlw   0x3              	MOVLW	0x03
0032ba   26e1     addwf   0xe1, 0x1, 0     	ADDWF	FSR1L, F
                                           ;	.line	73; /dvpt/pinguino/git/pinguino-ide/pinguino/source/user.c	I2C_write(Hi_addr);
0032bc   5000     movf    0, 0, 0          	MOVF	r0x00, W
0032be   6ee5     movwf   0xe5, 0          	MOVWF	POSTDEC1
0032c0   ec7b     call    0x46f6, 0        	CALL	_I2C_write
0032c2   f023
0032c4   52e6     movf    0xe6, 0x1, 0     	MOVF	POSTINC1, F
                                           ;	.line	74; /dvpt/pinguino/git/pinguino-ide/pinguino/source/user.c	I2C_write(Lo_addr);
0032c6   5001     movf    0x1, 0, 0        	MOVF	r0x01, W
0032c8   6ee5     movwf   0xe5, 0          	MOVWF	POSTDEC1
0032ca   ec7b     call    0x46f6, 0        	CALL	_I2C_write
0032cc   f023
0032ce   52e6     movf    0xe6, 0x1, 0     	MOVF	POSTINC1, F
                                           ;	.line	75; /dvpt/pinguino/git/pinguino-ide/pinguino/source/user.c	CDCprintln("--------------------------------");
0032d0   0e00     movlw   0                	MOVLW	UPPER(__str_9)
0032d2   6ee5     movwf   0xe5, 0          	MOVWF	POSTDEC1
0032d4   0e28     movlw   0x28             	MOVLW	HIGH(__str_9)
0032d6   6ee5     movwf   0xe5, 0          	MOVWF	POSTDEC1
0032d8   0e28     movlw   0x28             	MOVLW	LOW(__str_9)
0032da   6ee5     movwf   0xe5, 0          	MOVWF	POSTDEC1
0032dc   ec50     call    0x3ca0, 0        	CALL	_CDCprintln
0032de   f01e
0032e0   0e03     movlw   0x3              	MOVLW	0x03
0032e2   26e1     addwf   0xe1, 0x1, 0     	ADDWF	FSR1L, F
                                           ;	.line	76; /dvpt/pinguino/git/pinguino-ide/pinguino/source/user.c	for(i = 0; i<128; i++)
0032e4   6a00     clrf    0, 0             	CLRF	r0x00
                                           _01822_DS_:
                                           ;	.line	78; /dvpt/pinguino/git/pinguino-ide/pinguino/source/user.c	I2C_write(data[i]);
0032e6   5000     movf    0, 0, 0          	MOVF	r0x00, W
0032e8   2402     addwf   0x2, 0, 0        	ADDWF	r0x02, W
0032ea   6e01     movwf   0x1, 0           	MOVWF	r0x01
0032ec   6ae8     clrf    0xe8, 0          	CLRF	WREG
0032ee   2003     addwfc  0x3, 0, 0        	ADDWFC	r0x03, W
0032f0   6e05     movwf   0x5, 0           	MOVWF	r0x05
0032f2   6ae8     clrf    0xe8, 0          	CLRF	WREG
0032f4   2004     addwfc  0x4, 0, 0        	ADDWFC	r0x04, W
0032f6   6e06     movwf   0x6, 0           	MOVWF	r0x06
0032f8   c001     movff   0x1, 0xfe9       	MOVFF	r0x01, FSR0L
0032fa   ffe9
0032fc   c005     movff   0x5, 0xff3       	MOVFF	r0x05, PRODL
0032fe   fff3
003300   ec4b     call    0x4c96, 0        	CALL	__gptrget1
003302   f026
                                           ; #	MOVWF	r0x07
                                           ; #	MOVF	r0x07, W
003304   6ee5     movwf   0xe5, 0          	MOVWF	POSTDEC1
003306   ec7b     call    0x46f6, 0        	CALL	_I2C_write
003308   f023
00330a   52e6     movf    0xe6, 0x1, 0     	MOVF	POSTINC1, F
                                           ;	.line	79; /dvpt/pinguino/git/pinguino-ide/pinguino/source/user.c	CDCprintln("%u data_write ", data[i]);
00330c   c001     movff   0x1, 0xfe9       	MOVFF	r0x01, FSR0L
00330e   ffe9
003310   c005     movff   0x5, 0xff3       	MOVFF	r0x05, PRODL
003312   fff3
003314   5006     movf    0x6, 0, 0        	MOVF	r0x06, W
003316   ec4b     call    0x4c96, 0        	CALL	__gptrget1
003318   f026
00331a   6ae5     clrf    0xe5, 0          	CLRF	POSTDEC1
00331c   6ee5     movwf   0xe5, 0          	MOVWF	POSTDEC1
00331e   0e00     movlw   0                	MOVLW	UPPER(__str_10)
003320   6ee5     movwf   0xe5, 0          	MOVWF	POSTDEC1
003322   0e28     movlw   0x28             	MOVLW	HIGH(__str_10)
003324   6ee5     movwf   0xe5, 0          	MOVWF	POSTDEC1
003326   0e4a     movlw   0x4a             	MOVLW	LOW(__str_10)
003328   6ee5     movwf   0xe5, 0          	MOVWF	POSTDEC1
00332a   ec50     call    0x3ca0, 0        	CALL	_CDCprintln
00332c   f01e
00332e   0e05     movlw   0x5              	MOVLW	0x05
003330   26e1     addwf   0xe1, 0x1, 0     	ADDWF	FSR1L, F
                                           ;	.line	76; /dvpt/pinguino/git/pinguino-ide/pinguino/source/user.c	for(i = 0; i<128; i++)
003332   2a00     incf    0, 0x1, 0        	INCF	r0x00, F
003334   0e80     movlw   0x80             	MOVLW	0x80
003336   5c00     subwf   0, 0, 0          	SUBWF	r0x00, W
003338   e3d6     bnc     0x32e6           	BNC	_01822_DS_
                                           ;	.line	81; /dvpt/pinguino/git/pinguino-ide/pinguino/source/user.c	I2C_stop();
00333a   eca8     call    0x4b50, 0        	CALL	_I2C_stop
00333c   f025
                                           ;	.line	82; /dvpt/pinguino/git/pinguino-ide/pinguino/source/user.c	Delayms(10); 
00333e   6ae5     clrf    0xe5, 0          	CLRF	POSTDEC1
003340   0e0a     movlw   0xa              	MOVLW	0x0a
003342   6ee5     movwf   0xe5, 0          	MOVWF	POSTDEC1
003344   ece3     call    0x47c6, 0        	CALL	_Delayms
003346   f023
003348   52e6     movf    0xe6, 0x1, 0     	MOVF	POSTINC1, F
00334a   52e6     movf    0xe6, 0x1, 0     	MOVF	POSTINC1, F
00334c   cfe4     movff   0xfe4, 0x6       	MOVFF	PREINC1, r0x06
00334e   f006
003350   cfe4     movff   0xfe4, 0x5       	MOVFF	PREINC1, r0x05
003352   f005
003354   cfe4     movff   0xfe4, 0x4       	MOVFF	PREINC1, r0x04
003356   f004
003358   cfe4     movff   0xfe4, 0x3       	MOVFF	PREINC1, r0x03
00335a   f003
00335c   cfe4     movff   0xfe4, 0x2       	MOVFF	PREINC1, r0x02
00335e   f002
003360   cfe4     movff   0xfe4, 0x1       	MOVFF	PREINC1, r0x01
003362   f001
003364   cfe4     movff   0xfe4, 0         	MOVFF	PREINC1, r0x00
003366   f000
003368   cfe4     movff   0xfe4, 0xfd9     	MOVFF	PREINC1, FSR2L
00336a   ffd9
00336c   0012     return  0                	RETURN	
                                           
                                           ; ; Starting pCode block
                                           S_main__eeprom_byte_write	code
                                           _eeprom_byte_write:
                                           ;	.line	55; /dvpt/pinguino/git/pinguino-ide/pinguino/source/user.c	void eeprom_byte_write(u8 Hi_addr, u8 Lo_addr, u8 data) 
00414e   cfd9     movff   0xfd9, 0xfe5     	MOVFF	FSR2L, POSTDEC1
004150   ffe5
004152   cfe1     movff   0xfe1, 0xfd9     	MOVFF	FSR1L, FSR2L
004154   ffd9
004156   c000     movff   0, 0xfe5         	MOVFF	r0x00, POSTDEC1
004158   ffe5
00415a   c001     movff   0x1, 0xfe5       	MOVFF	r0x01, POSTDEC1
00415c   ffe5
00415e   c002     movff   0x2, 0xfe5       	MOVFF	r0x02, POSTDEC1
004160   ffe5
004162   c003     movff   0x3, 0xfe5       	MOVFF	r0x03, POSTDEC1
004164   ffe5
004166   0e02     movlw   0x2              	MOVLW	0x02
004168   cfdb     movff   0xfdb, 0         	MOVFF	PLUSW2, r0x00
00416a   f000
00416c   0e03     movlw   0x3              	MOVLW	0x03
00416e   cfdb     movff   0xfdb, 0x1       	MOVFF	PLUSW2, r0x01
004170   f001
004172   0e04     movlw   0x4              	MOVLW	0x04
004174   cfdb     movff   0xfdb, 0x2       	MOVFF	PLUSW2, r0x02
004176   f002
                                           ;	.line	57; /dvpt/pinguino/git/pinguino-ide/pinguino/source/user.c	I2C_start();
004178   ecbe     call    0x4b7c, 0        	CALL	_I2C_start
00417a   f025
00417c   0101     movlb   0x1              	BANKSEL	_i2cAddr
                                           ;	.line	58; /dvpt/pinguino/git/pinguino-ide/pinguino/source/user.c	I2C_write((i2cAddr << 1) & 0xFE);            
00417e   4575     rlncf   0x75, 0, 0x1     	RLNCF	_i2cAddr, W, B
004180   0bfe     andlw   0xfe             	ANDLW	0xfe
004182   6e03     movwf   0x3, 0           	MOVWF	r0x03
004184   9003     bcf     0x3, 0, 0        	BCF	r0x03, 0
004186   5003     movf    0x3, 0, 0        	MOVF	r0x03, W
004188   6ee5     movwf   0xe5, 0          	MOVWF	POSTDEC1
00418a   ec7b     call    0x46f6, 0        	CALL	_I2C_write
00418c   f023
00418e   52e6     movf    0xe6, 0x1, 0     	MOVF	POSTINC1, F
                                           ;	.line	59; /dvpt/pinguino/git/pinguino-ide/pinguino/source/user.c	I2C_write(Hi_addr);
004190   5000     movf    0, 0, 0          	MOVF	r0x00, W
004192   6ee5     movwf   0xe5, 0          	MOVWF	POSTDEC1
004194   ec7b     call    0x46f6, 0        	CALL	_I2C_write
004196   f023
004198   52e6     movf    0xe6, 0x1, 0     	MOVF	POSTINC1, F
                                           ;	.line	60; /dvpt/pinguino/git/pinguino-ide/pinguino/source/user.c	I2C_write(Lo_addr);
00419a   5001     movf    0x1, 0, 0        	MOVF	r0x01, W
00419c   6ee5     movwf   0xe5, 0          	MOVWF	POSTDEC1
00419e   ec7b     call    0x46f6, 0        	CALL	_I2C_write
0041a0   f023
0041a2   52e6     movf    0xe6, 0x1, 0     	MOVF	POSTINC1, F
                                           ;	.line	61; /dvpt/pinguino/git/pinguino-ide/pinguino/source/user.c	I2C_write(data);
0041a4   5002     movf    0x2, 0, 0        	MOVF	r0x02, W
0041a6   6ee5     movwf   0xe5, 0          	MOVWF	POSTDEC1
0041a8   ec7b     call    0x46f6, 0        	CALL	_I2C_write
0041aa   f023
0041ac   52e6     movf    0xe6, 0x1, 0     	MOVF	POSTINC1, F
                                           ;	.line	62; /dvpt/pinguino/git/pinguino-ide/pinguino/source/user.c	I2C_stop();
0041ae   eca8     call    0x4b50, 0        	CALL	_I2C_stop
0041b0   f025
                                           ;	.line	63; /dvpt/pinguino/git/pinguino-ide/pinguino/source/user.c	CDCwrite(data);
0041b2   5002     movf    0x2, 0, 0        	MOVF	r0x02, W
0041b4   6ee5     movwf   0xe5, 0          	MOVWF	POSTDEC1
0041b6   ecd4     call    0x4ba8, 0        	CALL	_CDCwrite
0041b8   f025
0041ba   52e6     movf    0xe6, 0x1, 0     	MOVF	POSTINC1, F
                                           ;	.line	64; /dvpt/pinguino/git/pinguino-ide/pinguino/source/user.c	Delayms(10);
0041bc   6ae5     clrf    0xe5, 0          	CLRF	POSTDEC1
0041be   0e0a     movlw   0xa              	MOVLW	0x0a
0041c0   6ee5     movwf   0xe5, 0          	MOVWF	POSTDEC1
0041c2   ece3     call    0x47c6, 0        	CALL	_Delayms
0041c4   f023
0041c6   52e6     movf    0xe6, 0x1, 0     	MOVF	POSTINC1, F
0041c8   52e6     movf    0xe6, 0x1, 0     	MOVF	POSTINC1, F
0041ca   cfe4     movff   0xfe4, 0x3       	MOVFF	PREINC1, r0x03
0041cc   f003
0041ce   cfe4     movff   0xfe4, 0x2       	MOVFF	PREINC1, r0x02
0041d0   f002
0041d2   cfe4     movff   0xfe4, 0x1       	MOVFF	PREINC1, r0x01
0041d4   f001
0041d6   cfe4     movff   0xfe4, 0         	MOVFF	PREINC1, r0x00
0041d8   f000
0041da   cfe4     movff   0xfe4, 0xfd9     	MOVFF	PREINC1, FSR2L
0041dc   ffd9
0041de   0012     return  0                	RETURN	
                                           
                                           ; ; Starting pCode block
                                           S_main__IO_remap	code
                                           _IO_remap:
                                           ;	.line	217; /dvpt/pinguino/git/pinguino-ide/pinguino/p8/pinguino/core/io.c	EECON2 = 0x55;
004af8   0e55     movlw   0x55             	MOVLW	0x55
004afa   6ea7     movwf   0xa7, 0          	MOVWF	_EECON2
                                           ;	.line	218; /dvpt/pinguino/git/pinguino-ide/pinguino/p8/pinguino/core/io.c	EECON2 = 0xAA;
004afc   0eaa     movlw   0xaa             	MOVLW	0xaa
004afe   6ea7     movwf   0xa7, 0          	MOVWF	_EECON2
004b00   010e     movlb   0xe              	BANKSEL	_PPSCONbits
                                           ;	.line	219; /dvpt/pinguino/git/pinguino-ide/pinguino/p8/pinguino/core/io.c	PPSCONbits.IOLOCK = 0;			// Turn on PPS Write Protect
004b02   91bf     bcf     0xbf, 0, 0x1     	BCF	_PPSCONbits, 0, B
                                           ;	.line	221; /dvpt/pinguino/git/pinguino-ide/pinguino/p8/pinguino/core/io.c	RPINR21 = 6;                    // RP6 (RB3) <- SDI2
004b04   0e06     movlw   0x6              	MOVLW	0x06
004b06   010e     movlb   0xe              	BANKSEL	_RPINR21
004b08   6ffc     movwf   0xfc, 0x1        	MOVWF	_RPINR21, B
                                           ;	.line	222; /dvpt/pinguino/git/pinguino-ide/pinguino/p8/pinguino/core/io.c	RPOR5 = 11;                     // RP5 (RB2) -> SCK2
004b0a   0e0b     movlw   0xb              	MOVLW	0x0b
004b0c   010e     movlb   0xe              	BANKSEL	_RPOR5
004b0e   6fc5     movwf   0xc5, 0x1        	MOVWF	_RPOR5, B
                                           ;	.line	223; /dvpt/pinguino/git/pinguino-ide/pinguino/p8/pinguino/core/io.c	RPOR4 = 10;                     // RP4 (RB1) -> SDO2 (func. num. 10)
004b10   0e0a     movlw   0xa              	MOVLW	0x0a
004b12   010e     movlb   0xe              	BANKSEL	_RPOR4
004b14   6fc4     movwf   0xc4, 0x1        	MOVWF	_RPOR4, B
                                           ;	.line	225; /dvpt/pinguino/git/pinguino-ide/pinguino/p8/pinguino/core/io.c	EECON2 = 0x55;
004b16   0e55     movlw   0x55             	MOVLW	0x55
004b18   6ea7     movwf   0xa7, 0          	MOVWF	_EECON2
                                           ;	.line	226; /dvpt/pinguino/git/pinguino-ide/pinguino/p8/pinguino/core/io.c	EECON2 = 0xAA;
004b1a   0eaa     movlw   0xaa             	MOVLW	0xaa
004b1c   6ea7     movwf   0xa7, 0          	MOVWF	_EECON2
004b1e   010e     movlb   0xe              	BANKSEL	_PPSCONbits
                                           ;	.line	227; /dvpt/pinguino/git/pinguino-ide/pinguino/p8/pinguino/core/io.c	PPSCONbits.IOLOCK = 1;			// Turn on PPS Write Protect
004b20   81bf     bsf     0xbf, 0, 0x1     	BSF	_PPSCONbits, 0, B
004b22   0012     return  0                	RETURN	
                                           
                                           ; ; Starting pCode block
                                           S_main__IO_digital	code
                                           _IO_digital:
000c0c   010f     movlb   0xf              	BANKSEL	_ANCON0
                                           ;	.line	137; /dvpt/pinguino/git/pinguino-ide/pinguino/p8/pinguino/core/io.c	ANCON0 = 0xFF;				// AN0 to AN7  Digital I/O
000c0e   6948     setf    0x48, 0x1        	SETF	_ANCON0, B
                                           ;	.line	138; /dvpt/pinguino/git/pinguino-ide/pinguino/p8/pinguino/core/io.c	ANCON1 = 0x1F;				// AN8 to AN12 Digital I/O
000c10   0e1f     movlw   0x1f             	MOVLW	0x1f
000c12   010f     movlb   0xf              	BANKSEL	_ANCON1
000c14   6f49     movwf   0x49, 0x1        	MOVWF	_ANCON1, B
000c16   0012     return  0                	RETURN	
                                           
                                           ; ; Starting pCode block
                                           S_main__IO_init	code
                                           _IO_init:
                                           ;	.line	46; /dvpt/pinguino/git/pinguino-ide/pinguino/p8/pinguino/core/io.c	LATA  = 0x00;
004c00   6a89     clrf    0x89, 0          	CLRF	_LATA
                                           ;	.line	47; /dvpt/pinguino/git/pinguino-ide/pinguino/p8/pinguino/core/io.c	LATB  = 0x00;
004c02   6a8a     clrf    0x8a, 0          	CLRF	_LATB
                                           ;	.line	54; /dvpt/pinguino/git/pinguino-ide/pinguino/p8/pinguino/core/io.c	LATC  = 0x00;	
004c04   6a8b     clrf    0x8b, 0          	CLRF	_LATC
                                           ;	.line	71; /dvpt/pinguino/git/pinguino-ide/pinguino/p8/pinguino/core/io.c	LATD  = 0x00; 
004c06   6a8c     clrf    0x8c, 0          	CLRF	_LATD
                                           ;	.line	72; /dvpt/pinguino/git/pinguino-ide/pinguino/p8/pinguino/core/io.c	LATE  = 0x00; 
004c08   6a8d     clrf    0x8d, 0          	CLRF	_LATE
                                           ;	.line	75; /dvpt/pinguino/git/pinguino-ide/pinguino/p8/pinguino/core/io.c	TRISA = 0x00;
004c0a   6a92     clrf    0x92, 0          	CLRF	_TRISA
                                           ;	.line	77; /dvpt/pinguino/git/pinguino-ide/pinguino/p8/pinguino/core/io.c	TRISB = 0x00;
004c0c   6a93     clrf    0x93, 0          	CLRF	_TRISB
                                           ;	.line	79; /dvpt/pinguino/git/pinguino-ide/pinguino/p8/pinguino/core/io.c	TRISCbits.TRISC0 = 0x00;
004c0e   9094     bcf     0x94, 0, 0       	BCF	_TRISCbits, 0
                                           ;	.line	80; /dvpt/pinguino/git/pinguino-ide/pinguino/p8/pinguino/core/io.c	TRISCbits.TRISC1 = 0x00;
004c10   9294     bcf     0x94, 0x1, 0     	BCF	_TRISCbits, 1
                                           ;	.line	81; /dvpt/pinguino/git/pinguino-ide/pinguino/p8/pinguino/core/io.c	TRISCbits.TRISC2 = 0x00;
004c12   9494     bcf     0x94, 0x2, 0     	BCF	_TRISCbits, 2
                                           ;	.line	82; /dvpt/pinguino/git/pinguino-ide/pinguino/p8/pinguino/core/io.c	TRISCbits.TRISC6 = 0x00;
004c14   9c94     bcf     0x94, 0x6, 0     	BCF	_TRISCbits, 6
                                           ;	.line	83; /dvpt/pinguino/git/pinguino-ide/pinguino/p8/pinguino/core/io.c	TRISCbits.TRISC7 = 0x00;
004c16   9e94     bcf     0x94, 0x7, 0     	BCF	_TRISCbits, 7
                                           ;	.line	87; /dvpt/pinguino/git/pinguino-ide/pinguino/p8/pinguino/core/io.c	TRISD = 0x00; 
004c18   6a95     clrf    0x95, 0          	CLRF	_TRISD
                                           ;	.line	88; /dvpt/pinguino/git/pinguino-ide/pinguino/p8/pinguino/core/io.c	TRISE = 0x00; 
004c1a   6a96     clrf    0x96, 0          	CLRF	_TRISE
                                           ;	.line	92; /dvpt/pinguino/git/pinguino-ide/pinguino/p8/pinguino/core/io.c	PORTA  = 0x00;
004c1c   6a80     clrf    0x80, 0          	CLRF	_PORTA
                                           ;	.line	93; /dvpt/pinguino/git/pinguino-ide/pinguino/p8/pinguino/core/io.c	PORTB  = 0x00;
004c1e   6a81     clrf    0x81, 0          	CLRF	_PORTB
                                           ;	.line	94; /dvpt/pinguino/git/pinguino-ide/pinguino/p8/pinguino/core/io.c	PORTC  = 0x00;
004c20   6a82     clrf    0x82, 0          	CLRF	_PORTC
                                           ;	.line	98; /dvpt/pinguino/git/pinguino-ide/pinguino/p8/pinguino/core/io.c	PORTD  = 0x00; 
004c22   6a83     clrf    0x83, 0          	CLRF	_PORTD
                                           ;	.line	99; /dvpt/pinguino/git/pinguino-ide/pinguino/p8/pinguino/core/io.c	PORTE  = 0x00; 
004c24   6a84     clrf    0x84, 0          	CLRF	_PORTE
004c26   0012     return  0                	RETURN	
                                           
                                           ; ; Starting pCode block
                                           S_main__I2C_sendNack	code
                                           _I2C_sendNack:
                                           ;	.line	450; /dvpt/pinguino/git/pinguino-ide/pinguino/p8/pinguino/core/i2c.c	void I2C_sendNack()
004a98   c000     movff   0, 0xfe5         	MOVFF	r0x00, POSTDEC1
004a9a   ffe5
004a9c   c001     movff   0x1, 0xfe5       	MOVFF	r0x01, POSTDEC1
004a9e   ffe5
                                           _01790_DS_:
                                           ;	.line	452; /dvpt/pinguino/git/pinguino-ide/pinguino/p8/pinguino/core/i2c.c	I2C_idle();                     // Wait module is inactive
004aa0   0e1f     movlw   0x1f             	MOVLW	0x1f
004aa2   14c5     andwf   0xc5, 0, 0       	ANDWF	_SSPCON2, W
004aa4   6e00     movwf   0, 0             	MOVWF	r0x00
004aa6   6a01     clrf    0x1, 0           	CLRF	r0x01
004aa8   b4c7     btfsc   0xc7, 0x2, 0     	BTFSC	_SSPSTATbits, 2
004aaa   2a01     incf    0x1, 0x1, 0      	INCF	r0x01, F
004aac   5001     movf    0x1, 0, 0        	MOVF	r0x01, W
004aae   1200     iorwf   0, 0x1, 0        	IORWF	r0x00, F
004ab0   5000     movf    0, 0, 0          	MOVF	r0x00, W
004ab2   e1f6     bnz     0x4aa0           	BNZ	_01790_DS_
                                           ;	.line	453; /dvpt/pinguino/git/pinguino-ide/pinguino/p8/pinguino/core/i2c.c	SSPCON2bits.ACKDT = 1;          // We want a No Ack
004ab4   8ac5     bsf     0xc5, 0x5, 0     	BSF	_SSPCON2bits, 5
                                           ;	.line	454; /dvpt/pinguino/git/pinguino-ide/pinguino/p8/pinguino/core/i2c.c	PIR1bits.SSPIF = 0;             // Clear SSP interrupt flag
004ab6   969e     bcf     0x9e, 0x3, 0     	BCF	_PIR1bits, 3
                                           ;	.line	455; /dvpt/pinguino/git/pinguino-ide/pinguino/p8/pinguino/core/i2c.c	SSPCON2bits.ACKEN = 1;          // Send it now
004ab8   88c5     bsf     0xc5, 0x4, 0     	BSF	_SSPCON2bits, 4
                                           _01793_DS_:
                                           ;	.line	456; /dvpt/pinguino/git/pinguino-ide/pinguino/p8/pinguino/core/i2c.c	while (!PIR1bits.SSPIF);        // Wait the interrupt flag is set
004aba   a69e     btfss   0x9e, 0x3, 0     	BTFSS	_PIR1bits, 3
004abc   d7fe     bra     0x4aba           	BRA	_01793_DS_
004abe   cfe4     movff   0xfe4, 0x1       	MOVFF	PREINC1, r0x01
004ac0   f001
004ac2   cfe4     movff   0xfe4, 0         	MOVFF	PREINC1, r0x00
004ac4   f000
004ac6   0012     return  0                	RETURN	
                                           
                                           ; ; Starting pCode block
                                           S_main__I2C_sendAck	code
                                           _I2C_sendAck:
                                           ;	.line	434; /dvpt/pinguino/git/pinguino-ide/pinguino/p8/pinguino/core/i2c.c	void I2C_sendAck()
004ac8   c000     movff   0, 0xfe5         	MOVFF	r0x00, POSTDEC1
004aca   ffe5
004acc   c001     movff   0x1, 0xfe5       	MOVFF	r0x01, POSTDEC1
004ace   ffe5
                                           _01779_DS_:
                                           ;	.line	436; /dvpt/pinguino/git/pinguino-ide/pinguino/p8/pinguino/core/i2c.c	I2C_idle();                     // Wait module is inactive
004ad0   0e1f     movlw   0x1f             	MOVLW	0x1f
004ad2   14c5     andwf   0xc5, 0, 0       	ANDWF	_SSPCON2, W
004ad4   6e00     movwf   0, 0             	MOVWF	r0x00
004ad6   6a01     clrf    0x1, 0           	CLRF	r0x01
004ad8   b4c7     btfsc   0xc7, 0x2, 0     	BTFSC	_SSPSTATbits, 2
004ada   2a01     incf    0x1, 0x1, 0      	INCF	r0x01, F
004adc   5001     movf    0x1, 0, 0        	MOVF	r0x01, W
004ade   1200     iorwf   0, 0x1, 0        	IORWF	r0x00, F
004ae0   5000     movf    0, 0, 0          	MOVF	r0x00, W
004ae2   e1f6     bnz     0x4ad0           	BNZ	_01779_DS_
                                           ;	.line	437; /dvpt/pinguino/git/pinguino-ide/pinguino/p8/pinguino/core/i2c.c	SSPCON2bits.ACKDT = 0;          // We want an Ack
004ae4   9ac5     bcf     0xc5, 0x5, 0     	BCF	_SSPCON2bits, 5
                                           ;	.line	438; /dvpt/pinguino/git/pinguino-ide/pinguino/p8/pinguino/core/i2c.c	PIR1bits.SSPIF = 0;             // Clear SSP interrupt flag
004ae6   969e     bcf     0x9e, 0x3, 0     	BCF	_PIR1bits, 3
                                           ;	.line	439; /dvpt/pinguino/git/pinguino-ide/pinguino/p8/pinguino/core/i2c.c	SSPCON2bits.ACKEN = 1;          // Send it now
004ae8   88c5     bsf     0xc5, 0x4, 0     	BSF	_SSPCON2bits, 4
                                           _01782_DS_:
                                           ;	.line	440; /dvpt/pinguino/git/pinguino-ide/pinguino/p8/pinguino/core/i2c.c	while (!PIR1bits.SSPIF);        // Wait the interrupt flag is set
004aea   a69e     btfss   0x9e, 0x3, 0     	BTFSS	_PIR1bits, 3
004aec   d7fe     bra     0x4aea           	BRA	_01782_DS_
004aee   cfe4     movff   0xfe4, 0x1       	MOVFF	PREINC1, r0x01
004af0   f001
004af2   cfe4     movff   0xfe4, 0         	MOVFF	PREINC1, r0x00
004af4   f000
004af6   0012     return  0                	RETURN	
                                           
                                           ; ; Starting pCode block
                                           S_main__I2C_restart	code
                                           _I2C_restart:
                                           ;	.line	418; /dvpt/pinguino/git/pinguino-ide/pinguino/p8/pinguino/core/i2c.c	void I2C_restart()
004b24   c000     movff   0, 0xfe5         	MOVFF	r0x00, POSTDEC1
004b26   ffe5
004b28   c001     movff   0x1, 0xfe5       	MOVFF	r0x01, POSTDEC1
004b2a   ffe5
                                           _01768_DS_:
                                           ;	.line	420; /dvpt/pinguino/git/pinguino-ide/pinguino/p8/pinguino/core/i2c.c	I2C_idle();                     // Wait module is inactive
004b2c   0e1f     movlw   0x1f             	MOVLW	0x1f
004b2e   14c5     andwf   0xc5, 0, 0       	ANDWF	_SSPCON2, W
004b30   6e00     movwf   0, 0             	MOVWF	r0x00
004b32   6a01     clrf    0x1, 0           	CLRF	r0x01
004b34   b4c7     btfsc   0xc7, 0x2, 0     	BTFSC	_SSPSTATbits, 2
004b36   2a01     incf    0x1, 0x1, 0      	INCF	r0x01, F
004b38   5001     movf    0x1, 0, 0        	MOVF	r0x01, W
004b3a   1200     iorwf   0, 0x1, 0        	IORWF	r0x00, F
004b3c   5000     movf    0, 0, 0          	MOVF	r0x00, W
004b3e   e1f6     bnz     0x4b2c           	BNZ	_01768_DS_
                                           ;	.line	422; /dvpt/pinguino/git/pinguino-ide/pinguino/p8/pinguino/core/i2c.c	SSPCON2bits.RSEN = 1;           // Send restart bit
004b40   82c5     bsf     0xc5, 0x1, 0     	BSF	_SSPCON2bits, 1
                                           _01771_DS_:
                                           ;	.line	423; /dvpt/pinguino/git/pinguino-ide/pinguino/p8/pinguino/core/i2c.c	while (SSPCON2bits.RSEN);       // Wait until RSEN is cleared  
004b42   b2c5     btfsc   0xc5, 0x1, 0     	BTFSC	_SSPCON2bits, 1
004b44   d7fe     bra     0x4b42           	BRA	_01771_DS_
004b46   cfe4     movff   0xfe4, 0x1       	MOVFF	PREINC1, r0x01
004b48   f001
004b4a   cfe4     movff   0xfe4, 0         	MOVFF	PREINC1, r0x00
004b4c   f000
004b4e   0012     return  0                	RETURN	
                                           
                                           ; ; Starting pCode block
                                           S_main__I2C_stop	code
                                           _I2C_stop:
                                           ;	.line	403; /dvpt/pinguino/git/pinguino-ide/pinguino/p8/pinguino/core/i2c.c	void I2C_stop()
004b50   c000     movff   0, 0xfe5         	MOVFF	r0x00, POSTDEC1
004b52   ffe5
004b54   c001     movff   0x1, 0xfe5       	MOVFF	r0x01, POSTDEC1
004b56   ffe5
                                           _01757_DS_:
                                           ;	.line	405; /dvpt/pinguino/git/pinguino-ide/pinguino/p8/pinguino/core/i2c.c	I2C_idle();                     // Wait module is inactive
004b58   0e1f     movlw   0x1f             	MOVLW	0x1f
004b5a   14c5     andwf   0xc5, 0, 0       	ANDWF	_SSPCON2, W
004b5c   6e00     movwf   0, 0             	MOVWF	r0x00
004b5e   6a01     clrf    0x1, 0           	CLRF	r0x01
004b60   b4c7     btfsc   0xc7, 0x2, 0     	BTFSC	_SSPSTATbits, 2
004b62   2a01     incf    0x1, 0x1, 0      	INCF	r0x01, F
004b64   5001     movf    0x1, 0, 0        	MOVF	r0x01, W
004b66   1200     iorwf   0, 0x1, 0        	IORWF	r0x00, F
004b68   5000     movf    0, 0, 0          	MOVF	r0x00, W
004b6a   e1f6     bnz     0x4b58           	BNZ	_01757_DS_
                                           ;	.line	407; /dvpt/pinguino/git/pinguino-ide/pinguino/p8/pinguino/core/i2c.c	SSPCON2bits.PEN = 1;            // Send stop bit
004b6c   84c5     bsf     0xc5, 0x2, 0     	BSF	_SSPCON2bits, 2
                                           _01760_DS_:
                                           ;	.line	408; /dvpt/pinguino/git/pinguino-ide/pinguino/p8/pinguino/core/i2c.c	while (SSPCON2bits.PEN);        // Wait until PEN is cleared 
004b6e   b4c5     btfsc   0xc5, 0x2, 0     	BTFSC	_SSPCON2bits, 2
004b70   d7fe     bra     0x4b6e           	BRA	_01760_DS_
004b72   cfe4     movff   0xfe4, 0x1       	MOVFF	PREINC1, r0x01
004b74   f001
004b76   cfe4     movff   0xfe4, 0         	MOVFF	PREINC1, r0x00
004b78   f000
004b7a   0012     return  0                	RETURN	
                                           
                                           ; ; Starting pCode block
                                           S_main__I2C_start	code
                                           _I2C_start:
                                           ;	.line	386; /dvpt/pinguino/git/pinguino-ide/pinguino/p8/pinguino/core/i2c.c	void I2C_start()
004b7c   c000     movff   0, 0xfe5         	MOVFF	r0x00, POSTDEC1
004b7e   ffe5
004b80   c001     movff   0x1, 0xfe5       	MOVFF	r0x01, POSTDEC1
004b82   ffe5
                                           _01746_DS_:
                                           ;	.line	388; /dvpt/pinguino/git/pinguino-ide/pinguino/p8/pinguino/core/i2c.c	I2C_idle();                     // Wait module is inactive
004b84   0e1f     movlw   0x1f             	MOVLW	0x1f
004b86   14c5     andwf   0xc5, 0, 0       	ANDWF	_SSPCON2, W
004b88   6e00     movwf   0, 0             	MOVWF	r0x00
004b8a   6a01     clrf    0x1, 0           	CLRF	r0x01
004b8c   b4c7     btfsc   0xc7, 0x2, 0     	BTFSC	_SSPSTATbits, 2
004b8e   2a01     incf    0x1, 0x1, 0      	INCF	r0x01, F
004b90   5001     movf    0x1, 0, 0        	MOVF	r0x01, W
004b92   1200     iorwf   0, 0x1, 0        	IORWF	r0x00, F
004b94   5000     movf    0, 0, 0          	MOVF	r0x00, W
004b96   e1f6     bnz     0x4b84           	BNZ	_01746_DS_
                                           ;	.line	390; /dvpt/pinguino/git/pinguino-ide/pinguino/p8/pinguino/core/i2c.c	SSPCON2bits.SEN = 1;            // Send start bit
004b98   80c5     bsf     0xc5, 0, 0       	BSF	_SSPCON2bits, 0
                                           _01749_DS_:
                                           ;	.line	391; /dvpt/pinguino/git/pinguino-ide/pinguino/p8/pinguino/core/i2c.c	while (SSPCON2bits.SEN);        // Wait until SEN is cleared 
004b9a   b0c5     btfsc   0xc5, 0, 0       	BTFSC	_SSPCON2bits, 0
004b9c   d7fe     bra     0x4b9a           	BRA	_01749_DS_
004b9e   cfe4     movff   0xfe4, 0x1       	MOVFF	PREINC1, r0x01
004ba0   f001
004ba2   cfe4     movff   0xfe4, 0         	MOVFF	PREINC1, r0x00
004ba4   f000
004ba6   0012     return  0                	RETURN	
                                           
                                           ; ; Starting pCode block
                                           S_main__I2C_wait	code
                                           _I2C_wait:
                                           _01738_DS_:
                                           ;	.line	332; /dvpt/pinguino/git/pinguino-ide/pinguino/p8/pinguino/core/i2c.c	while (!PIR1bits.SSPIF);        // Wait the interrupt flag is set
004d30   a69e     btfss   0x9e, 0x3, 0     	BTFSS	_PIR1bits, 3
004d32   d7fe     bra     0x4d30           	BRA	_01738_DS_
                                           ;	.line	333; /dvpt/pinguino/git/pinguino-ide/pinguino/p8/pinguino/core/i2c.c	PIR1bits.SSPIF = 0;             // Clear SSP interrupt flag
004d34   969e     bcf     0x9e, 0x3, 0     	BCF	_PIR1bits, 3
004d36   0012     return  0                	RETURN	
                                           
                                           ; ; Starting pCode block
                                           S_main__I2C_read	code
                                           _I2C_read:
                                           ;	.line	290; /dvpt/pinguino/git/pinguino-ide/pinguino/p8/pinguino/core/i2c.c	u8 I2C_read()
004a32   c000     movff   0, 0xfe5         	MOVFF	r0x00, POSTDEC1
004a34   ffe5
004a36   c001     movff   0x1, 0xfe5       	MOVFF	r0x01, POSTDEC1
004a38   ffe5
                                           _01727_DS_:
                                           ;	.line	294; /dvpt/pinguino/git/pinguino-ide/pinguino/p8/pinguino/core/i2c.c	I2C_idle();                 // Wait the MSSP module is inactive
004a3a   0e1f     movlw   0x1f             	MOVLW	0x1f
004a3c   14c5     andwf   0xc5, 0, 0       	ANDWF	_SSPCON2, W
004a3e   6e00     movwf   0, 0             	MOVWF	r0x00
004a40   6a01     clrf    0x1, 0           	CLRF	r0x01
004a42   b4c7     btfsc   0xc7, 0x2, 0     	BTFSC	_SSPSTATbits, 2
004a44   2a01     incf    0x1, 0x1, 0      	INCF	r0x01, F
004a46   5001     movf    0x1, 0, 0        	MOVF	r0x01, W
004a48   1200     iorwf   0, 0x1, 0        	IORWF	r0x00, F
004a4a   5000     movf    0, 0, 0          	MOVF	r0x00, W
004a4c   e1f6     bnz     0x4a3a           	BNZ	_01727_DS_
                                           ;	.line	296; /dvpt/pinguino/git/pinguino-ide/pinguino/p8/pinguino/core/i2c.c	SSPCON2bits.RCEN = 1;       // Initiate reception of byte
004a4e   86c5     bsf     0xc5, 0x3, 0     	BSF	_SSPCON2bits, 3
                                           ;	.line	299; /dvpt/pinguino/git/pinguino-ide/pinguino/p8/pinguino/core/i2c.c	PIR1bits.SSPIF = 0;         // Clear SSP interrupt flag
004a50   969e     bcf     0x9e, 0x3, 0     	BCF	_PIR1bits, 3
                                           _01730_DS_:
                                           ;	.line	303; /dvpt/pinguino/git/pinguino-ide/pinguino/p8/pinguino/core/i2c.c	while (!PIR1bits.SSPIF);    // Wait the interrupt flag is set
004a52   a69e     btfss   0x9e, 0x3, 0     	BTFSS	_PIR1bits, 3
004a54   d7fe     bra     0x4a52           	BRA	_01730_DS_
                                           ;	.line	304; /dvpt/pinguino/git/pinguino-ide/pinguino/p8/pinguino/core/i2c.c	PIR1bits.SSPIF=0; // ROlf clear SSPIF
004a56   969e     bcf     0x9e, 0x3, 0     	BCF	_PIR1bits, 3
                                           ;	.line	306; /dvpt/pinguino/git/pinguino-ide/pinguino/p8/pinguino/core/i2c.c	PIR1bits.SSPIF=0; // ROlf clear SSPIF
004a58   969e     bcf     0x9e, 0x3, 0     	BCF	_PIR1bits, 3
                                           ;	.line	311; /dvpt/pinguino/git/pinguino-ide/pinguino/p8/pinguino/core/i2c.c	return SSPBUF;
004a5a   50c9     movf    0xc9, 0, 0       	MOVF	_SSPBUF, W
004a5c   cfe4     movff   0xfe4, 0x1       	MOVFF	PREINC1, r0x01
004a5e   f001
004a60   cfe4     movff   0xfe4, 0         	MOVFF	PREINC1, r0x00
004a62   f000
004a64   0012     return  0                	RETURN	
                                           
                                           ; ; Starting pCode block
                                           S_main__I2C_write	code
                                           _I2C_write:
                                           ;	.line	256; /dvpt/pinguino/git/pinguino-ide/pinguino/p8/pinguino/core/i2c.c	u8 I2C_write(u8 value)
0046f6   cfd9     movff   0xfd9, 0xfe5     	MOVFF	FSR2L, POSTDEC1
0046f8   ffe5
0046fa   cfe1     movff   0xfe1, 0xfd9     	MOVFF	FSR1L, FSR2L
0046fc   ffd9
0046fe   c000     movff   0, 0xfe5         	MOVFF	r0x00, POSTDEC1
004700   ffe5
004702   c001     movff   0x1, 0xfe5       	MOVFF	r0x01, POSTDEC1
004704   ffe5
004706   c002     movff   0x2, 0xfe5       	MOVFF	r0x02, POSTDEC1
004708   ffe5
00470a   0e02     movlw   0x2              	MOVLW	0x02
00470c   cfdb     movff   0xfdb, 0         	MOVFF	PLUSW2, r0x00
00470e   f000
                                           _01716_DS_:
                                           ;	.line	258; /dvpt/pinguino/git/pinguino-ide/pinguino/p8/pinguino/core/i2c.c	I2C_idle();                     // Wait the MSSP module is inactive
004710   0e1f     movlw   0x1f             	MOVLW	0x1f
004712   14c5     andwf   0xc5, 0, 0       	ANDWF	_SSPCON2, W
004714   6e01     movwf   0x1, 0           	MOVWF	r0x01
004716   6a02     clrf    0x2, 0           	CLRF	r0x02
004718   b4c7     btfsc   0xc7, 0x2, 0     	BTFSC	_SSPSTATbits, 2
00471a   2a02     incf    0x2, 0x1, 0      	INCF	r0x02, F
00471c   5002     movf    0x2, 0, 0        	MOVF	r0x02, W
00471e   1201     iorwf   0x1, 0x1, 0      	IORWF	r0x01, F
004720   5001     movf    0x1, 0, 0        	MOVF	r0x01, W
004722   e1f6     bnz     0x4710           	BNZ	_01716_DS_
                                           ;	.line	259; /dvpt/pinguino/git/pinguino-ide/pinguino/p8/pinguino/core/i2c.c	SSPBUF = value;                 // Write byte to SSPBUF (BF is set to 1)
004724   c000     movff   0, 0xfc9         	MOVFF	r0x00, _SSPBUF
004726   ffc9
                                           _01719_DS_:
                                           ;	.line	260; /dvpt/pinguino/git/pinguino-ide/pinguino/p8/pinguino/core/i2c.c	I2C_idle();                     // Wait the MSSP module is inactive
004728   0e1f     movlw   0x1f             	MOVLW	0x1f
00472a   14c5     andwf   0xc5, 0, 0       	ANDWF	_SSPCON2, W
00472c   6e00     movwf   0, 0             	MOVWF	r0x00
00472e   6a01     clrf    0x1, 0           	CLRF	r0x01
004730   b4c7     btfsc   0xc7, 0x2, 0     	BTFSC	_SSPSTATbits, 2
004732   2a01     incf    0x1, 0x1, 0      	INCF	r0x01, F
004734   5001     movf    0x1, 0, 0        	MOVF	r0x01, W
004736   1200     iorwf   0, 0x1, 0        	IORWF	r0x00, F
004738   5000     movf    0, 0, 0          	MOVF	r0x00, W
00473a   e1f6     bnz     0x4728           	BNZ	_01719_DS_
                                           ;	.line	271; /dvpt/pinguino/git/pinguino-ide/pinguino/p8/pinguino/core/i2c.c	return (!SSPCON2bits.ACKSTAT);  // 1 if Ack, 0 if NAck
00473c   6a00     clrf    0, 0             	CLRF	r0x00
00473e   bcc5     btfsc   0xc5, 0x6, 0     	BTFSC	_SSPCON2bits, 6
004740   2a00     incf    0, 0x1, 0        	INCF	r0x00, F
004742   5000     movf    0, 0, 0          	MOVF	r0x00, W
004744   80d8     bsf     0xd8, 0, 0       	BSF	STATUS, 0
004746   66e8     tstfsz  0xe8, 0          	TSTFSZ	WREG
004748   90d8     bcf     0xd8, 0, 0       	BCF	STATUS, 0
00474a   6a00     clrf    0, 0             	CLRF	r0x00
00474c   3600     rlcf    0, 0x1, 0        	RLCF	r0x00, F
00474e   5000     movf    0, 0, 0          	MOVF	r0x00, W
004750   cfe4     movff   0xfe4, 0x2       	MOVFF	PREINC1, r0x02
004752   f002
004754   cfe4     movff   0xfe4, 0x1       	MOVFF	PREINC1, r0x01
004756   f001
004758   cfe4     movff   0xfe4, 0         	MOVFF	PREINC1, r0x00
00475a   f000
00475c   cfe4     movff   0xfe4, 0xfd9     	MOVFF	PREINC1, FSR2L
00475e   ffd9
004760   0012     return  0                	RETURN	
                                           
                                           ; ; Starting pCode block
                                           S_main__I2C_init	code
                                           _I2C_init:
                                           ;	.line	167; /dvpt/pinguino/git/pinguino-ide/pinguino/p8/pinguino/core/i2c.c	void I2C_init(u8 mode, u16 sora)
003ebe   cfd9     movff   0xfd9, 0xfe5     	MOVFF	FSR2L, POSTDEC1
003ec0   ffe5
003ec2   cfe1     movff   0xfe1, 0xfd9     	MOVFF	FSR1L, FSR2L
003ec4   ffd9
003ec6   c000     movff   0, 0xfe5         	MOVFF	r0x00, POSTDEC1
003ec8   ffe5
003eca   c001     movff   0x1, 0xfe5       	MOVFF	r0x01, POSTDEC1
003ecc   ffe5
003ece   c002     movff   0x2, 0xfe5       	MOVFF	r0x02, POSTDEC1
003ed0   ffe5
003ed2   0e02     movlw   0x2              	MOVLW	0x02
003ed4   cfdb     movff   0xfdb, 0         	MOVFF	PLUSW2, r0x00
003ed6   f000
003ed8   0e03     movlw   0x3              	MOVLW	0x03
003eda   cfdb     movff   0xfdb, 0x1       	MOVFF	PLUSW2, r0x01
003edc   f001
003ede   0e04     movlw   0x4              	MOVLW	0x04
003ee0   cfdb     movff   0xfdb, 0x2       	MOVFF	PLUSW2, r0x02
003ee2   f002
                                           ;	.line	172; /dvpt/pinguino/git/pinguino-ide/pinguino/p8/pinguino/core/i2c.c	TRISBbits.TRISB5 = INPUT;			// SDA = INPUT
003ee4   8a93     bsf     0x93, 0x5, 0     	BSF	_TRISBbits, 5
                                           ;	.line	173; /dvpt/pinguino/git/pinguino-ide/pinguino/p8/pinguino/core/i2c.c	TRISBbits.TRISB4 = INPUT;			// SCL = INPUT
003ee6   8893     bsf     0x93, 0x4, 0     	BSF	_TRISBbits, 4
                                           ;	.line	180; /dvpt/pinguino/git/pinguino-ide/pinguino/p8/pinguino/core/i2c.c	switch (mode)
003ee8   5000     movf    0, 0, 0          	MOVF	r0x00, W
003eea   e011     bz      0x3f0e           	BZ	_01674_DS_
003eec   5000     movf    0, 0, 0          	MOVF	r0x00, W
003eee   0a01     xorlw   0x1              	XORLW	0x01
003ef0   e10e     bnz     0x3f0e           	BNZ	_01674_DS_
                                           ;	.line	187; /dvpt/pinguino/git/pinguino-ide/pinguino/p8/pinguino/core/i2c.c	if (sora > 0x80)
003ef2   0e00     movlw   0                	MOVLW	0x00
003ef4   5c02     subwf   0x2, 0, 0        	SUBWF	r0x02, W
003ef6   e102     bnz     0x3efc           	BNZ	_01705_DS_
003ef8   0e81     movlw   0x81             	MOVLW	0x81
003efa   5c01     subwf   0x1, 0, 0        	SUBWF	r0x01, W
                                           _01705_DS_:
003efc   e303     bnc     0x3f04           	BNC	_01671_DS_
                                           ;	.line	188; /dvpt/pinguino/git/pinguino-ide/pinguino/p8/pinguino/core/i2c.c	SSPCON1= 0b00101111;	// Slave mode, 10-bit address with Start and Stop bit interrupts enabled
003efe   0e2f     movlw   0x2f             	MOVLW	0x2f
003f00   6ec6     movwf   0xc6, 0          	MOVWF	_SSPCON1
003f02   d002     bra     0x3f08           	BRA	_01672_DS_
                                           _01671_DS_:
                                           ;	.line	190; /dvpt/pinguino/git/pinguino-ide/pinguino/p8/pinguino/core/i2c.c	SSPCON1= 0b00101110;	// 00101110Slave mode,  7-bit address with Start and Stop bit interrupts enabled
003f04   0e2e     movlw   0x2e             	MOVLW	0x2e
003f06   6ec6     movwf   0xc6, 0          	MOVWF	_SSPCON1
                                           _01672_DS_:
                                           ;	.line	192; /dvpt/pinguino/git/pinguino-ide/pinguino/p8/pinguino/core/i2c.c	SSPADD= sora;				// Slave 7-bit address
003f08   5001     movf    0x1, 0, 0        	MOVF	r0x01, W
003f0a   6ec8     movwf   0xc8, 0          	MOVWF	_SSPADD
                                           ;	.line	195; /dvpt/pinguino/git/pinguino-ide/pinguino/p8/pinguino/core/i2c.c	break;
003f0c   d01f     bra     0x3f4c           	BRA	_01680_DS_
                                           _01674_DS_:
                                           ;	.line	199; /dvpt/pinguino/git/pinguino-ide/pinguino/p8/pinguino/core/i2c.c	SSPCON1= 0b00101000;		// Master Mode, clock = FOSC/(4 * (SSPADD + 1))
003f0e   0e28     movlw   0x28             	MOVLW	0x28
003f10   6ec6     movwf   0xc6, 0          	MOVWF	_SSPCON1
                                           ;	.line	201; /dvpt/pinguino/git/pinguino-ide/pinguino/p8/pinguino/core/i2c.c	switch (sora)
003f12   5001     movf    0x1, 0, 0        	MOVF	r0x01, W
003f14   0a64     xorlw   0x64             	XORLW	0x64
003f16   e102     bnz     0x3f1c           	BNZ	_01707_DS_
003f18   5002     movf    0x2, 0, 0        	MOVF	r0x02, W
003f1a   e015     bz      0x3f46           	BZ	_01678_DS_
                                           _01707_DS_:
003f1c   5001     movf    0x1, 0, 0        	MOVF	r0x01, W
003f1e   0a90     xorlw   0x90             	XORLW	0x90
003f20   e103     bnz     0x3f28           	BNZ	_01709_DS_
003f22   5002     movf    0x2, 0, 0        	MOVF	r0x02, W
003f24   0a01     xorlw   0x1              	XORLW	0x01
003f26   e00b     bz      0x3f3e           	BZ	_01676_DS_
                                           _01709_DS_:
003f28   5001     movf    0x1, 0, 0        	MOVF	r0x01, W
003f2a   0ae8     xorlw   0xe8             	XORLW	0xe8
003f2c   e103     bnz     0x3f34           	BNZ	_01710_DS_
003f2e   5002     movf    0x2, 0, 0        	MOVF	r0x02, W
003f30   0a03     xorlw   0x3              	XORLW	0x03
003f32   e001     bz      0x3f36           	BZ	_01711_DS_
                                           _01710_DS_:
003f34   d008     bra     0x3f46           	BRA	_01678_DS_
                                           _01711_DS_:
                                           ;	.line	205; /dvpt/pinguino/git/pinguino-ide/pinguino/p8/pinguino/core/i2c.c	SSPSTATbits.SMP = 1;    // Slew Mode Off
003f36   8ec7     bsf     0xc7, 0x7, 0     	BSF	_SSPSTATbits, 7
                                           ;	.line	206; /dvpt/pinguino/git/pinguino-ide/pinguino/p8/pinguino/core/i2c.c	SSPADD= 11;            // 1MHz = FOSC/(4 * (SSPADD + 1))
003f38   0e0b     movlw   0xb              	MOVLW	0x0b
003f3a   6ec8     movwf   0xc8, 0          	MOVWF	_SSPADD
                                           ;	.line	207; /dvpt/pinguino/git/pinguino-ide/pinguino/p8/pinguino/core/i2c.c	break;                  // SSPADD = 48 000 / (4*1000) - 1
003f3c   d007     bra     0x3f4c           	BRA	_01680_DS_
                                           _01676_DS_:
                                           ;	.line	211; /dvpt/pinguino/git/pinguino-ide/pinguino/p8/pinguino/core/i2c.c	SSPSTATbits.SMP = 0;    // Slew Mode On
003f3e   9ec7     bcf     0xc7, 0x7, 0     	BCF	_SSPSTATbits, 7
                                           ;	.line	212; /dvpt/pinguino/git/pinguino-ide/pinguino/p8/pinguino/core/i2c.c	SSPADD= 29;            // 400kHz = FOSC/(4 * (SSPADD + 1))
003f40   0e1d     movlw   0x1d             	MOVLW	0x1d
003f42   6ec8     movwf   0xc8, 0          	MOVWF	_SSPADD
                                           ;	.line	213; /dvpt/pinguino/git/pinguino-ide/pinguino/p8/pinguino/core/i2c.c	break;           // SSPADD = 48 000 / (4*400) - 1
003f44   d003     bra     0x3f4c           	BRA	_01680_DS_
                                           _01678_DS_:
                                           ;	.line	217; /dvpt/pinguino/git/pinguino-ide/pinguino/p8/pinguino/core/i2c.c	SSPSTATbits.SMP = 1;    // Slew Mode Off
003f46   8ec7     bsf     0xc7, 0x7, 0     	BSF	_SSPSTATbits, 7
                                           ;	.line	218; /dvpt/pinguino/git/pinguino-ide/pinguino/p8/pinguino/core/i2c.c	SSPADD= 119;           // 100kHz = FOSC/(4 * (SSPADD + 1))
003f48   0e77     movlw   0x77             	MOVLW	0x77
003f4a   6ec8     movwf   0xc8, 0          	MOVWF	_SSPADD
                                           _01680_DS_:
                                           ;	.line	223; /dvpt/pinguino/git/pinguino-ide/pinguino/p8/pinguino/core/i2c.c	SSPCON2= 0;
003f4c   6ac5     clrf    0xc5, 0          	CLRF	_SSPCON2
                                           ;	.line	224; /dvpt/pinguino/git/pinguino-ide/pinguino/p8/pinguino/core/i2c.c	PIR1bits.SSPIF = 0; // MSSP Interrupt Flag
003f4e   969e     bcf     0x9e, 0x3, 0     	BCF	_PIR1bits, 3
                                           ;	.line	225; /dvpt/pinguino/git/pinguino-ide/pinguino/p8/pinguino/core/i2c.c	PIR2bits.BCLIF = 0; // Bus Collision Interrupt Flag
003f50   96a1     bcf     0xa1, 0x3, 0     	BCF	_PIR2bits, 3
003f52   cfe4     movff   0xfe4, 0x2       	MOVFF	PREINC1, r0x02
003f54   f002
003f56   cfe4     movff   0xfe4, 0x1       	MOVFF	PREINC1, r0x01
003f58   f001
003f5a   cfe4     movff   0xfe4, 0         	MOVFF	PREINC1, r0x00
003f5c   f000
003f5e   cfe4     movff   0xfe4, 0xfd9     	MOVFF	PREINC1, FSR2L
003f60   ffd9
003f62   0012     return  0                	RETURN	
                                           
                                           ; ; Starting pCode block
                                           S_main__I2C_slave	code
                                           _I2C_slave:
                                           ;	.line	149; /dvpt/pinguino/git/pinguino-ide/pinguino/p8/pinguino/core/i2c.c	void I2C_slave(u16 DeviceID)   
004980   cfd9     movff   0xfd9, 0xfe5     	MOVFF	FSR2L, POSTDEC1
004982   ffe5
004984   cfe1     movff   0xfe1, 0xfd9     	MOVFF	FSR1L, FSR2L
004986   ffd9
004988   c000     movff   0, 0xfe5         	MOVFF	r0x00, POSTDEC1
00498a   ffe5
00498c   c001     movff   0x1, 0xfe5       	MOVFF	r0x01, POSTDEC1
00498e   ffe5
004990   0e02     movlw   0x2              	MOVLW	0x02
004992   cfdb     movff   0xfdb, 0         	MOVFF	PLUSW2, r0x00
004994   f000
004996   0e03     movlw   0x3              	MOVLW	0x03
004998   cfdb     movff   0xfdb, 0x1       	MOVFF	PLUSW2, r0x01
00499a   f001
                                           ;	.line	151; /dvpt/pinguino/git/pinguino-ide/pinguino/p8/pinguino/core/i2c.c	I2C_init(I2C_SLAVE_MODE, DeviceID);
00499c   5001     movf    0x1, 0, 0        	MOVF	r0x01, W
00499e   6ee5     movwf   0xe5, 0          	MOVWF	POSTDEC1
0049a0   5000     movf    0, 0, 0          	MOVF	r0x00, W
0049a2   6ee5     movwf   0xe5, 0          	MOVWF	POSTDEC1
0049a4   0e01     movlw   0x1              	MOVLW	0x01
0049a6   6ee5     movwf   0xe5, 0          	MOVWF	POSTDEC1
0049a8   ec5f     call    0x3ebe, 0        	CALL	_I2C_init
0049aa   f01f
0049ac   0e03     movlw   0x3              	MOVLW	0x03
0049ae   26e1     addwf   0xe1, 0x1, 0     	ADDWF	FSR1L, F
0049b0   cfe4     movff   0xfe4, 0x1       	MOVFF	PREINC1, r0x01
0049b2   f001
0049b4   cfe4     movff   0xfe4, 0         	MOVFF	PREINC1, r0x00
0049b6   f000
0049b8   cfe4     movff   0xfe4, 0xfd9     	MOVFF	PREINC1, FSR2L
0049ba   ffd9
0049bc   0012     return  0                	RETURN	
                                           
                                           ; ; Starting pCode block
                                           S_main__I2C_master	code
                                           _I2C_master:
                                           ;	.line	144; /dvpt/pinguino/git/pinguino-ide/pinguino/p8/pinguino/core/i2c.c	void I2C_master(u16 speed)   
0049be   cfd9     movff   0xfd9, 0xfe5     	MOVFF	FSR2L, POSTDEC1
0049c0   ffe5
0049c2   cfe1     movff   0xfe1, 0xfd9     	MOVFF	FSR1L, FSR2L
0049c4   ffd9
0049c6   c000     movff   0, 0xfe5         	MOVFF	r0x00, POSTDEC1
0049c8   ffe5
0049ca   c001     movff   0x1, 0xfe5       	MOVFF	r0x01, POSTDEC1
0049cc   ffe5
0049ce   0e02     movlw   0x2              	MOVLW	0x02
0049d0   cfdb     movff   0xfdb, 0         	MOVFF	PLUSW2, r0x00
0049d2   f000
0049d4   0e03     movlw   0x3              	MOVLW	0x03
0049d6   cfdb     movff   0xfdb, 0x1       	MOVFF	PLUSW2, r0x01
0049d8   f001
                                           ;	.line	146; /dvpt/pinguino/git/pinguino-ide/pinguino/p8/pinguino/core/i2c.c	I2C_init(I2C_MASTER_MODE, speed);
0049da   5001     movf    0x1, 0, 0        	MOVF	r0x01, W
0049dc   6ee5     movwf   0xe5, 0          	MOVWF	POSTDEC1
0049de   5000     movf    0, 0, 0          	MOVF	r0x00, W
0049e0   6ee5     movwf   0xe5, 0          	MOVWF	POSTDEC1
0049e2   0e00     movlw   0                	MOVLW	0x00
0049e4   6ae5     clrf    0xe5, 0          	CLRF	POSTDEC1
0049e6   ec5f     call    0x3ebe, 0        	CALL	_I2C_init
0049e8   f01f
0049ea   0e03     movlw   0x3              	MOVLW	0x03
0049ec   26e1     addwf   0xe1, 0x1, 0     	ADDWF	FSR1L, F
0049ee   cfe4     movff   0xfe4, 0x1       	MOVFF	PREINC1, r0x01
0049f0   f001
0049f2   cfe4     movff   0xfe4, 0         	MOVFF	PREINC1, r0x00
0049f4   f000
0049f6   cfe4     movff   0xfe4, 0xfd9     	MOVFF	PREINC1, FSR2L
0049f8   ffd9
0049fa   0012     return  0                	RETURN	
                                           
                                           ; ; Starting pCode block
                                           S_main__toggle	code
                                           _toggle:
                                           ;	.line	351; /dvpt/pinguino/git/pinguino-ide/pinguino/p8/pinguino/core/digitalw.c	void toggle(unsigned char pin)
0048fe   cfd9     movff   0xfd9, 0xfe5     	MOVFF	FSR2L, POSTDEC1
004900   ffe5
004902   cfe1     movff   0xfe1, 0xfd9     	MOVFF	FSR1L, FSR2L
004904   ffd9
004906   c000     movff   0, 0xfe5         	MOVFF	r0x00, POSTDEC1
004908   ffe5
00490a   c001     movff   0x1, 0xfe5       	MOVFF	r0x01, POSTDEC1
00490c   ffe5
00490e   0e02     movlw   0x2              	MOVLW	0x02
004910   cfdb     movff   0xfdb, 0         	MOVFF	PLUSW2, r0x00
004912   f000
                                           ;	.line	362; /dvpt/pinguino/git/pinguino-ide/pinguino/p8/pinguino/core/digitalw.c	state = digitalread(pin);
004914   5000     movf    0, 0, 0          	MOVF	r0x00, W
004916   6ee5     movwf   0xe5, 0          	MOVWF	POSTDEC1
004918   ec1c     call    0x2e38, 0        	CALL	_digitalread
00491a   f017
00491c   6e01     movwf   0x1, 0           	MOVWF	r0x01
00491e   52e6     movf    0xe6, 0x1, 0     	MOVF	POSTINC1, F
                                           ;	.line	363; /dvpt/pinguino/git/pinguino-ide/pinguino/p8/pinguino/core/digitalw.c	digitalwrite(pin, state^1);
004920   7001     btg     0x1, 0, 0        	BTG	r0x01, 0
004922   5001     movf    0x1, 0, 0        	MOVF	r0x01, W
004924   6ee5     movwf   0xe5, 0          	MOVWF	POSTDEC1
004926   5000     movf    0, 0, 0          	MOVF	r0x00, W
004928   6ee5     movwf   0xe5, 0          	MOVWF	POSTDEC1
00492a   ec5c     call    0x24b8, 0        	CALL	_digitalwrite
00492c   f012
00492e   52e6     movf    0xe6, 0x1, 0     	MOVF	POSTINC1, F
004930   52e6     movf    0xe6, 0x1, 0     	MOVF	POSTINC1, F
004932   cfe4     movff   0xfe4, 0x1       	MOVFF	PREINC1, r0x01
004934   f001
004936   cfe4     movff   0xfe4, 0         	MOVFF	PREINC1, r0x00
004938   f000
00493a   cfe4     movff   0xfe4, 0xfd9     	MOVFF	PREINC1, FSR2L
00493c   ffd9
00493e   0012     return  0                	RETURN	
                                           
                                           ; ; Starting pCode block
                                           S_main__pinmode	code
                                           _pinmode:
                                           ;	.line	307; /dvpt/pinguino/git/pinguino-ide/pinguino/p8/pinguino/core/digitalw.c	void pinmode(unsigned char pin, unsigned char state)
00225a   cfd9     movff   0xfd9, 0xfe5     	MOVFF	FSR2L, POSTDEC1
00225c   ffe5
00225e   cfe1     movff   0xfe1, 0xfd9     	MOVFF	FSR1L, FSR2L
002260   ffd9
002262   c000     movff   0, 0xfe5         	MOVFF	r0x00, POSTDEC1
002264   ffe5
002266   c001     movff   0x1, 0xfe5       	MOVFF	r0x01, POSTDEC1
002268   ffe5
00226a   c002     movff   0x2, 0xfe5       	MOVFF	r0x02, POSTDEC1
00226c   ffe5
00226e   c003     movff   0x3, 0xfe5       	MOVFF	r0x03, POSTDEC1
002270   ffe5
002272   c004     movff   0x4, 0xfe5       	MOVFF	r0x04, POSTDEC1
002274   ffe5
002276   0e02     movlw   0x2              	MOVLW	0x02
002278   cfdb     movff   0xfdb, 0         	MOVFF	PLUSW2, r0x00
00227a   f000
00227c   0e03     movlw   0x3              	MOVLW	0x03
00227e   cfdb     movff   0xfdb, 0x1       	MOVFF	PLUSW2, r0x01
002280   f001
                                           ;	.line	309; /dvpt/pinguino/git/pinguino-ide/pinguino/p8/pinguino/core/digitalw.c	switch (port[pin])
002282   0ee6     movlw   0xe6             	MOVLW	LOW(_port)
002284   2400     addwf   0, 0, 0          	ADDWF	r0x00, W
002286   6e02     movwf   0x2, 0           	MOVWF	r0x02
002288   6a03     clrf    0x3, 0           	CLRF	r0x03
00228a   0e27     movlw   0x27             	MOVLW	HIGH(_port)
00228c   2203     addwfc  0x3, 0x1, 0      	ADDWFC	r0x03, F
00228e   6a04     clrf    0x4, 0           	CLRF	r0x04
002290   0e00     movlw   0                	MOVLW	UPPER(_port)
002292   2204     addwfc  0x4, 0x1, 0      	ADDWFC	r0x04, F
002294   c002     movff   0x2, 0xff6       	MOVFF	r0x02, TBLPTRL
002296   fff6
002298   c003     movff   0x3, 0xff7       	MOVFF	r0x03, TBLPTRH
00229a   fff7
00229c   c004     movff   0x4, 0xff8       	MOVFF	r0x04, TBLPTRU
00229e   fff8
0022a0   0009     tblrd   *+               	TBLRD*+	
0022a2   cff5     movff   0xff5, 0x2       	MOVFF	TABLAT, r0x02
0022a4   f002
0022a6   0e05     movlw   0x5              	MOVLW	0x05
0022a8   5c02     subwf   0x2, 0, 0        	SUBWF	r0x02, W
0022aa   b0d8     btfsc   0xd8, 0, 0       	BTFSC	STATUS, 0
0022ac   d0f8     bra     0x249e           	BRA	_01628_DS_
0022ae   6afa     clrf    0xfa, 0          	CLRF	PCLATH
0022b0   6afb     clrf    0xfb, 0          	CLRF	PCLATU
0022b2   3402     rlcf    0x2, 0, 0        	RLCF	r0x02, W
0022b4   36fa     rlcf    0xfa, 0x1, 0     	RLCF	PCLATH, F
0022b6   34e8     rlcf    0xe8, 0, 0       	RLCF	WREG, W
0022b8   36fa     rlcf    0xfa, 0x1, 0     	RLCF	PCLATH, F
0022ba   0bfc     andlw   0xfc             	ANDLW	0xfc
0022bc   0fcc     addlw   0xcc             	ADDLW	LOW(_01649_DS_)
0022be   6ee5     movwf   0xe5, 0          	MOVWF	POSTDEC1
0022c0   0e22     movlw   0x22             	MOVLW	HIGH(_01649_DS_)
0022c2   22fa     addwfc  0xfa, 0x1, 0     	ADDWFC	PCLATH, F
0022c4   0e00     movlw   0                	MOVLW	UPPER(_01649_DS_)
0022c6   22fb     addwfc  0xfb, 0x1, 0     	ADDWFC	PCLATU, F
0022c8   50e4     movf    0xe4, 0, 0       	MOVF	PREINC1, W
0022ca   6ef9     movwf   0xf9, 0          	MOVWF	PCL
                                           _01649_DS_:
0022cc   ef70     goto    0x22e0           	GOTO	_01607_DS_
0022ce   f011
0022d0   ef9d     goto    0x233a           	GOTO	_01611_DS_
0022d2   f011
0022d4   efca     goto    0x2394           	GOTO	_01615_DS_
0022d6   f011
0022d8   eff7     goto    0x23ee           	GOTO	_01619_DS_
0022da   f011
0022dc   ef24     goto    0x2448           	GOTO	_01623_DS_
0022de   f012
                                           _01607_DS_:
                                           ;	.line	311; /dvpt/pinguino/git/pinguino-ide/pinguino/p8/pinguino/core/digitalw.c	case pA: if (state) TRISA=TRISA | mask[pin];
0022e0   5001     movf    0x1, 0, 0        	MOVF	r0x01, W
0022e2   e015     bz      0x230e           	BZ	_01609_DS_
0022e4   0ec6     movlw   0xc6             	MOVLW	LOW(_mask)
0022e6   2400     addwf   0, 0, 0          	ADDWF	r0x00, W
0022e8   6e02     movwf   0x2, 0           	MOVWF	r0x02
0022ea   6a03     clrf    0x3, 0           	CLRF	r0x03
0022ec   0e27     movlw   0x27             	MOVLW	HIGH(_mask)
0022ee   2203     addwfc  0x3, 0x1, 0      	ADDWFC	r0x03, F
0022f0   6a04     clrf    0x4, 0           	CLRF	r0x04
0022f2   0e00     movlw   0                	MOVLW	UPPER(_mask)
0022f4   2204     addwfc  0x4, 0x1, 0      	ADDWFC	r0x04, F
0022f6   c002     movff   0x2, 0xff6       	MOVFF	r0x02, TBLPTRL
0022f8   fff6
0022fa   c003     movff   0x3, 0xff7       	MOVFF	r0x03, TBLPTRH
0022fc   fff7
0022fe   c004     movff   0x4, 0xff8       	MOVFF	r0x04, TBLPTRU
002300   fff8
002302   0009     tblrd   *+               	TBLRD*+	
002304   cff5     movff   0xff5, 0x2       	MOVFF	TABLAT, r0x02
002306   f002
002308   5002     movf    0x2, 0, 0        	MOVF	r0x02, W
00230a   1292     iorwf   0x92, 0x1, 0     	IORWF	_TRISA, F
00230c   d0c8     bra     0x249e           	BRA	_01628_DS_
                                           _01609_DS_:
                                           ;	.line	312; /dvpt/pinguino/git/pinguino-ide/pinguino/p8/pinguino/core/digitalw.c	else TRISA=TRISA & (255-mask[pin]);
00230e   0ec6     movlw   0xc6             	MOVLW	LOW(_mask)
002310   2400     addwf   0, 0, 0          	ADDWF	r0x00, W
002312   6e02     movwf   0x2, 0           	MOVWF	r0x02
002314   6a03     clrf    0x3, 0           	CLRF	r0x03
002316   0e27     movlw   0x27             	MOVLW	HIGH(_mask)
002318   2203     addwfc  0x3, 0x1, 0      	ADDWFC	r0x03, F
00231a   6a04     clrf    0x4, 0           	CLRF	r0x04
00231c   0e00     movlw   0                	MOVLW	UPPER(_mask)
00231e   2204     addwfc  0x4, 0x1, 0      	ADDWFC	r0x04, F
002320   c002     movff   0x2, 0xff6       	MOVFF	r0x02, TBLPTRL
002322   fff6
002324   c003     movff   0x3, 0xff7       	MOVFF	r0x03, TBLPTRH
002326   fff7
002328   c004     movff   0x4, 0xff8       	MOVFF	r0x04, TBLPTRU
00232a   fff8
00232c   0009     tblrd   *+               	TBLRD*+	
00232e   cff5     movff   0xff5, 0x2       	MOVFF	TABLAT, r0x02
002330   f002
002332   5002     movf    0x2, 0, 0        	MOVF	r0x02, W
002334   08ff     sublw   0xff             	SUBLW	0xff
                                           ; #	MOVWF	r0x02
                                           ; #	MOVF	r0x02, W
002336   1692     andwf   0x92, 0x1, 0     	ANDWF	_TRISA, F
                                           ;	.line	313; /dvpt/pinguino/git/pinguino-ide/pinguino/p8/pinguino/core/digitalw.c	break;
002338   d0b2     bra     0x249e           	BRA	_01628_DS_
                                           _01611_DS_:
                                           ;	.line	314; /dvpt/pinguino/git/pinguino-ide/pinguino/p8/pinguino/core/digitalw.c	case pB: if (state) TRISB=TRISB | mask[pin];
00233a   5001     movf    0x1, 0, 0        	MOVF	r0x01, W
00233c   e015     bz      0x2368           	BZ	_01613_DS_
00233e   0ec6     movlw   0xc6             	MOVLW	LOW(_mask)
002340   2400     addwf   0, 0, 0          	ADDWF	r0x00, W
002342   6e02     movwf   0x2, 0           	MOVWF	r0x02
002344   6a03     clrf    0x3, 0           	CLRF	r0x03
002346   0e27     movlw   0x27             	MOVLW	HIGH(_mask)
002348   2203     addwfc  0x3, 0x1, 0      	ADDWFC	r0x03, F
00234a   6a04     clrf    0x4, 0           	CLRF	r0x04
00234c   0e00     movlw   0                	MOVLW	UPPER(_mask)
00234e   2204     addwfc  0x4, 0x1, 0      	ADDWFC	r0x04, F
002350   c002     movff   0x2, 0xff6       	MOVFF	r0x02, TBLPTRL
002352   fff6
002354   c003     movff   0x3, 0xff7       	MOVFF	r0x03, TBLPTRH
002356   fff7
002358   c004     movff   0x4, 0xff8       	MOVFF	r0x04, TBLPTRU
00235a   fff8
00235c   0009     tblrd   *+               	TBLRD*+	
00235e   cff5     movff   0xff5, 0x2       	MOVFF	TABLAT, r0x02
002360   f002
002362   5002     movf    0x2, 0, 0        	MOVF	r0x02, W
002364   1293     iorwf   0x93, 0x1, 0     	IORWF	_TRISB, F
002366   d09b     bra     0x249e           	BRA	_01628_DS_
                                           _01613_DS_:
                                           ;	.line	315; /dvpt/pinguino/git/pinguino-ide/pinguino/p8/pinguino/core/digitalw.c	else TRISB=TRISB & (255-mask[pin]);
002368   0ec6     movlw   0xc6             	MOVLW	LOW(_mask)
00236a   2400     addwf   0, 0, 0          	ADDWF	r0x00, W
00236c   6e02     movwf   0x2, 0           	MOVWF	r0x02
00236e   6a03     clrf    0x3, 0           	CLRF	r0x03
002370   0e27     movlw   0x27             	MOVLW	HIGH(_mask)
002372   2203     addwfc  0x3, 0x1, 0      	ADDWFC	r0x03, F
002374   6a04     clrf    0x4, 0           	CLRF	r0x04
002376   0e00     movlw   0                	MOVLW	UPPER(_mask)
002378   2204     addwfc  0x4, 0x1, 0      	ADDWFC	r0x04, F
00237a   c002     movff   0x2, 0xff6       	MOVFF	r0x02, TBLPTRL
00237c   fff6
00237e   c003     movff   0x3, 0xff7       	MOVFF	r0x03, TBLPTRH
002380   fff7
002382   c004     movff   0x4, 0xff8       	MOVFF	r0x04, TBLPTRU
002384   fff8
002386   0009     tblrd   *+               	TBLRD*+	
002388   cff5     movff   0xff5, 0x2       	MOVFF	TABLAT, r0x02
00238a   f002
00238c   5002     movf    0x2, 0, 0        	MOVF	r0x02, W
00238e   08ff     sublw   0xff             	SUBLW	0xff
                                           ; #	MOVWF	r0x02
                                           ; #	MOVF	r0x02, W
002390   1693     andwf   0x93, 0x1, 0     	ANDWF	_TRISB, F
                                           ;	.line	316; /dvpt/pinguino/git/pinguino-ide/pinguino/p8/pinguino/core/digitalw.c	break;
002392   d085     bra     0x249e           	BRA	_01628_DS_
                                           _01615_DS_:
                                           ;	.line	317; /dvpt/pinguino/git/pinguino-ide/pinguino/p8/pinguino/core/digitalw.c	case pC: if (state) TRISC=TRISC | mask[pin];
002394   5001     movf    0x1, 0, 0        	MOVF	r0x01, W
002396   e015     bz      0x23c2           	BZ	_01617_DS_
002398   0ec6     movlw   0xc6             	MOVLW	LOW(_mask)
00239a   2400     addwf   0, 0, 0          	ADDWF	r0x00, W
00239c   6e02     movwf   0x2, 0           	MOVWF	r0x02
00239e   6a03     clrf    0x3, 0           	CLRF	r0x03
0023a0   0e27     movlw   0x27             	MOVLW	HIGH(_mask)
0023a2   2203     addwfc  0x3, 0x1, 0      	ADDWFC	r0x03, F
0023a4   6a04     clrf    0x4, 0           	CLRF	r0x04
0023a6   0e00     movlw   0                	MOVLW	UPPER(_mask)
0023a8   2204     addwfc  0x4, 0x1, 0      	ADDWFC	r0x04, F
0023aa   c002     movff   0x2, 0xff6       	MOVFF	r0x02, TBLPTRL
0023ac   fff6
0023ae   c003     movff   0x3, 0xff7       	MOVFF	r0x03, TBLPTRH
0023b0   fff7
0023b2   c004     movff   0x4, 0xff8       	MOVFF	r0x04, TBLPTRU
0023b4   fff8
0023b6   0009     tblrd   *+               	TBLRD*+	
0023b8   cff5     movff   0xff5, 0x2       	MOVFF	TABLAT, r0x02
0023ba   f002
0023bc   5002     movf    0x2, 0, 0        	MOVF	r0x02, W
0023be   1294     iorwf   0x94, 0x1, 0     	IORWF	_TRISC, F
0023c0   d06e     bra     0x249e           	BRA	_01628_DS_
                                           _01617_DS_:
                                           ;	.line	318; /dvpt/pinguino/git/pinguino-ide/pinguino/p8/pinguino/core/digitalw.c	else TRISC=TRISC & (255-mask[pin]);
0023c2   0ec6     movlw   0xc6             	MOVLW	LOW(_mask)
0023c4   2400     addwf   0, 0, 0          	ADDWF	r0x00, W
0023c6   6e02     movwf   0x2, 0           	MOVWF	r0x02
0023c8   6a03     clrf    0x3, 0           	CLRF	r0x03
0023ca   0e27     movlw   0x27             	MOVLW	HIGH(_mask)
0023cc   2203     addwfc  0x3, 0x1, 0      	ADDWFC	r0x03, F
0023ce   6a04     clrf    0x4, 0           	CLRF	r0x04
0023d0   0e00     movlw   0                	MOVLW	UPPER(_mask)
0023d2   2204     addwfc  0x4, 0x1, 0      	ADDWFC	r0x04, F
0023d4   c002     movff   0x2, 0xff6       	MOVFF	r0x02, TBLPTRL
0023d6   fff6
0023d8   c003     movff   0x3, 0xff7       	MOVFF	r0x03, TBLPTRH
0023da   fff7
0023dc   c004     movff   0x4, 0xff8       	MOVFF	r0x04, TBLPTRU
0023de   fff8
0023e0   0009     tblrd   *+               	TBLRD*+	
0023e2   cff5     movff   0xff5, 0x2       	MOVFF	TABLAT, r0x02
0023e4   f002
0023e6   5002     movf    0x2, 0, 0        	MOVF	r0x02, W
0023e8   08ff     sublw   0xff             	SUBLW	0xff
                                           ; #	MOVWF	r0x02
                                           ; #	MOVF	r0x02, W
0023ea   1694     andwf   0x94, 0x1, 0     	ANDWF	_TRISC, F
                                           ;	.line	319; /dvpt/pinguino/git/pinguino-ide/pinguino/p8/pinguino/core/digitalw.c	break;
0023ec   d058     bra     0x249e           	BRA	_01628_DS_
                                           _01619_DS_:
                                           ;	.line	323; /dvpt/pinguino/git/pinguino-ide/pinguino/p8/pinguino/core/digitalw.c	case pD: if (state) TRISD=TRISD | mask[pin];
0023ee   5001     movf    0x1, 0, 0        	MOVF	r0x01, W
0023f0   e015     bz      0x241c           	BZ	_01621_DS_
0023f2   0ec6     movlw   0xc6             	MOVLW	LOW(_mask)
0023f4   2400     addwf   0, 0, 0          	ADDWF	r0x00, W
0023f6   6e02     movwf   0x2, 0           	MOVWF	r0x02
0023f8   6a03     clrf    0x3, 0           	CLRF	r0x03
0023fa   0e27     movlw   0x27             	MOVLW	HIGH(_mask)
0023fc   2203     addwfc  0x3, 0x1, 0      	ADDWFC	r0x03, F
0023fe   6a04     clrf    0x4, 0           	CLRF	r0x04
002400   0e00     movlw   0                	MOVLW	UPPER(_mask)
002402   2204     addwfc  0x4, 0x1, 0      	ADDWFC	r0x04, F
002404   c002     movff   0x2, 0xff6       	MOVFF	r0x02, TBLPTRL
002406   fff6
002408   c003     movff   0x3, 0xff7       	MOVFF	r0x03, TBLPTRH
00240a   fff7
00240c   c004     movff   0x4, 0xff8       	MOVFF	r0x04, TBLPTRU
00240e   fff8
002410   0009     tblrd   *+               	TBLRD*+	
002412   cff5     movff   0xff5, 0x2       	MOVFF	TABLAT, r0x02
002414   f002
002416   5002     movf    0x2, 0, 0        	MOVF	r0x02, W
002418   1295     iorwf   0x95, 0x1, 0     	IORWF	_TRISD, F
00241a   d041     bra     0x249e           	BRA	_01628_DS_
                                           _01621_DS_:
                                           ;	.line	324; /dvpt/pinguino/git/pinguino-ide/pinguino/p8/pinguino/core/digitalw.c	else TRISD=TRISD & (255-mask[pin]);
00241c   0ec6     movlw   0xc6             	MOVLW	LOW(_mask)
00241e   2400     addwf   0, 0, 0          	ADDWF	r0x00, W
002420   6e02     movwf   0x2, 0           	MOVWF	r0x02
002422   6a03     clrf    0x3, 0           	CLRF	r0x03
002424   0e27     movlw   0x27             	MOVLW	HIGH(_mask)
002426   2203     addwfc  0x3, 0x1, 0      	ADDWFC	r0x03, F
002428   6a04     clrf    0x4, 0           	CLRF	r0x04
00242a   0e00     movlw   0                	MOVLW	UPPER(_mask)
00242c   2204     addwfc  0x4, 0x1, 0      	ADDWFC	r0x04, F
00242e   c002     movff   0x2, 0xff6       	MOVFF	r0x02, TBLPTRL
002430   fff6
002432   c003     movff   0x3, 0xff7       	MOVFF	r0x03, TBLPTRH
002434   fff7
002436   c004     movff   0x4, 0xff8       	MOVFF	r0x04, TBLPTRU
002438   fff8
00243a   0009     tblrd   *+               	TBLRD*+	
00243c   cff5     movff   0xff5, 0x2       	MOVFF	TABLAT, r0x02
00243e   f002
002440   5002     movf    0x2, 0, 0        	MOVF	r0x02, W
002442   08ff     sublw   0xff             	SUBLW	0xff
                                           ; #	MOVWF	r0x02
                                           ; #	MOVF	r0x02, W
002444   1695     andwf   0x95, 0x1, 0     	ANDWF	_TRISD, F
                                           ;	.line	325; /dvpt/pinguino/git/pinguino-ide/pinguino/p8/pinguino/core/digitalw.c	break;
002446   d02b     bra     0x249e           	BRA	_01628_DS_
                                           _01623_DS_:
                                           ;	.line	326; /dvpt/pinguino/git/pinguino-ide/pinguino/p8/pinguino/core/digitalw.c	case pE: if (state) TRISE=TRISE | mask[pin];
002448   5001     movf    0x1, 0, 0        	MOVF	r0x01, W
00244a   e015     bz      0x2476           	BZ	_01625_DS_
00244c   0ec6     movlw   0xc6             	MOVLW	LOW(_mask)
00244e   2400     addwf   0, 0, 0          	ADDWF	r0x00, W
002450   6e01     movwf   0x1, 0           	MOVWF	r0x01
002452   6a02     clrf    0x2, 0           	CLRF	r0x02
002454   0e27     movlw   0x27             	MOVLW	HIGH(_mask)
002456   2202     addwfc  0x2, 0x1, 0      	ADDWFC	r0x02, F
002458   6a03     clrf    0x3, 0           	CLRF	r0x03
00245a   0e00     movlw   0                	MOVLW	UPPER(_mask)
00245c   2203     addwfc  0x3, 0x1, 0      	ADDWFC	r0x03, F
00245e   c001     movff   0x1, 0xff6       	MOVFF	r0x01, TBLPTRL
002460   fff6
002462   c002     movff   0x2, 0xff7       	MOVFF	r0x02, TBLPTRH
002464   fff7
002466   c003     movff   0x3, 0xff8       	MOVFF	r0x03, TBLPTRU
002468   fff8
00246a   0009     tblrd   *+               	TBLRD*+	
00246c   cff5     movff   0xff5, 0x1       	MOVFF	TABLAT, r0x01
00246e   f001
002470   5001     movf    0x1, 0, 0        	MOVF	r0x01, W
002472   1296     iorwf   0x96, 0x1, 0     	IORWF	_TRISE, F
002474   d014     bra     0x249e           	BRA	_01628_DS_
                                           _01625_DS_:
                                           ;	.line	327; /dvpt/pinguino/git/pinguino-ide/pinguino/p8/pinguino/core/digitalw.c	else TRISE=TRISE & (255-mask[pin]);
002476   6a01     clrf    0x1, 0           	CLRF	r0x01
002478   6a02     clrf    0x2, 0           	CLRF	r0x02
00247a   0ec6     movlw   0xc6             	MOVLW	LOW(_mask)
00247c   2600     addwf   0, 0x1, 0        	ADDWF	r0x00, F
00247e   0e27     movlw   0x27             	MOVLW	HIGH(_mask)
002480   2201     addwfc  0x1, 0x1, 0      	ADDWFC	r0x01, F
002482   0e00     movlw   0                	MOVLW	UPPER(_mask)
002484   2202     addwfc  0x2, 0x1, 0      	ADDWFC	r0x02, F
002486   c000     movff   0, 0xff6         	MOVFF	r0x00, TBLPTRL
002488   fff6
00248a   c001     movff   0x1, 0xff7       	MOVFF	r0x01, TBLPTRH
00248c   fff7
00248e   c002     movff   0x2, 0xff8       	MOVFF	r0x02, TBLPTRU
002490   fff8
002492   0009     tblrd   *+               	TBLRD*+	
002494   cff5     movff   0xff5, 0         	MOVFF	TABLAT, r0x00
002496   f000
002498   5000     movf    0, 0, 0          	MOVF	r0x00, W
00249a   08ff     sublw   0xff             	SUBLW	0xff
                                           ; #	MOVWF	r0x00
                                           ; #	MOVF	r0x00, W
00249c   1696     andwf   0x96, 0x1, 0     	ANDWF	_TRISE, F
                                           _01628_DS_:
                                           ;	.line	330; /dvpt/pinguino/git/pinguino-ide/pinguino/p8/pinguino/core/digitalw.c	}
00249e   cfe4     movff   0xfe4, 0x4       	MOVFF	PREINC1, r0x04
0024a0   f004
0024a2   cfe4     movff   0xfe4, 0x3       	MOVFF	PREINC1, r0x03
0024a4   f003
0024a6   cfe4     movff   0xfe4, 0x2       	MOVFF	PREINC1, r0x02
0024a8   f002
0024aa   cfe4     movff   0xfe4, 0x1       	MOVFF	PREINC1, r0x01
0024ac   f001
0024ae   cfe4     movff   0xfe4, 0         	MOVFF	PREINC1, r0x00
0024b0   f000
0024b2   cfe4     movff   0xfe4, 0xfd9     	MOVFF	PREINC1, FSR2L
0024b4   ffd9
0024b6   0012     return  0                	RETURN	
                                           
                                           ; ; Starting pCode block
                                           S_main__digitalread	code
                                           _digitalread:
                                           ;	.line	264; /dvpt/pinguino/git/pinguino-ide/pinguino/p8/pinguino/core/digitalw.c	unsigned char digitalread(unsigned char pin)
002e38   cfd9     movff   0xfd9, 0xfe5     	MOVFF	FSR2L, POSTDEC1
002e3a   ffe5
002e3c   cfe1     movff   0xfe1, 0xfd9     	MOVFF	FSR1L, FSR2L
002e3e   ffd9
002e40   c000     movff   0, 0xfe5         	MOVFF	r0x00, POSTDEC1
002e42   ffe5
002e44   c001     movff   0x1, 0xfe5       	MOVFF	r0x01, POSTDEC1
002e46   ffe5
002e48   c002     movff   0x2, 0xfe5       	MOVFF	r0x02, POSTDEC1
002e4a   ffe5
002e4c   c003     movff   0x3, 0xfe5       	MOVFF	r0x03, POSTDEC1
002e4e   ffe5
002e50   0e02     movlw   0x2              	MOVLW	0x02
002e52   cfdb     movff   0xfdb, 0         	MOVFF	PLUSW2, r0x00
002e54   f000
                                           ;	.line	266; /dvpt/pinguino/git/pinguino-ide/pinguino/p8/pinguino/core/digitalw.c	switch (port[pin])
002e56   0ee6     movlw   0xe6             	MOVLW	LOW(_port)
002e58   2400     addwf   0, 0, 0          	ADDWF	r0x00, W
002e5a   6e01     movwf   0x1, 0           	MOVWF	r0x01
002e5c   6a02     clrf    0x2, 0           	CLRF	r0x02
002e5e   0e27     movlw   0x27             	MOVLW	HIGH(_port)
002e60   2202     addwfc  0x2, 0x1, 0      	ADDWFC	r0x02, F
002e62   6a03     clrf    0x3, 0           	CLRF	r0x03
002e64   0e00     movlw   0                	MOVLW	UPPER(_port)
002e66   2203     addwfc  0x3, 0x1, 0      	ADDWFC	r0x03, F
002e68   c001     movff   0x1, 0xff6       	MOVFF	r0x01, TBLPTRL
002e6a   fff6
002e6c   c002     movff   0x2, 0xff7       	MOVFF	r0x02, TBLPTRH
002e6e   fff7
002e70   c003     movff   0x3, 0xff8       	MOVFF	r0x03, TBLPTRU
002e72   fff8
002e74   0009     tblrd   *+               	TBLRD*+	
002e76   cff5     movff   0xff5, 0x1       	MOVFF	TABLAT, r0x01
002e78   f001
002e7a   0e05     movlw   0x5              	MOVLW	0x05
002e7c   5c01     subwf   0x1, 0, 0        	SUBWF	r0x01, W
002e7e   b0d8     btfsc   0xd8, 0, 0       	BTFSC	STATUS, 0
002e80   d09a     bra     0x2fb6           	BRA	_01580_DS_
002e82   6afa     clrf    0xfa, 0          	CLRF	PCLATH
002e84   6afb     clrf    0xfb, 0          	CLRF	PCLATU
002e86   3401     rlcf    0x1, 0, 0        	RLCF	r0x01, W
002e88   36fa     rlcf    0xfa, 0x1, 0     	RLCF	PCLATH, F
002e8a   34e8     rlcf    0xe8, 0, 0       	RLCF	WREG, W
002e8c   36fa     rlcf    0xfa, 0x1, 0     	RLCF	PCLATH, F
002e8e   0bfc     andlw   0xfc             	ANDLW	0xfc
002e90   0fa0     addlw   0xa0             	ADDLW	LOW(_01602_DS_)
002e92   6ee5     movwf   0xe5, 0          	MOVWF	POSTDEC1
002e94   0e2e     movlw   0x2e             	MOVLW	HIGH(_01602_DS_)
002e96   22fa     addwfc  0xfa, 0x1, 0     	ADDWFC	PCLATH, F
002e98   0e00     movlw   0                	MOVLW	UPPER(_01602_DS_)
002e9a   22fb     addwfc  0xfb, 0x1, 0     	ADDWFC	PCLATU, F
002e9c   50e4     movf    0xe4, 0, 0       	MOVF	PREINC1, W
002e9e   6ef9     movwf   0xf9, 0          	MOVWF	PCL
                                           _01602_DS_:
002ea0   ef5a     goto    0x2eb4           	GOTO	_01560_DS_
002ea2   f017
002ea4   ef74     goto    0x2ee8           	GOTO	_01564_DS_
002ea6   f017
002ea8   ef8e     goto    0x2f1c           	GOTO	_01568_DS_
002eaa   f017
002eac   efa8     goto    0x2f50           	GOTO	_01572_DS_
002eae   f017
002eb0   efc2     goto    0x2f84           	GOTO	_01576_DS_
002eb2   f017
                                           _01560_DS_:
                                           ;	.line	268; /dvpt/pinguino/git/pinguino-ide/pinguino/p8/pinguino/core/digitalw.c	case pA: if ((PORTA & mask[pin])!=0) return (1);
002eb4   0ec6     movlw   0xc6             	MOVLW	LOW(_mask)
002eb6   2400     addwf   0, 0, 0          	ADDWF	r0x00, W
002eb8   6e01     movwf   0x1, 0           	MOVWF	r0x01
002eba   6a02     clrf    0x2, 0           	CLRF	r0x02
002ebc   0e27     movlw   0x27             	MOVLW	HIGH(_mask)
002ebe   2202     addwfc  0x2, 0x1, 0      	ADDWFC	r0x02, F
002ec0   6a03     clrf    0x3, 0           	CLRF	r0x03
002ec2   0e00     movlw   0                	MOVLW	UPPER(_mask)
002ec4   2203     addwfc  0x3, 0x1, 0      	ADDWFC	r0x03, F
002ec6   c001     movff   0x1, 0xff6       	MOVFF	r0x01, TBLPTRL
002ec8   fff6
002eca   c002     movff   0x2, 0xff7       	MOVFF	r0x02, TBLPTRH
002ecc   fff7
002ece   c003     movff   0x3, 0xff8       	MOVFF	r0x03, TBLPTRU
002ed0   fff8
002ed2   0009     tblrd   *+               	TBLRD*+	
002ed4   cff5     movff   0xff5, 0x1       	MOVFF	TABLAT, r0x01
002ed6   f001
002ed8   5080     movf    0x80, 0, 0       	MOVF	_PORTA, W
002eda   1601     andwf   0x1, 0x1, 0      	ANDWF	r0x01, F
002edc   5001     movf    0x1, 0, 0        	MOVF	r0x01, W
002ede   e002     bz      0x2ee4           	BZ	_01562_DS_
002ee0   0e01     movlw   0x1              	MOVLW	0x01
002ee2   d06a     bra     0x2fb8           	BRA	_01581_DS_
                                           _01562_DS_:
                                           ;	.line	269; /dvpt/pinguino/git/pinguino-ide/pinguino/p8/pinguino/core/digitalw.c	else return (0);
002ee4   6ae8     clrf    0xe8, 0          	CLRF	WREG
002ee6   d068     bra     0x2fb8           	BRA	_01581_DS_
                                           _01564_DS_:
                                           ;	.line	271; /dvpt/pinguino/git/pinguino-ide/pinguino/p8/pinguino/core/digitalw.c	case pB: if ((PORTB & mask[pin])!=0) return (1);
002ee8   0ec6     movlw   0xc6             	MOVLW	LOW(_mask)
002eea   2400     addwf   0, 0, 0          	ADDWF	r0x00, W
002eec   6e01     movwf   0x1, 0           	MOVWF	r0x01
002eee   6a02     clrf    0x2, 0           	CLRF	r0x02
002ef0   0e27     movlw   0x27             	MOVLW	HIGH(_mask)
002ef2   2202     addwfc  0x2, 0x1, 0      	ADDWFC	r0x02, F
002ef4   6a03     clrf    0x3, 0           	CLRF	r0x03
002ef6   0e00     movlw   0                	MOVLW	UPPER(_mask)
002ef8   2203     addwfc  0x3, 0x1, 0      	ADDWFC	r0x03, F
002efa   c001     movff   0x1, 0xff6       	MOVFF	r0x01, TBLPTRL
002efc   fff6
002efe   c002     movff   0x2, 0xff7       	MOVFF	r0x02, TBLPTRH
002f00   fff7
002f02   c003     movff   0x3, 0xff8       	MOVFF	r0x03, TBLPTRU
002f04   fff8
002f06   0009     tblrd   *+               	TBLRD*+	
002f08   cff5     movff   0xff5, 0x1       	MOVFF	TABLAT, r0x01
002f0a   f001
002f0c   5081     movf    0x81, 0, 0       	MOVF	_PORTB, W
002f0e   1601     andwf   0x1, 0x1, 0      	ANDWF	r0x01, F
002f10   5001     movf    0x1, 0, 0        	MOVF	r0x01, W
002f12   e002     bz      0x2f18           	BZ	_01566_DS_
002f14   0e01     movlw   0x1              	MOVLW	0x01
002f16   d050     bra     0x2fb8           	BRA	_01581_DS_
                                           _01566_DS_:
                                           ;	.line	272; /dvpt/pinguino/git/pinguino-ide/pinguino/p8/pinguino/core/digitalw.c	else return (0);
002f18   6ae8     clrf    0xe8, 0          	CLRF	WREG
002f1a   d04e     bra     0x2fb8           	BRA	_01581_DS_
                                           _01568_DS_:
                                           ;	.line	274; /dvpt/pinguino/git/pinguino-ide/pinguino/p8/pinguino/core/digitalw.c	case pC: if ((PORTC & mask[pin])!=0) return (1);
002f1c   0ec6     movlw   0xc6             	MOVLW	LOW(_mask)
002f1e   2400     addwf   0, 0, 0          	ADDWF	r0x00, W
002f20   6e01     movwf   0x1, 0           	MOVWF	r0x01
002f22   6a02     clrf    0x2, 0           	CLRF	r0x02
002f24   0e27     movlw   0x27             	MOVLW	HIGH(_mask)
002f26   2202     addwfc  0x2, 0x1, 0      	ADDWFC	r0x02, F
002f28   6a03     clrf    0x3, 0           	CLRF	r0x03
002f2a   0e00     movlw   0                	MOVLW	UPPER(_mask)
002f2c   2203     addwfc  0x3, 0x1, 0      	ADDWFC	r0x03, F
002f2e   c001     movff   0x1, 0xff6       	MOVFF	r0x01, TBLPTRL
002f30   fff6
002f32   c002     movff   0x2, 0xff7       	MOVFF	r0x02, TBLPTRH
002f34   fff7
002f36   c003     movff   0x3, 0xff8       	MOVFF	r0x03, TBLPTRU
002f38   fff8
002f3a   0009     tblrd   *+               	TBLRD*+	
002f3c   cff5     movff   0xff5, 0x1       	MOVFF	TABLAT, r0x01
002f3e   f001
002f40   5082     movf    0x82, 0, 0       	MOVF	_PORTC, W
002f42   1601     andwf   0x1, 0x1, 0      	ANDWF	r0x01, F
002f44   5001     movf    0x1, 0, 0        	MOVF	r0x01, W
002f46   e002     bz      0x2f4c           	BZ	_01570_DS_
002f48   0e01     movlw   0x1              	MOVLW	0x01
002f4a   d036     bra     0x2fb8           	BRA	_01581_DS_
                                           _01570_DS_:
                                           ;	.line	275; /dvpt/pinguino/git/pinguino-ide/pinguino/p8/pinguino/core/digitalw.c	else return (0);
002f4c   6ae8     clrf    0xe8, 0          	CLRF	WREG
002f4e   d034     bra     0x2fb8           	BRA	_01581_DS_
                                           _01572_DS_:
                                           ;	.line	280; /dvpt/pinguino/git/pinguino-ide/pinguino/p8/pinguino/core/digitalw.c	case pD: if ((PORTD & mask[pin])!=0) return (1);
002f50   0ec6     movlw   0xc6             	MOVLW	LOW(_mask)
002f52   2400     addwf   0, 0, 0          	ADDWF	r0x00, W
002f54   6e01     movwf   0x1, 0           	MOVWF	r0x01
002f56   6a02     clrf    0x2, 0           	CLRF	r0x02
002f58   0e27     movlw   0x27             	MOVLW	HIGH(_mask)
002f5a   2202     addwfc  0x2, 0x1, 0      	ADDWFC	r0x02, F
002f5c   6a03     clrf    0x3, 0           	CLRF	r0x03
002f5e   0e00     movlw   0                	MOVLW	UPPER(_mask)
002f60   2203     addwfc  0x3, 0x1, 0      	ADDWFC	r0x03, F
002f62   c001     movff   0x1, 0xff6       	MOVFF	r0x01, TBLPTRL
002f64   fff6
002f66   c002     movff   0x2, 0xff7       	MOVFF	r0x02, TBLPTRH
002f68   fff7
002f6a   c003     movff   0x3, 0xff8       	MOVFF	r0x03, TBLPTRU
002f6c   fff8
002f6e   0009     tblrd   *+               	TBLRD*+	
002f70   cff5     movff   0xff5, 0x1       	MOVFF	TABLAT, r0x01
002f72   f001
002f74   5083     movf    0x83, 0, 0       	MOVF	_PORTD, W
002f76   1601     andwf   0x1, 0x1, 0      	ANDWF	r0x01, F
002f78   5001     movf    0x1, 0, 0        	MOVF	r0x01, W
002f7a   e002     bz      0x2f80           	BZ	_01574_DS_
002f7c   0e01     movlw   0x1              	MOVLW	0x01
002f7e   d01c     bra     0x2fb8           	BRA	_01581_DS_
                                           _01574_DS_:
                                           ;	.line	281; /dvpt/pinguino/git/pinguino-ide/pinguino/p8/pinguino/core/digitalw.c	else return (0);
002f80   6ae8     clrf    0xe8, 0          	CLRF	WREG
002f82   d01a     bra     0x2fb8           	BRA	_01581_DS_
                                           _01576_DS_:
                                           ;	.line	283; /dvpt/pinguino/git/pinguino-ide/pinguino/p8/pinguino/core/digitalw.c	case pE: if ((PORTE & mask[pin])!=0) return (1);
002f84   6a01     clrf    0x1, 0           	CLRF	r0x01
002f86   6a02     clrf    0x2, 0           	CLRF	r0x02
002f88   0ec6     movlw   0xc6             	MOVLW	LOW(_mask)
002f8a   2600     addwf   0, 0x1, 0        	ADDWF	r0x00, F
002f8c   0e27     movlw   0x27             	MOVLW	HIGH(_mask)
002f8e   2201     addwfc  0x1, 0x1, 0      	ADDWFC	r0x01, F
002f90   0e00     movlw   0                	MOVLW	UPPER(_mask)
002f92   2202     addwfc  0x2, 0x1, 0      	ADDWFC	r0x02, F
002f94   c000     movff   0, 0xff6         	MOVFF	r0x00, TBLPTRL
002f96   fff6
002f98   c001     movff   0x1, 0xff7       	MOVFF	r0x01, TBLPTRH
002f9a   fff7
002f9c   c002     movff   0x2, 0xff8       	MOVFF	r0x02, TBLPTRU
002f9e   fff8
002fa0   0009     tblrd   *+               	TBLRD*+	
002fa2   cff5     movff   0xff5, 0         	MOVFF	TABLAT, r0x00
002fa4   f000
002fa6   5084     movf    0x84, 0, 0       	MOVF	_PORTE, W
002fa8   1600     andwf   0, 0x1, 0        	ANDWF	r0x00, F
002faa   5000     movf    0, 0, 0          	MOVF	r0x00, W
002fac   e002     bz      0x2fb2           	BZ	_01578_DS_
002fae   0e01     movlw   0x1              	MOVLW	0x01
002fb0   d003     bra     0x2fb8           	BRA	_01581_DS_
                                           _01578_DS_:
                                           ;	.line	284; /dvpt/pinguino/git/pinguino-ide/pinguino/p8/pinguino/core/digitalw.c	else return (0);
002fb2   6ae8     clrf    0xe8, 0          	CLRF	WREG
002fb4   d001     bra     0x2fb8           	BRA	_01581_DS_
                                           _01580_DS_:
                                           ;	.line	288; /dvpt/pinguino/git/pinguino-ide/pinguino/p8/pinguino/core/digitalw.c	return (0);
002fb6   6ae8     clrf    0xe8, 0          	CLRF	WREG
                                           _01581_DS_:
002fb8   cfe4     movff   0xfe4, 0x3       	MOVFF	PREINC1, r0x03
002fba   f003
002fbc   cfe4     movff   0xfe4, 0x2       	MOVFF	PREINC1, r0x02
002fbe   f002
002fc0   cfe4     movff   0xfe4, 0x1       	MOVFF	PREINC1, r0x01
002fc2   f001
002fc4   cfe4     movff   0xfe4, 0         	MOVFF	PREINC1, r0x00
002fc6   f000
002fc8   cfe4     movff   0xfe4, 0xfd9     	MOVFF	PREINC1, FSR2L
002fca   ffd9
002fcc   0012     return  0                	RETURN	
                                           
                                           ; ; Starting pCode block
                                           S_main__digitalwrite	code
                                           _digitalwrite:
                                           ;	.line	222; /dvpt/pinguino/git/pinguino-ide/pinguino/p8/pinguino/core/digitalw.c	void digitalwrite(unsigned char pin, unsigned char state)
0024b8   cfd9     movff   0xfd9, 0xfe5     	MOVFF	FSR2L, POSTDEC1
0024ba   ffe5
0024bc   cfe1     movff   0xfe1, 0xfd9     	MOVFF	FSR1L, FSR2L
0024be   ffd9
0024c0   c000     movff   0, 0xfe5         	MOVFF	r0x00, POSTDEC1
0024c2   ffe5
0024c4   c001     movff   0x1, 0xfe5       	MOVFF	r0x01, POSTDEC1
0024c6   ffe5
0024c8   c002     movff   0x2, 0xfe5       	MOVFF	r0x02, POSTDEC1
0024ca   ffe5
0024cc   c003     movff   0x3, 0xfe5       	MOVFF	r0x03, POSTDEC1
0024ce   ffe5
0024d0   c004     movff   0x4, 0xfe5       	MOVFF	r0x04, POSTDEC1
0024d2   ffe5
0024d4   0e02     movlw   0x2              	MOVLW	0x02
0024d6   cfdb     movff   0xfdb, 0         	MOVFF	PLUSW2, r0x00
0024d8   f000
0024da   0e03     movlw   0x3              	MOVLW	0x03
0024dc   cfdb     movff   0xfdb, 0x1       	MOVFF	PLUSW2, r0x01
0024de   f001
                                           ;	.line	224; /dvpt/pinguino/git/pinguino-ide/pinguino/p8/pinguino/core/digitalw.c	switch (port[pin])
0024e0   0ee6     movlw   0xe6             	MOVLW	LOW(_port)
0024e2   2400     addwf   0, 0, 0          	ADDWF	r0x00, W
0024e4   6e02     movwf   0x2, 0           	MOVWF	r0x02
0024e6   6a03     clrf    0x3, 0           	CLRF	r0x03
0024e8   0e27     movlw   0x27             	MOVLW	HIGH(_port)
0024ea   2203     addwfc  0x3, 0x1, 0      	ADDWFC	r0x03, F
0024ec   6a04     clrf    0x4, 0           	CLRF	r0x04
0024ee   0e00     movlw   0                	MOVLW	UPPER(_port)
0024f0   2204     addwfc  0x4, 0x1, 0      	ADDWFC	r0x04, F
0024f2   c002     movff   0x2, 0xff6       	MOVFF	r0x02, TBLPTRL
0024f4   fff6
0024f6   c003     movff   0x3, 0xff7       	MOVFF	r0x03, TBLPTRH
0024f8   fff7
0024fa   c004     movff   0x4, 0xff8       	MOVFF	r0x04, TBLPTRU
0024fc   fff8
0024fe   0009     tblrd   *+               	TBLRD*+	
002500   cff5     movff   0xff5, 0x2       	MOVFF	TABLAT, r0x02
002502   f002
002504   0e05     movlw   0x5              	MOVLW	0x05
002506   5c02     subwf   0x2, 0, 0        	SUBWF	r0x02, W
002508   b0d8     btfsc   0xd8, 0, 0       	BTFSC	STATUS, 0
00250a   d0f8     bra     0x26fc           	BRA	_01534_DS_
00250c   6afa     clrf    0xfa, 0          	CLRF	PCLATH
00250e   6afb     clrf    0xfb, 0          	CLRF	PCLATU
002510   3402     rlcf    0x2, 0, 0        	RLCF	r0x02, W
002512   36fa     rlcf    0xfa, 0x1, 0     	RLCF	PCLATH, F
002514   34e8     rlcf    0xe8, 0, 0       	RLCF	WREG, W
002516   36fa     rlcf    0xfa, 0x1, 0     	RLCF	PCLATH, F
002518   0bfc     andlw   0xfc             	ANDLW	0xfc
00251a   0f2a     addlw   0x2a             	ADDLW	LOW(_01555_DS_)
00251c   6ee5     movwf   0xe5, 0          	MOVWF	POSTDEC1
00251e   0e25     movlw   0x25             	MOVLW	HIGH(_01555_DS_)
002520   22fa     addwfc  0xfa, 0x1, 0     	ADDWFC	PCLATH, F
002522   0e00     movlw   0                	MOVLW	UPPER(_01555_DS_)
002524   22fb     addwfc  0xfb, 0x1, 0     	ADDWFC	PCLATU, F
002526   50e4     movf    0xe4, 0, 0       	MOVF	PREINC1, W
002528   6ef9     movwf   0xf9, 0          	MOVWF	PCL
                                           _01555_DS_:
00252a   ef9f     goto    0x253e           	GOTO	_01513_DS_
00252c   f012
00252e   efcc     goto    0x2598           	GOTO	_01517_DS_
002530   f012
002532   eff9     goto    0x25f2           	GOTO	_01521_DS_
002534   f012
002536   ef26     goto    0x264c           	GOTO	_01525_DS_
002538   f013
00253a   ef53     goto    0x26a6           	GOTO	_01529_DS_
00253c   f013
                                           _01513_DS_:
                                           ;	.line	226; /dvpt/pinguino/git/pinguino-ide/pinguino/p8/pinguino/core/digitalw.c	case pA: if (state) LATA=LATA | mask[pin];
00253e   5001     movf    0x1, 0, 0        	MOVF	r0x01, W
002540   e015     bz      0x256c           	BZ	_01515_DS_
002542   0ec6     movlw   0xc6             	MOVLW	LOW(_mask)
002544   2400     addwf   0, 0, 0          	ADDWF	r0x00, W
002546   6e02     movwf   0x2, 0           	MOVWF	r0x02
002548   6a03     clrf    0x3, 0           	CLRF	r0x03
00254a   0e27     movlw   0x27             	MOVLW	HIGH(_mask)
00254c   2203     addwfc  0x3, 0x1, 0      	ADDWFC	r0x03, F
00254e   6a04     clrf    0x4, 0           	CLRF	r0x04
002550   0e00     movlw   0                	MOVLW	UPPER(_mask)
002552   2204     addwfc  0x4, 0x1, 0      	ADDWFC	r0x04, F
002554   c002     movff   0x2, 0xff6       	MOVFF	r0x02, TBLPTRL
002556   fff6
002558   c003     movff   0x3, 0xff7       	MOVFF	r0x03, TBLPTRH
00255a   fff7
00255c   c004     movff   0x4, 0xff8       	MOVFF	r0x04, TBLPTRU
00255e   fff8
002560   0009     tblrd   *+               	TBLRD*+	
002562   cff5     movff   0xff5, 0x2       	MOVFF	TABLAT, r0x02
002564   f002
002566   5002     movf    0x2, 0, 0        	MOVF	r0x02, W
002568   1289     iorwf   0x89, 0x1, 0     	IORWF	_LATA, F
00256a   d0c8     bra     0x26fc           	BRA	_01534_DS_
                                           _01515_DS_:
                                           ;	.line	227; /dvpt/pinguino/git/pinguino-ide/pinguino/p8/pinguino/core/digitalw.c	else LATA=LATA & (255-mask[pin]);
00256c   0ec6     movlw   0xc6             	MOVLW	LOW(_mask)
00256e   2400     addwf   0, 0, 0          	ADDWF	r0x00, W
002570   6e02     movwf   0x2, 0           	MOVWF	r0x02
002572   6a03     clrf    0x3, 0           	CLRF	r0x03
002574   0e27     movlw   0x27             	MOVLW	HIGH(_mask)
002576   2203     addwfc  0x3, 0x1, 0      	ADDWFC	r0x03, F
002578   6a04     clrf    0x4, 0           	CLRF	r0x04
00257a   0e00     movlw   0                	MOVLW	UPPER(_mask)
00257c   2204     addwfc  0x4, 0x1, 0      	ADDWFC	r0x04, F
00257e   c002     movff   0x2, 0xff6       	MOVFF	r0x02, TBLPTRL
002580   fff6
002582   c003     movff   0x3, 0xff7       	MOVFF	r0x03, TBLPTRH
002584   fff7
002586   c004     movff   0x4, 0xff8       	MOVFF	r0x04, TBLPTRU
002588   fff8
00258a   0009     tblrd   *+               	TBLRD*+	
00258c   cff5     movff   0xff5, 0x2       	MOVFF	TABLAT, r0x02
00258e   f002
002590   5002     movf    0x2, 0, 0        	MOVF	r0x02, W
002592   08ff     sublw   0xff             	SUBLW	0xff
                                           ; #	MOVWF	r0x02
                                           ; #	MOVF	r0x02, W
002594   1689     andwf   0x89, 0x1, 0     	ANDWF	_LATA, F
                                           ;	.line	228; /dvpt/pinguino/git/pinguino-ide/pinguino/p8/pinguino/core/digitalw.c	break;
002596   d0b2     bra     0x26fc           	BRA	_01534_DS_
                                           _01517_DS_:
                                           ;	.line	229; /dvpt/pinguino/git/pinguino-ide/pinguino/p8/pinguino/core/digitalw.c	case pB: if (state) LATB=LATB | mask[pin]; 
002598   5001     movf    0x1, 0, 0        	MOVF	r0x01, W
00259a   e015     bz      0x25c6           	BZ	_01519_DS_
00259c   0ec6     movlw   0xc6             	MOVLW	LOW(_mask)
00259e   2400     addwf   0, 0, 0          	ADDWF	r0x00, W
0025a0   6e02     movwf   0x2, 0           	MOVWF	r0x02
0025a2   6a03     clrf    0x3, 0           	CLRF	r0x03
0025a4   0e27     movlw   0x27             	MOVLW	HIGH(_mask)
0025a6   2203     addwfc  0x3, 0x1, 0      	ADDWFC	r0x03, F
0025a8   6a04     clrf    0x4, 0           	CLRF	r0x04
0025aa   0e00     movlw   0                	MOVLW	UPPER(_mask)
0025ac   2204     addwfc  0x4, 0x1, 0      	ADDWFC	r0x04, F
0025ae   c002     movff   0x2, 0xff6       	MOVFF	r0x02, TBLPTRL
0025b0   fff6
0025b2   c003     movff   0x3, 0xff7       	MOVFF	r0x03, TBLPTRH
0025b4   fff7
0025b6   c004     movff   0x4, 0xff8       	MOVFF	r0x04, TBLPTRU
0025b8   fff8
0025ba   0009     tblrd   *+               	TBLRD*+	
0025bc   cff5     movff   0xff5, 0x2       	MOVFF	TABLAT, r0x02
0025be   f002
0025c0   5002     movf    0x2, 0, 0        	MOVF	r0x02, W
0025c2   128a     iorwf   0x8a, 0x1, 0     	IORWF	_LATB, F
0025c4   d09b     bra     0x26fc           	BRA	_01534_DS_
                                           _01519_DS_:
                                           ;	.line	230; /dvpt/pinguino/git/pinguino-ide/pinguino/p8/pinguino/core/digitalw.c	else LATB=LATB & (255-mask[pin]);
0025c6   0ec6     movlw   0xc6             	MOVLW	LOW(_mask)
0025c8   2400     addwf   0, 0, 0          	ADDWF	r0x00, W
0025ca   6e02     movwf   0x2, 0           	MOVWF	r0x02
0025cc   6a03     clrf    0x3, 0           	CLRF	r0x03
0025ce   0e27     movlw   0x27             	MOVLW	HIGH(_mask)
0025d0   2203     addwfc  0x3, 0x1, 0      	ADDWFC	r0x03, F
0025d2   6a04     clrf    0x4, 0           	CLRF	r0x04
0025d4   0e00     movlw   0                	MOVLW	UPPER(_mask)
0025d6   2204     addwfc  0x4, 0x1, 0      	ADDWFC	r0x04, F
0025d8   c002     movff   0x2, 0xff6       	MOVFF	r0x02, TBLPTRL
0025da   fff6
0025dc   c003     movff   0x3, 0xff7       	MOVFF	r0x03, TBLPTRH
0025de   fff7
0025e0   c004     movff   0x4, 0xff8       	MOVFF	r0x04, TBLPTRU
0025e2   fff8
0025e4   0009     tblrd   *+               	TBLRD*+	
0025e6   cff5     movff   0xff5, 0x2       	MOVFF	TABLAT, r0x02
0025e8   f002
0025ea   5002     movf    0x2, 0, 0        	MOVF	r0x02, W
0025ec   08ff     sublw   0xff             	SUBLW	0xff
                                           ; #	MOVWF	r0x02
                                           ; #	MOVF	r0x02, W
0025ee   168a     andwf   0x8a, 0x1, 0     	ANDWF	_LATB, F
                                           ;	.line	231; /dvpt/pinguino/git/pinguino-ide/pinguino/p8/pinguino/core/digitalw.c	break;
0025f0   d085     bra     0x26fc           	BRA	_01534_DS_
                                           _01521_DS_:
                                           ;	.line	232; /dvpt/pinguino/git/pinguino-ide/pinguino/p8/pinguino/core/digitalw.c	case pC: if (state) LATC=LATC | mask[pin];
0025f2   5001     movf    0x1, 0, 0        	MOVF	r0x01, W
0025f4   e015     bz      0x2620           	BZ	_01523_DS_
0025f6   0ec6     movlw   0xc6             	MOVLW	LOW(_mask)
0025f8   2400     addwf   0, 0, 0          	ADDWF	r0x00, W
0025fa   6e02     movwf   0x2, 0           	MOVWF	r0x02
0025fc   6a03     clrf    0x3, 0           	CLRF	r0x03
0025fe   0e27     movlw   0x27             	MOVLW	HIGH(_mask)
002600   2203     addwfc  0x3, 0x1, 0      	ADDWFC	r0x03, F
002602   6a04     clrf    0x4, 0           	CLRF	r0x04
002604   0e00     movlw   0                	MOVLW	UPPER(_mask)
002606   2204     addwfc  0x4, 0x1, 0      	ADDWFC	r0x04, F
002608   c002     movff   0x2, 0xff6       	MOVFF	r0x02, TBLPTRL
00260a   fff6
00260c   c003     movff   0x3, 0xff7       	MOVFF	r0x03, TBLPTRH
00260e   fff7
002610   c004     movff   0x4, 0xff8       	MOVFF	r0x04, TBLPTRU
002612   fff8
002614   0009     tblrd   *+               	TBLRD*+	
002616   cff5     movff   0xff5, 0x2       	MOVFF	TABLAT, r0x02
002618   f002
00261a   5002     movf    0x2, 0, 0        	MOVF	r0x02, W
00261c   128b     iorwf   0x8b, 0x1, 0     	IORWF	_LATC, F
00261e   d06e     bra     0x26fc           	BRA	_01534_DS_
                                           _01523_DS_:
                                           ;	.line	233; /dvpt/pinguino/git/pinguino-ide/pinguino/p8/pinguino/core/digitalw.c	else LATC=LATC & (255-mask[pin]);
002620   0ec6     movlw   0xc6             	MOVLW	LOW(_mask)
002622   2400     addwf   0, 0, 0          	ADDWF	r0x00, W
002624   6e02     movwf   0x2, 0           	MOVWF	r0x02
002626   6a03     clrf    0x3, 0           	CLRF	r0x03
002628   0e27     movlw   0x27             	MOVLW	HIGH(_mask)
00262a   2203     addwfc  0x3, 0x1, 0      	ADDWFC	r0x03, F
00262c   6a04     clrf    0x4, 0           	CLRF	r0x04
00262e   0e00     movlw   0                	MOVLW	UPPER(_mask)
002630   2204     addwfc  0x4, 0x1, 0      	ADDWFC	r0x04, F
002632   c002     movff   0x2, 0xff6       	MOVFF	r0x02, TBLPTRL
002634   fff6
002636   c003     movff   0x3, 0xff7       	MOVFF	r0x03, TBLPTRH
002638   fff7
00263a   c004     movff   0x4, 0xff8       	MOVFF	r0x04, TBLPTRU
00263c   fff8
00263e   0009     tblrd   *+               	TBLRD*+	
002640   cff5     movff   0xff5, 0x2       	MOVFF	TABLAT, r0x02
002642   f002
002644   5002     movf    0x2, 0, 0        	MOVF	r0x02, W
002646   08ff     sublw   0xff             	SUBLW	0xff
                                           ; #	MOVWF	r0x02
                                           ; #	MOVF	r0x02, W
002648   168b     andwf   0x8b, 0x1, 0     	ANDWF	_LATC, F
                                           ;	.line	234; /dvpt/pinguino/git/pinguino-ide/pinguino/p8/pinguino/core/digitalw.c	break;
00264a   d058     bra     0x26fc           	BRA	_01534_DS_
                                           _01525_DS_:
                                           ;	.line	238; /dvpt/pinguino/git/pinguino-ide/pinguino/p8/pinguino/core/digitalw.c	case pD: if (state) LATD=LATD | mask[pin]; 
00264c   5001     movf    0x1, 0, 0        	MOVF	r0x01, W
00264e   e015     bz      0x267a           	BZ	_01527_DS_
002650   0ec6     movlw   0xc6             	MOVLW	LOW(_mask)
002652   2400     addwf   0, 0, 0          	ADDWF	r0x00, W
002654   6e02     movwf   0x2, 0           	MOVWF	r0x02
002656   6a03     clrf    0x3, 0           	CLRF	r0x03
002658   0e27     movlw   0x27             	MOVLW	HIGH(_mask)
00265a   2203     addwfc  0x3, 0x1, 0      	ADDWFC	r0x03, F
00265c   6a04     clrf    0x4, 0           	CLRF	r0x04
00265e   0e00     movlw   0                	MOVLW	UPPER(_mask)
002660   2204     addwfc  0x4, 0x1, 0      	ADDWFC	r0x04, F
002662   c002     movff   0x2, 0xff6       	MOVFF	r0x02, TBLPTRL
002664   fff6
002666   c003     movff   0x3, 0xff7       	MOVFF	r0x03, TBLPTRH
002668   fff7
00266a   c004     movff   0x4, 0xff8       	MOVFF	r0x04, TBLPTRU
00266c   fff8
00266e   0009     tblrd   *+               	TBLRD*+	
002670   cff5     movff   0xff5, 0x2       	MOVFF	TABLAT, r0x02
002672   f002
002674   5002     movf    0x2, 0, 0        	MOVF	r0x02, W
002676   128c     iorwf   0x8c, 0x1, 0     	IORWF	_LATD, F
002678   d041     bra     0x26fc           	BRA	_01534_DS_
                                           _01527_DS_:
                                           ;	.line	239; /dvpt/pinguino/git/pinguino-ide/pinguino/p8/pinguino/core/digitalw.c	else LATD=LATD & (255-mask[pin]);
00267a   0ec6     movlw   0xc6             	MOVLW	LOW(_mask)
00267c   2400     addwf   0, 0, 0          	ADDWF	r0x00, W
00267e   6e02     movwf   0x2, 0           	MOVWF	r0x02
002680   6a03     clrf    0x3, 0           	CLRF	r0x03
002682   0e27     movlw   0x27             	MOVLW	HIGH(_mask)
002684   2203     addwfc  0x3, 0x1, 0      	ADDWFC	r0x03, F
002686   6a04     clrf    0x4, 0           	CLRF	r0x04
002688   0e00     movlw   0                	MOVLW	UPPER(_mask)
00268a   2204     addwfc  0x4, 0x1, 0      	ADDWFC	r0x04, F
00268c   c002     movff   0x2, 0xff6       	MOVFF	r0x02, TBLPTRL
00268e   fff6
002690   c003     movff   0x3, 0xff7       	MOVFF	r0x03, TBLPTRH
002692   fff7
002694   c004     movff   0x4, 0xff8       	MOVFF	r0x04, TBLPTRU
002696   fff8
002698   0009     tblrd   *+               	TBLRD*+	
00269a   cff5     movff   0xff5, 0x2       	MOVFF	TABLAT, r0x02
00269c   f002
00269e   5002     movf    0x2, 0, 0        	MOVF	r0x02, W
0026a0   08ff     sublw   0xff             	SUBLW	0xff
                                           ; #	MOVWF	r0x02
                                           ; #	MOVF	r0x02, W
0026a2   168c     andwf   0x8c, 0x1, 0     	ANDWF	_LATD, F
                                           ;	.line	240; /dvpt/pinguino/git/pinguino-ide/pinguino/p8/pinguino/core/digitalw.c	break;
0026a4   d02b     bra     0x26fc           	BRA	_01534_DS_
                                           _01529_DS_:
                                           ;	.line	241; /dvpt/pinguino/git/pinguino-ide/pinguino/p8/pinguino/core/digitalw.c	case pE: if (state) LATE=LATE | mask[pin]; 
0026a6   5001     movf    0x1, 0, 0        	MOVF	r0x01, W
0026a8   e015     bz      0x26d4           	BZ	_01531_DS_
0026aa   0ec6     movlw   0xc6             	MOVLW	LOW(_mask)
0026ac   2400     addwf   0, 0, 0          	ADDWF	r0x00, W
0026ae   6e01     movwf   0x1, 0           	MOVWF	r0x01
0026b0   6a02     clrf    0x2, 0           	CLRF	r0x02
0026b2   0e27     movlw   0x27             	MOVLW	HIGH(_mask)
0026b4   2202     addwfc  0x2, 0x1, 0      	ADDWFC	r0x02, F
0026b6   6a03     clrf    0x3, 0           	CLRF	r0x03
0026b8   0e00     movlw   0                	MOVLW	UPPER(_mask)
0026ba   2203     addwfc  0x3, 0x1, 0      	ADDWFC	r0x03, F
0026bc   c001     movff   0x1, 0xff6       	MOVFF	r0x01, TBLPTRL
0026be   fff6
0026c0   c002     movff   0x2, 0xff7       	MOVFF	r0x02, TBLPTRH
0026c2   fff7
0026c4   c003     movff   0x3, 0xff8       	MOVFF	r0x03, TBLPTRU
0026c6   fff8
0026c8   0009     tblrd   *+               	TBLRD*+	
0026ca   cff5     movff   0xff5, 0x1       	MOVFF	TABLAT, r0x01
0026cc   f001
0026ce   5001     movf    0x1, 0, 0        	MOVF	r0x01, W
0026d0   128d     iorwf   0x8d, 0x1, 0     	IORWF	_LATE, F
0026d2   d014     bra     0x26fc           	BRA	_01534_DS_
                                           _01531_DS_:
                                           ;	.line	242; /dvpt/pinguino/git/pinguino-ide/pinguino/p8/pinguino/core/digitalw.c	else LATE=LATE & (255-mask[pin]);
0026d4   6a01     clrf    0x1, 0           	CLRF	r0x01
0026d6   6a02     clrf    0x2, 0           	CLRF	r0x02
0026d8   0ec6     movlw   0xc6             	MOVLW	LOW(_mask)
0026da   2600     addwf   0, 0x1, 0        	ADDWF	r0x00, F
0026dc   0e27     movlw   0x27             	MOVLW	HIGH(_mask)
0026de   2201     addwfc  0x1, 0x1, 0      	ADDWFC	r0x01, F
0026e0   0e00     movlw   0                	MOVLW	UPPER(_mask)
0026e2   2202     addwfc  0x2, 0x1, 0      	ADDWFC	r0x02, F
0026e4   c000     movff   0, 0xff6         	MOVFF	r0x00, TBLPTRL
0026e6   fff6
0026e8   c001     movff   0x1, 0xff7       	MOVFF	r0x01, TBLPTRH
0026ea   fff7
0026ec   c002     movff   0x2, 0xff8       	MOVFF	r0x02, TBLPTRU
0026ee   fff8
0026f0   0009     tblrd   *+               	TBLRD*+	
0026f2   cff5     movff   0xff5, 0         	MOVFF	TABLAT, r0x00
0026f4   f000
0026f6   5000     movf    0, 0, 0          	MOVF	r0x00, W
0026f8   08ff     sublw   0xff             	SUBLW	0xff
                                           ; #	MOVWF	r0x00
                                           ; #	MOVF	r0x00, W
0026fa   168d     andwf   0x8d, 0x1, 0     	ANDWF	_LATE, F
                                           _01534_DS_:
                                           ;	.line	245; /dvpt/pinguino/git/pinguino-ide/pinguino/p8/pinguino/core/digitalw.c	}
0026fc   cfe4     movff   0xfe4, 0x4       	MOVFF	PREINC1, r0x04
0026fe   f004
002700   cfe4     movff   0xfe4, 0x3       	MOVFF	PREINC1, r0x03
002702   f003
002704   cfe4     movff   0xfe4, 0x2       	MOVFF	PREINC1, r0x02
002706   f002
002708   cfe4     movff   0xfe4, 0x1       	MOVFF	PREINC1, r0x01
00270a   f001
00270c   cfe4     movff   0xfe4, 0         	MOVFF	PREINC1, r0x00
00270e   f000
002710   cfe4     movff   0xfe4, 0xfd9     	MOVFF	PREINC1, FSR2L
002712   ffd9
002714   0012     return  0                	RETURN	
                                           
                                           ; ; Starting pCode block
                                           S_main__CDC_interrupt	code
                                           _CDC_interrupt:
                                           ;	.line	193; /dvpt/pinguino/git/pinguino-ide/pinguino/p8/pinguino/libraries/__cdc.c	if(PIR2bits.USBIF)
004d06   a8a1     btfss   0xa1, 0x4, 0     	BTFSS	_PIR2bits, 4
004d08   d006     bra     0x4d16           	BRA	_01508_DS_
                                           ;	.line	195; /dvpt/pinguino/git/pinguino-ide/pinguino/p8/pinguino/libraries/__cdc.c	PIR2bits.USBIF = 0;
004d0a   98a1     bcf     0xa1, 0x4, 0     	BCF	_PIR2bits, 4
                                           ;	.line	197; /dvpt/pinguino/git/pinguino-ide/pinguino/p8/pinguino/libraries/__cdc.c	ProcessUSBTransactions();
004d0c   ec8e     call    0x451c, 0        	CALL	_ProcessUSBTransactions
004d0e   f022
                                           ;	.line	198; /dvpt/pinguino/git/pinguino-ide/pinguino/p8/pinguino/libraries/__cdc.c	UIRbits.SOFIF = 0;
004d10   9c62     bcf     0x62, 0x6, 0     	BCF	_UIRbits, 6
                                           ;	.line	199; /dvpt/pinguino/git/pinguino-ide/pinguino/p8/pinguino/libraries/__cdc.c	UIRbits.URSTIF = 0;
004d12   9062     bcf     0x62, 0, 0       	BCF	_UIRbits, 0
                                           ;	.line	201; /dvpt/pinguino/git/pinguino-ide/pinguino/p8/pinguino/libraries/__cdc.c	UEIR = 0;
004d14   6a63     clrf    0x63, 0          	CLRF	_UEIR
                                           _01508_DS_:
004d16   0012     return  0                	RETURN	
                                           
                                           ; ; Starting pCode block
                                           S_main__CDCgetstring	code
                                           _CDCgetstring:
                                           ;	.line	170; /dvpt/pinguino/git/pinguino-ide/pinguino/p8/pinguino/libraries/__cdc.c	u8 * CDCgetstring(void)
004272   c000     movff   0, 0xfe5         	MOVFF	r0x00, POSTDEC1
004274   ffe5
004276   c001     movff   0x1, 0xfe5       	MOVFF	r0x01, POSTDEC1
004278   ffe5
00427a   c002     movff   0x2, 0xfe5       	MOVFF	r0x02, POSTDEC1
00427c   ffe5
00427e   c003     movff   0x3, 0xfe5       	MOVFF	r0x03, POSTDEC1
004280   ffe5
                                           ;	.line	175; /dvpt/pinguino/git/pinguino-ide/pinguino/p8/pinguino/libraries/__cdc.c	do {
004282   6a00     clrf    0, 0             	CLRF	r0x00
                                           _01488_DS_:
                                           ;	.line	176; /dvpt/pinguino/git/pinguino-ide/pinguino/p8/pinguino/libraries/__cdc.c	c = CDCgetkey();
004284   ec14     call    0x4c28, 0        	CALL	_CDCgetkey
004286   f026
004288   6e01     movwf   0x1, 0           	MOVWF	r0x01
                                           ;	.line	177; /dvpt/pinguino/git/pinguino-ide/pinguino/p8/pinguino/libraries/__cdc.c	CDCprintf("%c", c);
00428a   c001     movff   0x1, 0x2         	MOVFF	r0x01, r0x02
00428c   f002
00428e   6ae5     clrf    0xe5, 0          	CLRF	POSTDEC1
004290   5002     movf    0x2, 0, 0        	MOVF	r0x02, W
004292   6ee5     movwf   0xe5, 0          	MOVWF	POSTDEC1
004294   0e00     movlw   0                	MOVLW	UPPER(__str_7)
004296   6ee5     movwf   0xe5, 0          	MOVWF	POSTDEC1
004298   0e27     movlw   0x27             	MOVLW	HIGH(__str_7)
00429a   6ee5     movwf   0xe5, 0          	MOVWF	POSTDEC1
00429c   0ec2     movlw   0xc2             	MOVLW	LOW(__str_7)
00429e   6ee5     movwf   0xe5, 0          	MOVWF	POSTDEC1
0042a0   ec80     call    0x4300, 0        	CALL	_CDCprintf
0042a2   f021
0042a4   0e05     movlw   0x5              	MOVLW	0x05
0042a6   26e1     addwf   0xe1, 0x1, 0     	ADDWF	FSR1L, F
                                           ;	.line	178; /dvpt/pinguino/git/pinguino-ide/pinguino/p8/pinguino/libraries/__cdc.c	buffer[i++] = c;
0042a8   c000     movff   0, 0x2           	MOVFF	r0x00, r0x02
0042aa   f002
0042ac   2a00     incf    0, 0x1, 0        	INCF	r0x00, F
0042ae   6a03     clrf    0x3, 0           	CLRF	r0x03
0042b0   0e60     movlw   0x60             	MOVLW	LOW(_CDCgetstring_buffer_1_215)
0042b2   2602     addwf   0x2, 0x1, 0      	ADDWF	r0x02, F
0042b4   0e00     movlw   0                	MOVLW	HIGH(_CDCgetstring_buffer_1_215)
0042b6   2203     addwfc  0x3, 0x1, 0      	ADDWFC	r0x03, F
0042b8   c002     movff   0x2, 0xfe9       	MOVFF	r0x02, FSR0L
0042ba   ffe9
0042bc   c003     movff   0x3, 0xfea       	MOVFF	r0x03, FSR0H
0042be   ffea
0042c0   c001     movff   0x1, 0xfef       	MOVFF	r0x01, INDF0
0042c2   ffef
                                           ;	.line	179; /dvpt/pinguino/git/pinguino-ide/pinguino/p8/pinguino/libraries/__cdc.c	} while (c != '\r');
0042c4   5001     movf    0x1, 0, 0        	MOVF	r0x01, W
0042c6   0a0d     xorlw   0xd              	XORLW	0x0d
0042c8   e1dd     bnz     0x4284           	BNZ	_01488_DS_
                                           ;	.line	180; /dvpt/pinguino/git/pinguino-ide/pinguino/p8/pinguino/libraries/__cdc.c	buffer[i] = '\0';
0042ca   6a01     clrf    0x1, 0           	CLRF	r0x01
0042cc   0e60     movlw   0x60             	MOVLW	LOW(_CDCgetstring_buffer_1_215)
0042ce   2600     addwf   0, 0x1, 0        	ADDWF	r0x00, F
0042d0   0e00     movlw   0                	MOVLW	HIGH(_CDCgetstring_buffer_1_215)
0042d2   2201     addwfc  0x1, 0x1, 0      	ADDWFC	r0x01, F
0042d4   c000     movff   0, 0xfe9         	MOVFF	r0x00, FSR0L
0042d6   ffe9
0042d8   c001     movff   0x1, 0xfea       	MOVFF	r0x01, FSR0H
0042da   ffea
0042dc   6aef     clrf    0xef, 0          	CLRF	INDF0
                                           ;	.line	181; /dvpt/pinguino/git/pinguino-ide/pinguino/p8/pinguino/libraries/__cdc.c	return buffer;
0042de   6e01     movwf   0x1, 0           	MOVWF	r0x01
0042e0   0e80     movlw   0x80             	MOVLW	0x80
0042e2   6e02     movwf   0x2, 0           	MOVWF	r0x02
0042e4   c002     movff   0x2, 0xff4       	MOVFF	r0x02, PRODH
0042e6   fff4
0042e8   c001     movff   0x1, 0xff3       	MOVFF	r0x01, PRODL
0042ea   fff3
0042ec   0e60     movlw   0x60             	MOVLW	LOW(_CDCgetstring_buffer_1_215)
0042ee   cfe4     movff   0xfe4, 0x3       	MOVFF	PREINC1, r0x03
0042f0   f003
0042f2   cfe4     movff   0xfe4, 0x2       	MOVFF	PREINC1, r0x02
0042f4   f002
0042f6   cfe4     movff   0xfe4, 0x1       	MOVFF	PREINC1, r0x01
0042f8   f001
0042fa   cfe4     movff   0xfe4, 0         	MOVFF	PREINC1, r0x00
0042fc   f000
0042fe   0012     return  0                	RETURN	
                                           
                                           ; ; Starting pCode block
                                           S_main__CDCgetkey	code
                                           _CDCgetkey:
                                           ;	.line	161; /dvpt/pinguino/git/pinguino-ide/pinguino/p8/pinguino/libraries/__cdc.c	u8 CDCgetkey(void)
004c28   c000     movff   0, 0xfe5         	MOVFF	r0x00, POSTDEC1
004c2a   ffe5
                                           _01480_DS_:
                                           ;	.line	165; /dvpt/pinguino/git/pinguino-ide/pinguino/p8/pinguino/libraries/__cdc.c	while (!CDCgets(buffer));
004c2c   0e80     movlw   0x80             	MOVLW	0x80
                                           ; #	MOVWF	r0x02
                                           ; #	MOVF	r0x02, W
004c2e   6ee5     movwf   0xe5, 0          	MOVWF	POSTDEC1
004c30   0e01     movlw   0x1              	MOVLW	HIGH(_CDCgetkey_buffer_1_213)
004c32   6ee5     movwf   0xe5, 0          	MOVWF	POSTDEC1
004c34   0e00     movlw   0                	MOVLW	LOW(_CDCgetkey_buffer_1_213)
004c36   6ee5     movwf   0xe5, 0          	MOVWF	POSTDEC1
004c38   ec4a     call    0x3494, 0        	CALL	_CDCgets
004c3a   f01a
004c3c   6e00     movwf   0, 0             	MOVWF	r0x00
004c3e   0e03     movlw   0x3              	MOVLW	0x03
004c40   26e1     addwf   0xe1, 0x1, 0     	ADDWF	FSR1L, F
004c42   5000     movf    0, 0, 0          	MOVF	r0x00, W
004c44   e0f3     bz      0x4c2c           	BZ	_01480_DS_
004c46   0101     movlb   0x1              	BANKSEL	_CDCgetkey_buffer_1_213
                                           ;	.line	166; /dvpt/pinguino/git/pinguino-ide/pinguino/p8/pinguino/libraries/__cdc.c	return (buffer[0]);	// return only the first character
004c48   5100     movf    0, 0, 0x1        	MOVF	_CDCgetkey_buffer_1_213, W, B
004c4a   cfe4     movff   0xfe4, 0         	MOVFF	PREINC1, r0x00
004c4c   f000
004c4e   0012     return  0                	RETURN	
                                           
                                           ; ; Starting pCode block
                                           S_main__CDCprintln	code
                                           _CDCprintln:
                                           ;	.line	149; /dvpt/pinguino/git/pinguino-ide/pinguino/p8/pinguino/libraries/__cdc.c	void CDCprintln(const u8 *fmt, ...)
003ca0   cfd9     movff   0xfd9, 0xfe5     	MOVFF	FSR2L, POSTDEC1
003ca2   ffe5
003ca4   cfe1     movff   0xfe1, 0xfd9     	MOVFF	FSR1L, FSR2L
003ca6   ffd9
003ca8   c000     movff   0, 0xfe5         	MOVFF	r0x00, POSTDEC1
003caa   ffe5
003cac   c001     movff   0x1, 0xfe5       	MOVFF	r0x01, POSTDEC1
003cae   ffe5
003cb0   c002     movff   0x2, 0xfe5       	MOVFF	r0x02, POSTDEC1
003cb2   ffe5
                                           ;	.line	152; /dvpt/pinguino/git/pinguino-ide/pinguino/p8/pinguino/libraries/__cdc.c	va_start(args, fmt);					// initialize the list
003cb4   0e02     movlw   0x2              	MOVLW	0x02
003cb6   24d9     addwf   0xd9, 0, 0       	ADDWF	FSR2L, W
003cb8   6e00     movwf   0, 0             	MOVWF	r0x00
003cba   0e00     movlw   0                	MOVLW	0x00
003cbc   20da     addwfc  0xda, 0, 0       	ADDWFC	FSR2H, W
                                           ; #	MOVWF	r0x01
                                           ; #	MOVF	r0x01, W
                                           ; #	MOVWF	r0x01
                                           ; #	MOVWF	r0x01
003cbe   6e01     movwf   0x1, 0           	MOVWF	r0x01
                                           ; #	MOVF	r0x00, W
                                           ; #	MOVWF	r0x00
003cc0   0e80     movlw   0x80             	MOVLW	0x80
003cc2   6e02     movwf   0x2, 0           	MOVWF	r0x02
003cc4   0e03     movlw   0x3              	MOVLW	0x03
003cc6   2600     addwf   0, 0x1, 0        	ADDWF	r0x00, F
003cc8   0e00     movlw   0                	MOVLW	0x00
003cca   2201     addwfc  0x1, 0x1, 0      	ADDWFC	r0x01, F
003ccc   2202     addwfc  0x2, 0x1, 0      	ADDWFC	r0x02, F
                                           ;	.line	154; /dvpt/pinguino/git/pinguino-ide/pinguino/p8/pinguino/libraries/__cdc.c	CDCprintf(fmt, args);
003cce   c003     movff   0x3, 0xfe5       	MOVFF	r0x03, POSTDEC1
003cd0   ffe5
003cd2   c004     movff   0x4, 0xfe5       	MOVFF	r0x04, POSTDEC1
003cd4   ffe5
003cd6   c005     movff   0x5, 0xfe5       	MOVFF	r0x05, POSTDEC1
003cd8   ffe5
003cda   0e02     movlw   0x2              	MOVLW	0x02
003cdc   cfdb     movff   0xfdb, 0x3       	MOVFF	PLUSW2, r0x03
003cde   f003
003ce0   0e03     movlw   0x3              	MOVLW	0x03
003ce2   cfdb     movff   0xfdb, 0x4       	MOVFF	PLUSW2, r0x04
003ce4   f004
003ce6   0e04     movlw   0x4              	MOVLW	0x04
003ce8   cfdb     movff   0xfdb, 0x5       	MOVFF	PLUSW2, r0x05
003cea   f005
003cec   cfe4     movff   0xfe4, 0x5       	MOVFF	PREINC1, r0x05
003cee   f005
003cf0   cfe4     movff   0xfe4, 0x4       	MOVFF	PREINC1, r0x04
003cf2   f004
003cf4   cfe4     movff   0xfe4, 0x3       	MOVFF	PREINC1, r0x03
003cf6   f003
003cf8   5002     movf    0x2, 0, 0        	MOVF	r0x02, W
003cfa   6ee5     movwf   0xe5, 0          	MOVWF	POSTDEC1
003cfc   5001     movf    0x1, 0, 0        	MOVF	r0x01, W
003cfe   6ee5     movwf   0xe5, 0          	MOVWF	POSTDEC1
003d00   5000     movf    0, 0, 0          	MOVF	r0x00, W
003d02   6ee5     movwf   0xe5, 0          	MOVWF	POSTDEC1
003d04   c003     movff   0x3, 0xfe5       	MOVFF	r0x03, POSTDEC1
003d06   ffe5
003d08   c004     movff   0x4, 0xfe5       	MOVFF	r0x04, POSTDEC1
003d0a   ffe5
003d0c   c005     movff   0x5, 0xfe5       	MOVFF	r0x05, POSTDEC1
003d0e   ffe5
003d10   0e02     movlw   0x2              	MOVLW	0x02
003d12   cfdb     movff   0xfdb, 0x3       	MOVFF	PLUSW2, r0x03
003d14   f003
003d16   0e03     movlw   0x3              	MOVLW	0x03
003d18   cfdb     movff   0xfdb, 0x4       	MOVFF	PLUSW2, r0x04
003d1a   f004
003d1c   0e04     movlw   0x4              	MOVLW	0x04
003d1e   cfdb     movff   0xfdb, 0x5       	MOVFF	PLUSW2, r0x05
003d20   f005
003d22   5005     movf    0x5, 0, 0        	MOVF	r0x05, W
003d24   6ee5     movwf   0xe5, 0          	MOVWF	POSTDEC1
003d26   5004     movf    0x4, 0, 0        	MOVF	r0x04, W
003d28   6ee5     movwf   0xe5, 0          	MOVWF	POSTDEC1
003d2a   5003     movf    0x3, 0, 0        	MOVF	r0x03, W
003d2c   6ee5     movwf   0xe5, 0          	MOVWF	POSTDEC1
003d2e   cfe4     movff   0xfe4, 0x5       	MOVFF	PREINC1, r0x05
003d30   f005
003d32   cfe4     movff   0xfe4, 0x4       	MOVFF	PREINC1, r0x04
003d34   f004
003d36   cfe4     movff   0xfe4, 0x3       	MOVFF	PREINC1, r0x03
003d38   f003
003d3a   ec80     call    0x4300, 0        	CALL	_CDCprintf
003d3c   f021
003d3e   0e06     movlw   0x6              	MOVLW	0x06
003d40   26e1     addwf   0xe1, 0x1, 0     	ADDWF	FSR1L, F
                                           ;	.line	155; /dvpt/pinguino/git/pinguino-ide/pinguino/p8/pinguino/libraries/__cdc.c	CDCprintf("\n\r");
003d42   0e00     movlw   0                	MOVLW	UPPER(__str_6)
003d44   6ee5     movwf   0xe5, 0          	MOVWF	POSTDEC1
003d46   0e27     movlw   0x27             	MOVLW	HIGH(__str_6)
003d48   6ee5     movwf   0xe5, 0          	MOVWF	POSTDEC1
003d4a   0ebe     movlw   0xbe             	MOVLW	LOW(__str_6)
003d4c   6ee5     movwf   0xe5, 0          	MOVWF	POSTDEC1
003d4e   ec80     call    0x4300, 0        	CALL	_CDCprintf
003d50   f021
003d52   0e03     movlw   0x3              	MOVLW	0x03
003d54   26e1     addwf   0xe1, 0x1, 0     	ADDWF	FSR1L, F
003d56   cfe4     movff   0xfe4, 0x2       	MOVFF	PREINC1, r0x02
003d58   f002
003d5a   cfe4     movff   0xfe4, 0x1       	MOVFF	PREINC1, r0x01
003d5c   f001
003d5e   cfe4     movff   0xfe4, 0         	MOVFF	PREINC1, r0x00
003d60   f000
003d62   cfe4     movff   0xfe4, 0xfd9     	MOVFF	PREINC1, FSR2L
003d64   ffd9
003d66   0012     return  0                	RETURN	
                                           
                                           ; ; Starting pCode block
                                           S_main__CDCprint	code
                                           _CDCprint:
                                           ;	.line	112; /dvpt/pinguino/git/pinguino-ide/pinguino/p8/pinguino/libraries/__cdc.c	void CDCprint(const u8 *fmt, ...)
001f5a   cfd9     movff   0xfd9, 0xfe5     	MOVFF	FSR2L, POSTDEC1
001f5c   ffe5
001f5e   cfe1     movff   0xfe1, 0xfd9     	MOVFF	FSR1L, FSR2L
001f60   ffd9
001f62   c000     movff   0, 0xfe5         	MOVFF	r0x00, POSTDEC1
001f64   ffe5
001f66   c001     movff   0x1, 0xfe5       	MOVFF	r0x01, POSTDEC1
001f68   ffe5
001f6a   c002     movff   0x2, 0xfe5       	MOVFF	r0x02, POSTDEC1
001f6c   ffe5
                                           ;	.line	116; /dvpt/pinguino/git/pinguino-ide/pinguino/p8/pinguino/libraries/__cdc.c	va_start(args, fmt);					// initialize the list
001f6e   0e02     movlw   0x2              	MOVLW	0x02
001f70   24d9     addwf   0xd9, 0, 0       	ADDWF	FSR2L, W
001f72   6e00     movwf   0, 0             	MOVWF	r0x00
001f74   0e00     movlw   0                	MOVLW	0x00
001f76   20da     addwfc  0xda, 0, 0       	ADDWFC	FSR2H, W
                                           ; #	MOVWF	r0x01
                                           ; #	MOVF	r0x01, W
                                           ; #	MOVWF	r0x01
                                           ; #	MOVWF	r0x01
001f78   6e01     movwf   0x1, 0           	MOVWF	r0x01
                                           ; #	MOVF	r0x00, W
                                           ; #	MOVWF	r0x00
001f7a   0e80     movlw   0x80             	MOVLW	0x80
001f7c   6e02     movwf   0x2, 0           	MOVWF	r0x02
001f7e   0e03     movlw   0x3              	MOVLW	0x03
001f80   2600     addwf   0, 0x1, 0        	ADDWF	r0x00, F
001f82   0e00     movlw   0                	MOVLW	0x00
001f84   2201     addwfc  0x1, 0x1, 0      	ADDWFC	r0x01, F
001f86   2202     addwfc  0x2, 0x1, 0      	ADDWFC	r0x02, F
                                           ; #	MOVF	r0x02, W
                                           ; #	MOVWF	r0x02
                                           ; #	MOVF	r0x02, W
                                           ; #	MOVF	r0x01, W
                                           ; #	MOVF	r0x01, W
                                           ; #	MOVWF	r0x01
                                           ; #	MOVF	r0x01, W
                                           ; #	MOVF	r0x00, W
                                           ; #	MOVF	r0x00, W
                                           ; #	MOVWF	r0x00
                                           ;	.line	117; /dvpt/pinguino/git/pinguino-ide/pinguino/p8/pinguino/libraries/__cdc.c	s = (u8) va_arg(args, u32);				// get the first variable arg.
001f88   c000     movff   0, 0xfe9         	MOVFF	r0x00, FSR0L
001f8a   ffe9
001f8c   c001     movff   0x1, 0xff3       	MOVFF	r0x01, PRODL
001f8e   fff3
001f90   5002     movf    0x2, 0, 0        	MOVF	r0x02, W
001f92   eca0     call    0x4940, 0        	CALL	__gptrget4
001f94   f024
001f96   6e00     movwf   0, 0             	MOVWF	r0x00
                                           ;	.line	120; /dvpt/pinguino/git/pinguino-ide/pinguino/p8/pinguino/libraries/__cdc.c	switch (s)
001f98   0a01     xorlw   0x1              	XORLW	0x01
001f9a   e101     bnz     0x1f9e           	BNZ	_01460_DS_
001f9c   d09a     bra     0x20d2           	BRA	_01434_DS_
                                           _01460_DS_:
001f9e   5000     movf    0, 0, 0          	MOVF	r0x00, W
001fa0   0a02     xorlw   0x2              	XORLW	0x02
001fa2   e101     bnz     0x1fa6           	BNZ	_01462_DS_
001fa4   d0f0     bra     0x2186           	BRA	_01436_DS_
                                           _01462_DS_:
001fa6   5000     movf    0, 0, 0          	MOVF	r0x00, W
001fa8   0a08     xorlw   0x8              	XORLW	0x08
001faa   e101     bnz     0x1fae           	BNZ	_01464_DS_
001fac   d0bf     bra     0x212c           	BRA	_01435_DS_
                                           _01464_DS_:
001fae   5000     movf    0, 0, 0          	MOVF	r0x00, W
001fb0   0a0a     xorlw   0xa              	XORLW	0x0a
001fb2   e035     bz      0x201e           	BZ	_01432_DS_
001fb4   5000     movf    0, 0, 0          	MOVF	r0x00, W
001fb6   0a10     xorlw   0x10             	XORLW	0x10
001fb8   e101     bnz     0x1fbc           	BNZ	_01468_DS_
001fba   d05e     bra     0x2078           	BRA	_01433_DS_
                                           _01468_DS_:
001fbc   5000     movf    0, 0, 0          	MOVF	r0x00, W
001fbe   0a20     xorlw   0x20             	XORLW	0x20
001fc0   e001     bz      0x1fc4           	BZ	_01470_DS_
001fc2   d10e     bra     0x21e0           	BRA	_01437_DS_
                                           _01470_DS_:
                                           ;	.line	123; /dvpt/pinguino/git/pinguino-ide/pinguino/p8/pinguino/libraries/__cdc.c	CDCprintf("%f", (u32)fmt);
001fc4   c007     movff   0x7, 0xfe5       	MOVFF	r0x07, POSTDEC1
001fc6   ffe5
001fc8   c008     movff   0x8, 0xfe5       	MOVFF	r0x08, POSTDEC1
001fca   ffe5
001fcc   c009     movff   0x9, 0xfe5       	MOVFF	r0x09, POSTDEC1
001fce   ffe5
001fd0   0e02     movlw   0x2              	MOVLW	0x02
001fd2   cfdb     movff   0xfdb, 0x7       	MOVFF	PLUSW2, r0x07
001fd4   f007
001fd6   0e03     movlw   0x3              	MOVLW	0x03
001fd8   cfdb     movff   0xfdb, 0x8       	MOVFF	PLUSW2, r0x08
001fda   f008
001fdc   0e04     movlw   0x4              	MOVLW	0x04
001fde   cfdb     movff   0xfdb, 0x9       	MOVFF	PLUSW2, r0x09
001fe0   f009
001fe2   c007     movff   0x7, 0           	MOVFF	r0x07, r0x00
001fe4   f000
001fe6   c008     movff   0x8, 0x1         	MOVFF	r0x08, r0x01
001fe8   f001
001fea   c009     movff   0x9, 0x2         	MOVFF	r0x09, r0x02
001fec   f002
001fee   cfe4     movff   0xfe4, 0x9       	MOVFF	PREINC1, r0x09
001ff0   f009
001ff2   cfe4     movff   0xfe4, 0x8       	MOVFF	PREINC1, r0x08
001ff4   f008
001ff6   cfe4     movff   0xfe4, 0x7       	MOVFF	PREINC1, r0x07
001ff8   f007
001ffa   6ae5     clrf    0xe5, 0          	CLRF	POSTDEC1
001ffc   5002     movf    0x2, 0, 0        	MOVF	r0x02, W
001ffe   6ee5     movwf   0xe5, 0          	MOVWF	POSTDEC1
002000   5001     movf    0x1, 0, 0        	MOVF	r0x01, W
002002   6ee5     movwf   0xe5, 0          	MOVWF	POSTDEC1
002004   5000     movf    0, 0, 0          	MOVF	r0x00, W
002006   6ee5     movwf   0xe5, 0          	MOVWF	POSTDEC1
002008   0e00     movlw   0                	MOVLW	UPPER(__str_1)
00200a   6ee5     movwf   0xe5, 0          	MOVWF	POSTDEC1
00200c   0e27     movlw   0x27             	MOVLW	HIGH(__str_1)
00200e   6ee5     movwf   0xe5, 0          	MOVWF	POSTDEC1
002010   0eaa     movlw   0xaa             	MOVLW	LOW(__str_1)
002012   6ee5     movwf   0xe5, 0          	MOVWF	POSTDEC1
002014   ec80     call    0x4300, 0        	CALL	_CDCprintf
002016   f021
002018   0e07     movlw   0x7              	MOVLW	0x07
00201a   26e1     addwf   0xe1, 0x1, 0     	ADDWF	FSR1L, F
                                           ;	.line	124; /dvpt/pinguino/git/pinguino-ide/pinguino/p8/pinguino/libraries/__cdc.c	break;
00201c   d115     bra     0x2248           	BRA	_01439_DS_
                                           _01432_DS_:
                                           ;	.line	126; /dvpt/pinguino/git/pinguino-ide/pinguino/p8/pinguino/libraries/__cdc.c	CDCprintf("%d", (u32)fmt);
00201e   c007     movff   0x7, 0xfe5       	MOVFF	r0x07, POSTDEC1
002020   ffe5
002022   c008     movff   0x8, 0xfe5       	MOVFF	r0x08, POSTDEC1
002024   ffe5
002026   c009     movff   0x9, 0xfe5       	MOVFF	r0x09, POSTDEC1
002028   ffe5
00202a   0e02     movlw   0x2              	MOVLW	0x02
00202c   cfdb     movff   0xfdb, 0x7       	MOVFF	PLUSW2, r0x07
00202e   f007
002030   0e03     movlw   0x3              	MOVLW	0x03
002032   cfdb     movff   0xfdb, 0x8       	MOVFF	PLUSW2, r0x08
002034   f008
002036   0e04     movlw   0x4              	MOVLW	0x04
002038   cfdb     movff   0xfdb, 0x9       	MOVFF	PLUSW2, r0x09
00203a   f009
00203c   c007     movff   0x7, 0           	MOVFF	r0x07, r0x00
00203e   f000
002040   c008     movff   0x8, 0x1         	MOVFF	r0x08, r0x01
002042   f001
002044   c009     movff   0x9, 0x2         	MOVFF	r0x09, r0x02
002046   f002
002048   cfe4     movff   0xfe4, 0x9       	MOVFF	PREINC1, r0x09
00204a   f009
00204c   cfe4     movff   0xfe4, 0x8       	MOVFF	PREINC1, r0x08
00204e   f008
002050   cfe4     movff   0xfe4, 0x7       	MOVFF	PREINC1, r0x07
002052   f007
002054   6ae5     clrf    0xe5, 0          	CLRF	POSTDEC1
002056   5002     movf    0x2, 0, 0        	MOVF	r0x02, W
002058   6ee5     movwf   0xe5, 0          	MOVWF	POSTDEC1
00205a   5001     movf    0x1, 0, 0        	MOVF	r0x01, W
00205c   6ee5     movwf   0xe5, 0          	MOVWF	POSTDEC1
00205e   5000     movf    0, 0, 0          	MOVF	r0x00, W
002060   6ee5     movwf   0xe5, 0          	MOVWF	POSTDEC1
002062   0e00     movlw   0                	MOVLW	UPPER(__str_2)
002064   6ee5     movwf   0xe5, 0          	MOVWF	POSTDEC1
002066   0e27     movlw   0x27             	MOVLW	HIGH(__str_2)
002068   6ee5     movwf   0xe5, 0          	MOVWF	POSTDEC1
00206a   0eae     movlw   0xae             	MOVLW	LOW(__str_2)
00206c   6ee5     movwf   0xe5, 0          	MOVWF	POSTDEC1
00206e   ec80     call    0x4300, 0        	CALL	_CDCprintf
002070   f021
002072   0e07     movlw   0x7              	MOVLW	0x07
002074   26e1     addwf   0xe1, 0x1, 0     	ADDWF	FSR1L, F
                                           ;	.line	127; /dvpt/pinguino/git/pinguino-ide/pinguino/p8/pinguino/libraries/__cdc.c	break;
002076   d0e8     bra     0x2248           	BRA	_01439_DS_
                                           _01433_DS_:
                                           ;	.line	129; /dvpt/pinguino/git/pinguino-ide/pinguino/p8/pinguino/libraries/__cdc.c	CDCprintf("%x", (u32)fmt);
002078   c007     movff   0x7, 0xfe5       	MOVFF	r0x07, POSTDEC1
00207a   ffe5
00207c   c008     movff   0x8, 0xfe5       	MOVFF	r0x08, POSTDEC1
00207e   ffe5
002080   c009     movff   0x9, 0xfe5       	MOVFF	r0x09, POSTDEC1
002082   ffe5
002084   0e02     movlw   0x2              	MOVLW	0x02
002086   cfdb     movff   0xfdb, 0x7       	MOVFF	PLUSW2, r0x07
002088   f007
00208a   0e03     movlw   0x3              	MOVLW	0x03
00208c   cfdb     movff   0xfdb, 0x8       	MOVFF	PLUSW2, r0x08
00208e   f008
002090   0e04     movlw   0x4              	MOVLW	0x04
002092   cfdb     movff   0xfdb, 0x9       	MOVFF	PLUSW2, r0x09
002094   f009
002096   c007     movff   0x7, 0           	MOVFF	r0x07, r0x00
002098   f000
00209a   c008     movff   0x8, 0x1         	MOVFF	r0x08, r0x01
00209c   f001
00209e   c009     movff   0x9, 0x2         	MOVFF	r0x09, r0x02
0020a0   f002
0020a2   cfe4     movff   0xfe4, 0x9       	MOVFF	PREINC1, r0x09
0020a4   f009
0020a6   cfe4     movff   0xfe4, 0x8       	MOVFF	PREINC1, r0x08
0020a8   f008
0020aa   cfe4     movff   0xfe4, 0x7       	MOVFF	PREINC1, r0x07
0020ac   f007
0020ae   6ae5     clrf    0xe5, 0          	CLRF	POSTDEC1
0020b0   5002     movf    0x2, 0, 0        	MOVF	r0x02, W
0020b2   6ee5     movwf   0xe5, 0          	MOVWF	POSTDEC1
0020b4   5001     movf    0x1, 0, 0        	MOVF	r0x01, W
0020b6   6ee5     movwf   0xe5, 0          	MOVWF	POSTDEC1
0020b8   5000     movf    0, 0, 0          	MOVF	r0x00, W
0020ba   6ee5     movwf   0xe5, 0          	MOVWF	POSTDEC1
0020bc   0e00     movlw   0                	MOVLW	UPPER(__str_3)
0020be   6ee5     movwf   0xe5, 0          	MOVWF	POSTDEC1
0020c0   0e27     movlw   0x27             	MOVLW	HIGH(__str_3)
0020c2   6ee5     movwf   0xe5, 0          	MOVWF	POSTDEC1
0020c4   0eb2     movlw   0xb2             	MOVLW	LOW(__str_3)
0020c6   6ee5     movwf   0xe5, 0          	MOVWF	POSTDEC1
0020c8   ec80     call    0x4300, 0        	CALL	_CDCprintf
0020ca   f021
0020cc   0e07     movlw   0x7              	MOVLW	0x07
0020ce   26e1     addwf   0xe1, 0x1, 0     	ADDWF	FSR1L, F
                                           ;	.line	130; /dvpt/pinguino/git/pinguino-ide/pinguino/p8/pinguino/libraries/__cdc.c	break;
0020d0   d0bb     bra     0x2248           	BRA	_01439_DS_
                                           _01434_DS_:
                                           ;	.line	133; /dvpt/pinguino/git/pinguino-ide/pinguino/p8/pinguino/libraries/__cdc.c	CDCprintf("%d", (u32)fmt);
0020d2   c007     movff   0x7, 0xfe5       	MOVFF	r0x07, POSTDEC1
0020d4   ffe5
0020d6   c008     movff   0x8, 0xfe5       	MOVFF	r0x08, POSTDEC1
0020d8   ffe5
0020da   c009     movff   0x9, 0xfe5       	MOVFF	r0x09, POSTDEC1
0020dc   ffe5
0020de   0e02     movlw   0x2              	MOVLW	0x02
0020e0   cfdb     movff   0xfdb, 0x7       	MOVFF	PLUSW2, r0x07
0020e2   f007
0020e4   0e03     movlw   0x3              	MOVLW	0x03
0020e6   cfdb     movff   0xfdb, 0x8       	MOVFF	PLUSW2, r0x08
0020e8   f008
0020ea   0e04     movlw   0x4              	MOVLW	0x04
0020ec   cfdb     movff   0xfdb, 0x9       	MOVFF	PLUSW2, r0x09
0020ee   f009
0020f0   c007     movff   0x7, 0           	MOVFF	r0x07, r0x00
0020f2   f000
0020f4   c008     movff   0x8, 0x1         	MOVFF	r0x08, r0x01
0020f6   f001
0020f8   c009     movff   0x9, 0x2         	MOVFF	r0x09, r0x02
0020fa   f002
0020fc   cfe4     movff   0xfe4, 0x9       	MOVFF	PREINC1, r0x09
0020fe   f009
002100   cfe4     movff   0xfe4, 0x8       	MOVFF	PREINC1, r0x08
002102   f008
002104   cfe4     movff   0xfe4, 0x7       	MOVFF	PREINC1, r0x07
002106   f007
002108   6ae5     clrf    0xe5, 0          	CLRF	POSTDEC1
00210a   5002     movf    0x2, 0, 0        	MOVF	r0x02, W
00210c   6ee5     movwf   0xe5, 0          	MOVWF	POSTDEC1
00210e   5001     movf    0x1, 0, 0        	MOVF	r0x01, W
002110   6ee5     movwf   0xe5, 0          	MOVWF	POSTDEC1
002112   5000     movf    0, 0, 0          	MOVF	r0x00, W
002114   6ee5     movwf   0xe5, 0          	MOVWF	POSTDEC1
002116   0e00     movlw   0                	MOVLW	UPPER(__str_2)
002118   6ee5     movwf   0xe5, 0          	MOVWF	POSTDEC1
00211a   0e27     movlw   0x27             	MOVLW	HIGH(__str_2)
00211c   6ee5     movwf   0xe5, 0          	MOVWF	POSTDEC1
00211e   0eae     movlw   0xae             	MOVLW	LOW(__str_2)
002120   6ee5     movwf   0xe5, 0          	MOVWF	POSTDEC1
002122   ec80     call    0x4300, 0        	CALL	_CDCprintf
002124   f021
002126   0e07     movlw   0x7              	MOVLW	0x07
002128   26e1     addwf   0xe1, 0x1, 0     	ADDWF	FSR1L, F
                                           ;	.line	134; /dvpt/pinguino/git/pinguino-ide/pinguino/p8/pinguino/libraries/__cdc.c	break;
00212a   d08e     bra     0x2248           	BRA	_01439_DS_
                                           _01435_DS_:
                                           ;	.line	136; /dvpt/pinguino/git/pinguino-ide/pinguino/p8/pinguino/libraries/__cdc.c	CDCprintf("%o", (u32)fmt);
00212c   c007     movff   0x7, 0xfe5       	MOVFF	r0x07, POSTDEC1
00212e   ffe5
002130   c008     movff   0x8, 0xfe5       	MOVFF	r0x08, POSTDEC1
002132   ffe5
002134   c009     movff   0x9, 0xfe5       	MOVFF	r0x09, POSTDEC1
002136   ffe5
002138   0e02     movlw   0x2              	MOVLW	0x02
00213a   cfdb     movff   0xfdb, 0x7       	MOVFF	PLUSW2, r0x07
00213c   f007
00213e   0e03     movlw   0x3              	MOVLW	0x03
002140   cfdb     movff   0xfdb, 0x8       	MOVFF	PLUSW2, r0x08
002142   f008
002144   0e04     movlw   0x4              	MOVLW	0x04
002146   cfdb     movff   0xfdb, 0x9       	MOVFF	PLUSW2, r0x09
002148   f009
00214a   c007     movff   0x7, 0           	MOVFF	r0x07, r0x00
00214c   f000
00214e   c008     movff   0x8, 0x1         	MOVFF	r0x08, r0x01
002150   f001
002152   c009     movff   0x9, 0x2         	MOVFF	r0x09, r0x02
002154   f002
002156   cfe4     movff   0xfe4, 0x9       	MOVFF	PREINC1, r0x09
002158   f009
00215a   cfe4     movff   0xfe4, 0x8       	MOVFF	PREINC1, r0x08
00215c   f008
00215e   cfe4     movff   0xfe4, 0x7       	MOVFF	PREINC1, r0x07
002160   f007
002162   6ae5     clrf    0xe5, 0          	CLRF	POSTDEC1
002164   5002     movf    0x2, 0, 0        	MOVF	r0x02, W
002166   6ee5     movwf   0xe5, 0          	MOVWF	POSTDEC1
002168   5001     movf    0x1, 0, 0        	MOVF	r0x01, W
00216a   6ee5     movwf   0xe5, 0          	MOVWF	POSTDEC1
00216c   5000     movf    0, 0, 0          	MOVF	r0x00, W
00216e   6ee5     movwf   0xe5, 0          	MOVWF	POSTDEC1
002170   0e00     movlw   0                	MOVLW	UPPER(__str_4)
002172   6ee5     movwf   0xe5, 0          	MOVWF	POSTDEC1
002174   0e27     movlw   0x27             	MOVLW	HIGH(__str_4)
002176   6ee5     movwf   0xe5, 0          	MOVWF	POSTDEC1
002178   0eb6     movlw   0xb6             	MOVLW	LOW(__str_4)
00217a   6ee5     movwf   0xe5, 0          	MOVWF	POSTDEC1
00217c   ec80     call    0x4300, 0        	CALL	_CDCprintf
00217e   f021
002180   0e07     movlw   0x7              	MOVLW	0x07
002182   26e1     addwf   0xe1, 0x1, 0     	ADDWF	FSR1L, F
                                           ;	.line	137; /dvpt/pinguino/git/pinguino-ide/pinguino/p8/pinguino/libraries/__cdc.c	break;
002184   d061     bra     0x2248           	BRA	_01439_DS_
                                           _01436_DS_:
                                           ;	.line	139; /dvpt/pinguino/git/pinguino-ide/pinguino/p8/pinguino/libraries/__cdc.c	CDCprintf("%b", (u32)fmt);
002186   c007     movff   0x7, 0xfe5       	MOVFF	r0x07, POSTDEC1
002188   ffe5
00218a   c008     movff   0x8, 0xfe5       	MOVFF	r0x08, POSTDEC1
00218c   ffe5
00218e   c009     movff   0x9, 0xfe5       	MOVFF	r0x09, POSTDEC1
002190   ffe5
002192   0e02     movlw   0x2              	MOVLW	0x02
002194   cfdb     movff   0xfdb, 0x7       	MOVFF	PLUSW2, r0x07
002196   f007
002198   0e03     movlw   0x3              	MOVLW	0x03
00219a   cfdb     movff   0xfdb, 0x8       	MOVFF	PLUSW2, r0x08
00219c   f008
00219e   0e04     movlw   0x4              	MOVLW	0x04
0021a0   cfdb     movff   0xfdb, 0x9       	MOVFF	PLUSW2, r0x09
0021a2   f009
0021a4   c007     movff   0x7, 0           	MOVFF	r0x07, r0x00
0021a6   f000
0021a8   c008     movff   0x8, 0x1         	MOVFF	r0x08, r0x01
0021aa   f001
0021ac   c009     movff   0x9, 0x2         	MOVFF	r0x09, r0x02
0021ae   f002
0021b0   cfe4     movff   0xfe4, 0x9       	MOVFF	PREINC1, r0x09
0021b2   f009
0021b4   cfe4     movff   0xfe4, 0x8       	MOVFF	PREINC1, r0x08
0021b6   f008
0021b8   cfe4     movff   0xfe4, 0x7       	MOVFF	PREINC1, r0x07
0021ba   f007
0021bc   6ae5     clrf    0xe5, 0          	CLRF	POSTDEC1
0021be   5002     movf    0x2, 0, 0        	MOVF	r0x02, W
0021c0   6ee5     movwf   0xe5, 0          	MOVWF	POSTDEC1
0021c2   5001     movf    0x1, 0, 0        	MOVF	r0x01, W
0021c4   6ee5     movwf   0xe5, 0          	MOVWF	POSTDEC1
0021c6   5000     movf    0, 0, 0          	MOVF	r0x00, W
0021c8   6ee5     movwf   0xe5, 0          	MOVWF	POSTDEC1
0021ca   0e00     movlw   0                	MOVLW	UPPER(__str_5)
0021cc   6ee5     movwf   0xe5, 0          	MOVWF	POSTDEC1
0021ce   0e27     movlw   0x27             	MOVLW	HIGH(__str_5)
0021d0   6ee5     movwf   0xe5, 0          	MOVWF	POSTDEC1
0021d2   0eba     movlw   0xba             	MOVLW	LOW(__str_5)
0021d4   6ee5     movwf   0xe5, 0          	MOVWF	POSTDEC1
0021d6   ec80     call    0x4300, 0        	CALL	_CDCprintf
0021d8   f021
0021da   0e07     movlw   0x7              	MOVLW	0x07
0021dc   26e1     addwf   0xe1, 0x1, 0     	ADDWF	FSR1L, F
                                           ;	.line	140; /dvpt/pinguino/git/pinguino-ide/pinguino/p8/pinguino/libraries/__cdc.c	break;           
0021de   d034     bra     0x2248           	BRA	_01439_DS_
                                           _01437_DS_:
                                           ;	.line	142; /dvpt/pinguino/git/pinguino-ide/pinguino/p8/pinguino/libraries/__cdc.c	CDCprintf(fmt);
0021e0   c007     movff   0x7, 0xfe5       	MOVFF	r0x07, POSTDEC1
0021e2   ffe5
0021e4   c008     movff   0x8, 0xfe5       	MOVFF	r0x08, POSTDEC1
0021e6   ffe5
0021e8   c009     movff   0x9, 0xfe5       	MOVFF	r0x09, POSTDEC1
0021ea   ffe5
0021ec   0e02     movlw   0x2              	MOVLW	0x02
0021ee   cfdb     movff   0xfdb, 0x7       	MOVFF	PLUSW2, r0x07
0021f0   f007
0021f2   0e03     movlw   0x3              	MOVLW	0x03
0021f4   cfdb     movff   0xfdb, 0x8       	MOVFF	PLUSW2, r0x08
0021f6   f008
0021f8   0e04     movlw   0x4              	MOVLW	0x04
0021fa   cfdb     movff   0xfdb, 0x9       	MOVFF	PLUSW2, r0x09
0021fc   f009
0021fe   cfe4     movff   0xfe4, 0x9       	MOVFF	PREINC1, r0x09
002200   f009
002202   cfe4     movff   0xfe4, 0x8       	MOVFF	PREINC1, r0x08
002204   f008
002206   cfe4     movff   0xfe4, 0x7       	MOVFF	PREINC1, r0x07
002208   f007
00220a   c007     movff   0x7, 0xfe5       	MOVFF	r0x07, POSTDEC1
00220c   ffe5
00220e   c008     movff   0x8, 0xfe5       	MOVFF	r0x08, POSTDEC1
002210   ffe5
002212   c009     movff   0x9, 0xfe5       	MOVFF	r0x09, POSTDEC1
002214   ffe5
002216   0e02     movlw   0x2              	MOVLW	0x02
002218   cfdb     movff   0xfdb, 0x7       	MOVFF	PLUSW2, r0x07
00221a   f007
00221c   0e03     movlw   0x3              	MOVLW	0x03
00221e   cfdb     movff   0xfdb, 0x8       	MOVFF	PLUSW2, r0x08
002220   f008
002222   0e04     movlw   0x4              	MOVLW	0x04
002224   cfdb     movff   0xfdb, 0x9       	MOVFF	PLUSW2, r0x09
002226   f009
002228   5009     movf    0x9, 0, 0        	MOVF	r0x09, W
00222a   6ee5     movwf   0xe5, 0          	MOVWF	POSTDEC1
00222c   5008     movf    0x8, 0, 0        	MOVF	r0x08, W
00222e   6ee5     movwf   0xe5, 0          	MOVWF	POSTDEC1
002230   5007     movf    0x7, 0, 0        	MOVF	r0x07, W
002232   6ee5     movwf   0xe5, 0          	MOVWF	POSTDEC1
002234   cfe4     movff   0xfe4, 0x9       	MOVFF	PREINC1, r0x09
002236   f009
002238   cfe4     movff   0xfe4, 0x8       	MOVFF	PREINC1, r0x08
00223a   f008
00223c   cfe4     movff   0xfe4, 0x7       	MOVFF	PREINC1, r0x07
00223e   f007
002240   ec80     call    0x4300, 0        	CALL	_CDCprintf
002242   f021
002244   0e03     movlw   0x3              	MOVLW	0x03
002246   26e1     addwf   0xe1, 0x1, 0     	ADDWF	FSR1L, F
                                           _01439_DS_:
                                           ;	.line	145; /dvpt/pinguino/git/pinguino-ide/pinguino/p8/pinguino/libraries/__cdc.c	va_end(args);
002248   cfe4     movff   0xfe4, 0x2       	MOVFF	PREINC1, r0x02
00224a   f002
00224c   cfe4     movff   0xfe4, 0x1       	MOVFF	PREINC1, r0x01
00224e   f001
002250   cfe4     movff   0xfe4, 0         	MOVFF	PREINC1, r0x00
002252   f000
002254   cfe4     movff   0xfe4, 0xfd9     	MOVFF	PREINC1, FSR2L
002256   ffd9
002258   0012     return  0                	RETURN	
                                           
                                           ; ; Starting pCode block
                                           S_main__CDCprintf	code
                                           _CDCprintf:
                                           ;	.line	81; /dvpt/pinguino/git/pinguino-ide/pinguino/p8/pinguino/libraries/__cdc.c	void CDCprintf(const u8 *fmt, ...)
004300   cfd9     movff   0xfd9, 0xfe5     	MOVFF	FSR2L, POSTDEC1
004302   ffe5
004304   cfe1     movff   0xfe1, 0xfd9     	MOVFF	FSR1L, FSR2L
004306   ffd9
004308   c000     movff   0, 0xfe5         	MOVFF	r0x00, POSTDEC1
00430a   ffe5
00430c   c001     movff   0x1, 0xfe5       	MOVFF	r0x01, POSTDEC1
00430e   ffe5
004310   c002     movff   0x2, 0xfe5       	MOVFF	r0x02, POSTDEC1
004312   ffe5
                                           ;	.line	88; /dvpt/pinguino/git/pinguino-ide/pinguino/p8/pinguino/libraries/__cdc.c	va_start(args, fmt);
004314   0e02     movlw   0x2              	MOVLW	0x02
004316   24d9     addwf   0xd9, 0, 0       	ADDWF	FSR2L, W
004318   6e00     movwf   0, 0             	MOVWF	r0x00
00431a   0e00     movlw   0                	MOVLW	0x00
00431c   20da     addwfc  0xda, 0, 0       	ADDWFC	FSR2H, W
                                           ; #	MOVWF	r0x01
                                           ; #	MOVF	r0x01, W
                                           ; #	MOVWF	r0x01
                                           ; #	MOVWF	r0x01
00431e   6e01     movwf   0x1, 0           	MOVWF	r0x01
                                           ; #	MOVF	r0x00, W
                                           ; #	MOVWF	r0x00
004320   0e80     movlw   0x80             	MOVLW	0x80
004322   6e02     movwf   0x2, 0           	MOVWF	r0x02
004324   0e03     movlw   0x3              	MOVLW	0x03
004326   2600     addwf   0, 0x1, 0        	ADDWF	r0x00, F
004328   0e00     movlw   0                	MOVLW	0x00
00432a   2201     addwfc  0x1, 0x1, 0      	ADDWFC	r0x01, F
00432c   2202     addwfc  0x2, 0x1, 0      	ADDWFC	r0x02, F
                                           ;	.line	89; /dvpt/pinguino/git/pinguino-ide/pinguino/p8/pinguino/libraries/__cdc.c	length = psprintf2(_cdc_buffer, fmt, args);
00432e   5002     movf    0x2, 0, 0        	MOVF	r0x02, W
004330   6ee5     movwf   0xe5, 0          	MOVWF	POSTDEC1
004332   5001     movf    0x1, 0, 0        	MOVF	r0x01, W
004334   6ee5     movwf   0xe5, 0          	MOVWF	POSTDEC1
004336   5000     movf    0, 0, 0          	MOVF	r0x00, W
004338   6ee5     movwf   0xe5, 0          	MOVWF	POSTDEC1
00433a   0e04     movlw   0x4              	MOVLW	0x04
00433c   cfdb     movff   0xfdb, 0xfe5     	MOVFF	PLUSW2, POSTDEC1
00433e   ffe5
004340   0e03     movlw   0x3              	MOVLW	0x03
004342   cfdb     movff   0xfdb, 0xfe5     	MOVFF	PLUSW2, POSTDEC1
004344   ffe5
004346   0e02     movlw   0x2              	MOVLW	0x02
004348   cfdb     movff   0xfdb, 0xfe5     	MOVFF	PLUSW2, POSTDEC1
00434a   ffe5
00434c   0e80     movlw   0x80             	MOVLW	0x80
00434e   6ee5     movwf   0xe5, 0          	MOVWF	POSTDEC1
004350   0e00     movlw   0                	MOVLW	HIGH(__cdc_buffer)
004352   6ee5     movwf   0xe5, 0          	MOVWF	POSTDEC1
004354   0eb0     movlw   0xb0             	MOVLW	LOW(__cdc_buffer)
004356   6ee5     movwf   0xe5, 0          	MOVWF	POSTDEC1
004358   ec05     call    0x400a, 0        	CALL	_psprintf2
00435a   f020
00435c   6e00     movwf   0, 0             	MOVWF	r0x00
00435e   0e09     movlw   0x9              	MOVLW	0x09
004360   26e1     addwf   0xe1, 0x1, 0     	ADDWF	FSR1L, F
                                           ;	.line	90; /dvpt/pinguino/git/pinguino-ide/pinguino/p8/pinguino/libraries/__cdc.c	CDCputs(_cdc_buffer,length);
004362   5000     movf    0, 0, 0          	MOVF	r0x00, W
004364   6ee5     movwf   0xe5, 0          	MOVWF	POSTDEC1
004366   0e80     movlw   0x80             	MOVLW	0x80
004368   6ee5     movwf   0xe5, 0          	MOVWF	POSTDEC1
00436a   0e00     movlw   0                	MOVLW	HIGH(__cdc_buffer)
00436c   6ee5     movwf   0xe5, 0          	MOVWF	POSTDEC1
00436e   0eb0     movlw   0xb0             	MOVLW	LOW(__cdc_buffer)
004370   6ee5     movwf   0xe5, 0          	MOVWF	POSTDEC1
004372   ecd9     call    0x35b2, 0        	CALL	_CDCputs
004374   f01a
004376   0e04     movlw   0x4              	MOVLW	0x04
004378   26e1     addwf   0xe1, 0x1, 0     	ADDWF	FSR1L, F
                                           ;	.line	91; /dvpt/pinguino/git/pinguino-ide/pinguino/p8/pinguino/libraries/__cdc.c	va_end(args);
00437a   cfe4     movff   0xfe4, 0x2       	MOVFF	PREINC1, r0x02
00437c   f002
00437e   cfe4     movff   0xfe4, 0x1       	MOVFF	PREINC1, r0x01
004380   f001
004382   cfe4     movff   0xfe4, 0         	MOVFF	PREINC1, r0x00
004384   f000
004386   cfe4     movff   0xfe4, 0xfd9     	MOVFF	PREINC1, FSR2L
004388   ffd9
00438a   0012     return  0                	RETURN	
                                           
                                           ; ; Starting pCode block
                                           S_main__CDCwrite	code
                                           _CDCwrite:
                                           ;	.line	75; /dvpt/pinguino/git/pinguino-ide/pinguino/p8/pinguino/libraries/__cdc.c	void CDCwrite(u8 c)
004ba8   cfd9     movff   0xfd9, 0xfe5     	MOVFF	FSR2L, POSTDEC1
004baa   ffe5
004bac   cfe1     movff   0xfe1, 0xfd9     	MOVFF	FSR1L, FSR2L
004bae   ffd9
004bb0   0e02     movlw   0x2              	MOVLW	0x02
004bb2   cfdb     movff   0xfdb, 0x197     	MOVFF	PLUSW2, _CDCwrite_c_1_203
004bb4   f197
                                           ;	.line	77; /dvpt/pinguino/git/pinguino-ide/pinguino/p8/pinguino/libraries/__cdc.c	CDCputs(&c, 1);
004bb6   0e01     movlw   0x1              	MOVLW	0x01
004bb8   6ee5     movwf   0xe5, 0          	MOVWF	POSTDEC1
004bba   0e80     movlw   0x80             	MOVLW	0x80
004bbc   6ee5     movwf   0xe5, 0          	MOVWF	POSTDEC1
004bbe   0e01     movlw   0x1              	MOVLW	HIGH(_CDCwrite_c_1_203)
004bc0   6ee5     movwf   0xe5, 0          	MOVWF	POSTDEC1
004bc2   0e97     movlw   0x97             	MOVLW	LOW(_CDCwrite_c_1_203)
004bc4   6ee5     movwf   0xe5, 0          	MOVWF	POSTDEC1
004bc6   ecd9     call    0x35b2, 0        	CALL	_CDCputs
004bc8   f01a
004bca   0e04     movlw   0x4              	MOVLW	0x04
004bcc   26e1     addwf   0xe1, 0x1, 0     	ADDWF	FSR1L, F
004bce   cfe4     movff   0xfe4, 0xfd9     	MOVFF	PREINC1, FSR2L
004bd0   ffd9
004bd2   0012     return  0                	RETURN	
                                           
                                           ; ; Starting pCode block
                                           S_main__CDC_init	code
                                           _CDC_init:
                                           ;	.line	30; /dvpt/pinguino/git/pinguino-ide/pinguino/p8/pinguino/libraries/__cdc.c	INTCONbits.GIEH = 0;
00438c   9ef2     bcf     0xf2, 0x7, 0     	BCF	_INTCONbits, 7
                                           ;	.line	31; /dvpt/pinguino/git/pinguino-ide/pinguino/p8/pinguino/libraries/__cdc.c	INTCONbits.GIEL = 0;
00438e   9cf2     bcf     0xf2, 0x6, 0     	BCF	_INTCONbits, 6
                                           ;	.line	34; /dvpt/pinguino/git/pinguino-ide/pinguino/p8/pinguino/libraries/__cdc.c	UCON=0;
004390   6a65     clrf    0x65, 0          	CLRF	_UCON
004392   010f     movlb   0xf              	BANKSEL	_UCFG
                                           ;	.line	35; /dvpt/pinguino/git/pinguino-ide/pinguino/p8/pinguino/libraries/__cdc.c	UCFG=0;
004394   6b39     clrf    0x39, 0x1        	CLRF	_UCFG, B
004396   010f     movlb   0xf              	BANKSEL	_UEP0
                                           ;	.line	37; /dvpt/pinguino/git/pinguino-ide/pinguino/p8/pinguino/libraries/__cdc.c	UEP0=0;UEP1=0;UEP2=0;UEP3=0;UEP4=0;UEP5=0;
004398   6b26     clrf    0x26, 0x1        	CLRF	_UEP0, B
00439a   010f     movlb   0xf              	BANKSEL	_UEP1
00439c   6b27     clrf    0x27, 0x1        	CLRF	_UEP1, B
00439e   010f     movlb   0xf              	BANKSEL	_UEP2
0043a0   6b28     clrf    0x28, 0x1        	CLRF	_UEP2, B
0043a2   010f     movlb   0xf              	BANKSEL	_UEP3
0043a4   6b29     clrf    0x29, 0x1        	CLRF	_UEP3, B
0043a6   010f     movlb   0xf              	BANKSEL	_UEP4
0043a8   6b2a     clrf    0x2a, 0x1        	CLRF	_UEP4, B
0043aa   010f     movlb   0xf              	BANKSEL	_UEP5
0043ac   6b2b     clrf    0x2b, 0x1        	CLRF	_UEP5, B
0043ae   010f     movlb   0xf              	BANKSEL	_UEP6
                                           ;	.line	38; /dvpt/pinguino/git/pinguino-ide/pinguino/p8/pinguino/libraries/__cdc.c	UEP6=0;UEP7=0;UEP8=0;UEP9=0;UEP10=0;UEP11=0;
0043b0   6b2c     clrf    0x2c, 0x1        	CLRF	_UEP6, B
0043b2   010f     movlb   0xf              	BANKSEL	_UEP7
0043b4   6b2d     clrf    0x2d, 0x1        	CLRF	_UEP7, B
0043b6   010f     movlb   0xf              	BANKSEL	_UEP8
0043b8   6b2e     clrf    0x2e, 0x1        	CLRF	_UEP8, B
0043ba   010f     movlb   0xf              	BANKSEL	_UEP9
0043bc   6b2f     clrf    0x2f, 0x1        	CLRF	_UEP9, B
0043be   010f     movlb   0xf              	BANKSEL	_UEP10
0043c0   6b30     clrf    0x30, 0x1        	CLRF	_UEP10, B
0043c2   010f     movlb   0xf              	BANKSEL	_UEP11
0043c4   6b31     clrf    0x31, 0x1        	CLRF	_UEP11, B
0043c6   010f     movlb   0xf              	BANKSEL	_UEP12
                                           ;	.line	39; /dvpt/pinguino/git/pinguino-ide/pinguino/p8/pinguino/libraries/__cdc.c	UEP12=0;UEP13=0;UEP14=0;UEP15=0;
0043c8   6b32     clrf    0x32, 0x1        	CLRF	_UEP12, B
0043ca   010f     movlb   0xf              	BANKSEL	_UEP13
0043cc   6b33     clrf    0x33, 0x1        	CLRF	_UEP13, B
0043ce   010f     movlb   0xf              	BANKSEL	_UEP14
0043d0   6b34     clrf    0x34, 0x1        	CLRF	_UEP14, B
0043d2   010f     movlb   0xf              	BANKSEL	_UEP15
0043d4   6b35     clrf    0x35, 0x1        	CLRF	_UEP15, B
                                           ;	.line	42; /dvpt/pinguino/git/pinguino-ide/pinguino/p8/pinguino/libraries/__cdc.c	Delayms(2000);
0043d6   0e07     movlw   0x7              	MOVLW	0x07
0043d8   6ee5     movwf   0xe5, 0          	MOVWF	POSTDEC1
0043da   0ed0     movlw   0xd0             	MOVLW	0xd0
0043dc   6ee5     movwf   0xe5, 0          	MOVWF	POSTDEC1
0043de   ece3     call    0x47c6, 0        	CALL	_Delayms
0043e0   f023
0043e2   52e6     movf    0xe6, 0x1, 0     	MOVF	POSTINC1, F
0043e4   52e6     movf    0xe6, 0x1, 0     	MOVF	POSTINC1, F
                                           ;	.line	45; /dvpt/pinguino/git/pinguino-ide/pinguino/p8/pinguino/libraries/__cdc.c	UCFG = 0x14; 				// Enable pullup resistors; full speed mode
0043e6   0e14     movlw   0x14             	MOVLW	0x14
0043e8   010f     movlb   0xf              	BANKSEL	_UCFG
0043ea   6f39     movwf   0x39, 0x1        	MOVWF	_UCFG, B
0043ec   0101     movlb   0x1              	BANKSEL	_deviceState
                                           ;	.line	46; /dvpt/pinguino/git/pinguino-ide/pinguino/p8/pinguino/libraries/__cdc.c	deviceState = DETACHED;
0043ee   6b94     clrf    0x94, 0x1        	CLRF	_deviceState, B
0043f0   0101     movlb   0x1              	BANKSEL	_remoteWakeup
                                           ;	.line	47; /dvpt/pinguino/git/pinguino-ide/pinguino/p8/pinguino/libraries/__cdc.c	remoteWakeup = 0x00;
0043f2   6b93     clrf    0x93, 0x1        	CLRF	_remoteWakeup, B
0043f4   0101     movlb   0x1              	BANKSEL	_currentConfiguration
                                           ;	.line	48; /dvpt/pinguino/git/pinguino-ide/pinguino/p8/pinguino/libraries/__cdc.c	currentConfiguration = 0x00;
0043f6   6b95     clrf    0x95, 0x1        	CLRF	_currentConfiguration, B
                                           _01404_DS_:
0043f8   0101     movlb   0x1              	BANKSEL	_deviceState
                                           ;	.line	51; /dvpt/pinguino/git/pinguino-ide/pinguino/p8/pinguino/libraries/__cdc.c	while(deviceState != CONFIGURED)
0043fa   5194     movf    0x94, 0, 0x1     	MOVF	_deviceState, W, B
0043fc   0a05     xorlw   0x5              	XORLW	0x05
0043fe   e005     bz      0x440a           	BZ	_01406_DS_
                                           ;	.line	53; /dvpt/pinguino/git/pinguino-ide/pinguino/p8/pinguino/libraries/__cdc.c	EnableUSBModule();
004400   ec33     call    0x4a66, 0        	CALL	_EnableUSBModule
004402   f025
                                           ;	.line	54; /dvpt/pinguino/git/pinguino-ide/pinguino/p8/pinguino/libraries/__cdc.c	ProcessUSBTransactions();
004404   ec8e     call    0x451c, 0        	CALL	_ProcessUSBTransactions
004406   f022
004408   d7f7     bra     0x43f8           	BRA	_01404_DS_
                                           _01406_DS_:
                                           ;	.line	63; /dvpt/pinguino/git/pinguino-ide/pinguino/p8/pinguino/libraries/__cdc.c	PIR2bits.USBIF = 0;     // clear usb interrupt flag
00440a   98a1     bcf     0xa1, 0x4, 0     	BCF	_PIR2bits, 4
                                           ;	.line	64; /dvpt/pinguino/git/pinguino-ide/pinguino/p8/pinguino/libraries/__cdc.c	PIE2bits.USBIE = 1;     // enable usb interrupt
00440c   88a0     bsf     0xa0, 0x4, 0     	BSF	_PIE2bits, 4
                                           ;	.line	65; /dvpt/pinguino/git/pinguino-ide/pinguino/p8/pinguino/libraries/__cdc.c	IPR2bits.USBIP = 1;     // high priority interrupt
00440e   88a2     bsf     0xa2, 0x4, 0     	BSF	_IPR2bits, 4
                                           ;	.line	68; /dvpt/pinguino/git/pinguino-ide/pinguino/p8/pinguino/libraries/__cdc.c	INTCONbits.GIEH = 1;   // Enable global HP interrupts
004410   8ef2     bsf     0xf2, 0x7, 0     	BSF	_INTCONbits, 7
                                           ;	.line	69; /dvpt/pinguino/git/pinguino-ide/pinguino/p8/pinguino/libraries/__cdc.c	INTCONbits.GIEL = 1;   // Enable global LP interrupts
004412   8cf2     bsf     0xf2, 0x6, 0     	BSF	_INTCONbits, 6
004414   0012     return  0                	RETURN	
                                           
                                           ; ; Starting pCode block
                                           S_main__psprintf	code
                                           _psprintf:
                                           ;	.line	474; /dvpt/pinguino/git/pinguino-ide/pinguino/p8/pinguino/core/stdio.c	u8 psprintf(u8 *out, const u8 *format, ...)
0041e0   cfd9     movff   0xfd9, 0xfe5     	MOVFF	FSR2L, POSTDEC1
0041e2   ffe5
0041e4   cfe1     movff   0xfe1, 0xfd9     	MOVFF	FSR1L, FSR2L
0041e6   ffd9
0041e8   c000     movff   0, 0xfe5         	MOVFF	r0x00, POSTDEC1
0041ea   ffe5
0041ec   c001     movff   0x1, 0xfe5       	MOVFF	r0x01, POSTDEC1
0041ee   ffe5
0041f0   c002     movff   0x2, 0xfe5       	MOVFF	r0x02, POSTDEC1
0041f2   ffe5
0041f4   c003     movff   0x3, 0xfe5       	MOVFF	r0x03, POSTDEC1
0041f6   ffe5
0041f8   c004     movff   0x4, 0xfe5       	MOVFF	r0x04, POSTDEC1
0041fa   ffe5
                                           ;	.line	478; /dvpt/pinguino/git/pinguino-ide/pinguino/p8/pinguino/core/stdio.c	va_start(args, format);
0041fc   0e05     movlw   0x5              	MOVLW	0x05
0041fe   24d9     addwf   0xd9, 0, 0       	ADDWF	FSR2L, W
004200   6e00     movwf   0, 0             	MOVWF	r0x00
004202   0e00     movlw   0                	MOVLW	0x00
004204   20da     addwfc  0xda, 0, 0       	ADDWFC	FSR2H, W
                                           ; #	MOVWF	r0x01
                                           ; #	MOVF	r0x01, W
                                           ; #	MOVWF	r0x01
                                           ; #	MOVWF	r0x01
004206   6e01     movwf   0x1, 0           	MOVWF	r0x01
                                           ; #	MOVF	r0x00, W
                                           ; #	MOVWF	r0x00
004208   0e80     movlw   0x80             	MOVLW	0x80
00420a   6e02     movwf   0x2, 0           	MOVWF	r0x02
00420c   0e03     movlw   0x3              	MOVLW	0x03
00420e   2600     addwf   0, 0x1, 0        	ADDWF	r0x00, F
004210   0e00     movlw   0                	MOVLW	0x00
004212   2201     addwfc  0x1, 0x1, 0      	ADDWFC	r0x01, F
004214   2202     addwfc  0x2, 0x1, 0      	ADDWFC	r0x02, F
                                           ;	.line	479; /dvpt/pinguino/git/pinguino-ide/pinguino/p8/pinguino/core/stdio.c	return pprint(&out, format, args);
004216   0e02     movlw   0x2              	MOVLW	0x02
004218   24d9     addwf   0xd9, 0, 0       	ADDWF	FSR2L, W
00421a   6e03     movwf   0x3, 0           	MOVWF	r0x03
00421c   0e00     movlw   0                	MOVLW	0x00
00421e   20da     addwfc  0xda, 0, 0       	ADDWFC	FSR2H, W
                                           ; #	MOVWF	r0x04
                                           ; #	MOVF	r0x04, W
                                           ; #	MOVWF	r0x04
                                           ; #	MOVWF	r0x04
004220   6e04     movwf   0x4, 0           	MOVWF	r0x04
                                           ; #	MOVF	r0x03, W
                                           ; #	MOVWF	r0x03
004222   5002     movf    0x2, 0, 0        	MOVF	r0x02, W
004224   6ee5     movwf   0xe5, 0          	MOVWF	POSTDEC1
004226   5001     movf    0x1, 0, 0        	MOVF	r0x01, W
004228   6ee5     movwf   0xe5, 0          	MOVWF	POSTDEC1
00422a   5000     movf    0, 0, 0          	MOVF	r0x00, W
00422c   6ee5     movwf   0xe5, 0          	MOVWF	POSTDEC1
00422e   0e07     movlw   0x7              	MOVLW	0x07
004230   cfdb     movff   0xfdb, 0xfe5     	MOVFF	PLUSW2, POSTDEC1
004232   ffe5
004234   0e06     movlw   0x6              	MOVLW	0x06
004236   cfdb     movff   0xfdb, 0xfe5     	MOVFF	PLUSW2, POSTDEC1
004238   ffe5
00423a   0e05     movlw   0x5              	MOVLW	0x05
00423c   cfdb     movff   0xfdb, 0xfe5     	MOVFF	PLUSW2, POSTDEC1
00423e   ffe5
004240   0e80     movlw   0x80             	MOVLW	0x80
004242   6ee5     movwf   0xe5, 0          	MOVWF	POSTDEC1
004244   5004     movf    0x4, 0, 0        	MOVF	r0x04, W
004246   6ee5     movwf   0xe5, 0          	MOVWF	POSTDEC1
004248   5003     movf    0x3, 0, 0        	MOVF	r0x03, W
00424a   6ee5     movwf   0xe5, 0          	MOVWF	POSTDEC1
00424c   ec0e     call    0xc1c, 0         	CALL	_pprint
00424e   f006
004250   6e00     movwf   0, 0             	MOVWF	r0x00
004252   0e09     movlw   0x9              	MOVLW	0x09
004254   26e1     addwf   0xe1, 0x1, 0     	ADDWF	FSR1L, F
004256   5000     movf    0, 0, 0          	MOVF	r0x00, W
004258   cfe4     movff   0xfe4, 0x4       	MOVFF	PREINC1, r0x04
00425a   f004
00425c   cfe4     movff   0xfe4, 0x3       	MOVFF	PREINC1, r0x03
00425e   f003
004260   cfe4     movff   0xfe4, 0x2       	MOVFF	PREINC1, r0x02
004262   f002
004264   cfe4     movff   0xfe4, 0x1       	MOVFF	PREINC1, r0x01
004266   f001
004268   cfe4     movff   0xfe4, 0         	MOVFF	PREINC1, r0x00
00426a   f000
00426c   cfe4     movff   0xfe4, 0xfd9     	MOVFF	PREINC1, FSR2L
00426e   ffd9
004270   0012     return  0                	RETURN	
                                           
                                           ; ; Starting pCode block
                                           S_main__psprintf2	code
                                           _psprintf2:
                                           ;	.line	468; /dvpt/pinguino/git/pinguino-ide/pinguino/p8/pinguino/core/stdio.c	u8 psprintf2(u8 *out, const u8 *format, va_list args)
00400a   cfd9     movff   0xfd9, 0xfe5     	MOVFF	FSR2L, POSTDEC1
00400c   ffe5
00400e   cfe1     movff   0xfe1, 0xfd9     	MOVFF	FSR1L, FSR2L
004010   ffd9
004012   c000     movff   0, 0xfe5         	MOVFF	r0x00, POSTDEC1
004014   ffe5
004016   c001     movff   0x1, 0xfe5       	MOVFF	r0x01, POSTDEC1
004018   ffe5
00401a   c002     movff   0x2, 0xfe5       	MOVFF	r0x02, POSTDEC1
00401c   ffe5
00401e   c003     movff   0x3, 0xfe5       	MOVFF	r0x03, POSTDEC1
004020   ffe5
004022   c004     movff   0x4, 0xfe5       	MOVFF	r0x04, POSTDEC1
004024   ffe5
004026   c005     movff   0x5, 0xfe5       	MOVFF	r0x05, POSTDEC1
004028   ffe5
00402a   0e02     movlw   0x2              	MOVLW	0x02
00402c   cfdb     movff   0xfdb, 0x185     	MOVFF	PLUSW2, _psprintf2_out_1_196
00402e   f185
004030   0e03     movlw   0x3              	MOVLW	0x03
004032   cfdb     movff   0xfdb, 0x186     	MOVFF	PLUSW2, (_psprintf2_out_1_196 + 1)
004034   f186
004036   0e04     movlw   0x4              	MOVLW	0x04
004038   cfdb     movff   0xfdb, 0x187     	MOVFF	PLUSW2, (_psprintf2_out_1_196 + 2)
00403a   f187
00403c   0e05     movlw   0x5              	MOVLW	0x05
00403e   cfdb     movff   0xfdb, 0         	MOVFF	PLUSW2, r0x00
004040   f000
004042   0e06     movlw   0x6              	MOVLW	0x06
004044   cfdb     movff   0xfdb, 0x1       	MOVFF	PLUSW2, r0x01
004046   f001
004048   0e07     movlw   0x7              	MOVLW	0x07
00404a   cfdb     movff   0xfdb, 0x2       	MOVFF	PLUSW2, r0x02
00404c   f002
00404e   0e08     movlw   0x8              	MOVLW	0x08
004050   cfdb     movff   0xfdb, 0x3       	MOVFF	PLUSW2, r0x03
004052   f003
004054   0e09     movlw   0x9              	MOVLW	0x09
004056   cfdb     movff   0xfdb, 0x4       	MOVFF	PLUSW2, r0x04
004058   f004
00405a   0e0a     movlw   0xa              	MOVLW	0x0a
00405c   cfdb     movff   0xfdb, 0x5       	MOVFF	PLUSW2, r0x05
00405e   f005
                                           ;	.line	470; /dvpt/pinguino/git/pinguino-ide/pinguino/p8/pinguino/core/stdio.c	return pprint(&out, format, args);
004060   5005     movf    0x5, 0, 0        	MOVF	r0x05, W
004062   6ee5     movwf   0xe5, 0          	MOVWF	POSTDEC1
004064   5004     movf    0x4, 0, 0        	MOVF	r0x04, W
004066   6ee5     movwf   0xe5, 0          	MOVWF	POSTDEC1
004068   5003     movf    0x3, 0, 0        	MOVF	r0x03, W
00406a   6ee5     movwf   0xe5, 0          	MOVWF	POSTDEC1
00406c   5002     movf    0x2, 0, 0        	MOVF	r0x02, W
00406e   6ee5     movwf   0xe5, 0          	MOVWF	POSTDEC1
004070   5001     movf    0x1, 0, 0        	MOVF	r0x01, W
004072   6ee5     movwf   0xe5, 0          	MOVWF	POSTDEC1
004074   5000     movf    0, 0, 0          	MOVF	r0x00, W
004076   6ee5     movwf   0xe5, 0          	MOVWF	POSTDEC1
004078   0e80     movlw   0x80             	MOVLW	0x80
00407a   6ee5     movwf   0xe5, 0          	MOVWF	POSTDEC1
00407c   0e01     movlw   0x1              	MOVLW	HIGH(_psprintf2_out_1_196)
00407e   6ee5     movwf   0xe5, 0          	MOVWF	POSTDEC1
004080   0e85     movlw   0x85             	MOVLW	LOW(_psprintf2_out_1_196)
004082   6ee5     movwf   0xe5, 0          	MOVWF	POSTDEC1
004084   ec0e     call    0xc1c, 0         	CALL	_pprint
004086   f006
004088   6e00     movwf   0, 0             	MOVWF	r0x00
00408a   0e09     movlw   0x9              	MOVLW	0x09
00408c   26e1     addwf   0xe1, 0x1, 0     	ADDWF	FSR1L, F
00408e   5000     movf    0, 0, 0          	MOVF	r0x00, W
004090   cfe4     movff   0xfe4, 0x5       	MOVFF	PREINC1, r0x05
004092   f005
004094   cfe4     movff   0xfe4, 0x4       	MOVFF	PREINC1, r0x04
004096   f004
004098   cfe4     movff   0xfe4, 0x3       	MOVFF	PREINC1, r0x03
00409a   f003
00409c   cfe4     movff   0xfe4, 0x2       	MOVFF	PREINC1, r0x02
00409e   f002
0040a0   cfe4     movff   0xfe4, 0x1       	MOVFF	PREINC1, r0x01
0040a2   f001
0040a4   cfe4     movff   0xfe4, 0         	MOVFF	PREINC1, r0x00
0040a6   f000
0040a8   cfe4     movff   0xfe4, 0xfd9     	MOVFF	PREINC1, FSR2L
0040aa   ffd9
0040ac   0012     return  0                	RETURN	
                                           
                                           ; ; Starting pCode block
                                           S_main__pprintf	code
                                           _pprintf:
                                           ;	.line	454; /dvpt/pinguino/git/pinguino-ide/pinguino/p8/pinguino/core/stdio.c	u8 pprintf(funcout func, const u8 *format, va_list args)
0040ae   cfd9     movff   0xfd9, 0xfe5     	MOVFF	FSR2L, POSTDEC1
0040b0   ffe5
0040b2   cfe1     movff   0xfe1, 0xfd9     	MOVFF	FSR1L, FSR2L
0040b4   ffd9
0040b6   c000     movff   0, 0xfe5         	MOVFF	r0x00, POSTDEC1
0040b8   ffe5
0040ba   c001     movff   0x1, 0xfe5       	MOVFF	r0x01, POSTDEC1
0040bc   ffe5
0040be   c002     movff   0x2, 0xfe5       	MOVFF	r0x02, POSTDEC1
0040c0   ffe5
0040c2   c003     movff   0x3, 0xfe5       	MOVFF	r0x03, POSTDEC1
0040c4   ffe5
0040c6   c004     movff   0x4, 0xfe5       	MOVFF	r0x04, POSTDEC1
0040c8   ffe5
0040ca   c005     movff   0x5, 0xfe5       	MOVFF	r0x05, POSTDEC1
0040cc   ffe5
0040ce   0e02     movlw   0x2              	MOVLW	0x02
0040d0   cfdb     movff   0xfdb, 0x17c     	MOVFF	PLUSW2, _pputchar
0040d2   f17c
0040d4   0e03     movlw   0x3              	MOVLW	0x03
0040d6   cfdb     movff   0xfdb, 0x17d     	MOVFF	PLUSW2, (_pputchar + 1)
0040d8   f17d
0040da   0e04     movlw   0x4              	MOVLW	0x04
0040dc   cfdb     movff   0xfdb, 0x17e     	MOVFF	PLUSW2, (_pputchar + 2)
0040de   f17e
0040e0   0e05     movlw   0x5              	MOVLW	0x05
0040e2   cfdb     movff   0xfdb, 0         	MOVFF	PLUSW2, r0x00
0040e4   f000
0040e6   0e06     movlw   0x6              	MOVLW	0x06
0040e8   cfdb     movff   0xfdb, 0x1       	MOVFF	PLUSW2, r0x01
0040ea   f001
0040ec   0e07     movlw   0x7              	MOVLW	0x07
0040ee   cfdb     movff   0xfdb, 0x2       	MOVFF	PLUSW2, r0x02
0040f0   f002
0040f2   0e08     movlw   0x8              	MOVLW	0x08
0040f4   cfdb     movff   0xfdb, 0x3       	MOVFF	PLUSW2, r0x03
0040f6   f003
0040f8   0e09     movlw   0x9              	MOVLW	0x09
0040fa   cfdb     movff   0xfdb, 0x4       	MOVFF	PLUSW2, r0x04
0040fc   f004
0040fe   0e0a     movlw   0xa              	MOVLW	0x0a
004100   cfdb     movff   0xfdb, 0x5       	MOVFF	PLUSW2, r0x05
004102   f005
                                           ;	.line	460; /dvpt/pinguino/git/pinguino-ide/pinguino/p8/pinguino/core/stdio.c	return pprint(0, format, args);
004104   5005     movf    0x5, 0, 0        	MOVF	r0x05, W
004106   6ee5     movwf   0xe5, 0          	MOVWF	POSTDEC1
004108   5004     movf    0x4, 0, 0        	MOVF	r0x04, W
00410a   6ee5     movwf   0xe5, 0          	MOVWF	POSTDEC1
00410c   5003     movf    0x3, 0, 0        	MOVF	r0x03, W
00410e   6ee5     movwf   0xe5, 0          	MOVWF	POSTDEC1
004110   5002     movf    0x2, 0, 0        	MOVF	r0x02, W
004112   6ee5     movwf   0xe5, 0          	MOVWF	POSTDEC1
004114   5001     movf    0x1, 0, 0        	MOVF	r0x01, W
004116   6ee5     movwf   0xe5, 0          	MOVWF	POSTDEC1
004118   5000     movf    0, 0, 0          	MOVF	r0x00, W
00411a   6ee5     movwf   0xe5, 0          	MOVWF	POSTDEC1
00411c   0e00     movlw   0                	MOVLW	0x00
00411e   6ae5     clrf    0xe5, 0          	CLRF	POSTDEC1
004120   6ae5     clrf    0xe5, 0          	CLRF	POSTDEC1
004122   6ae5     clrf    0xe5, 0          	CLRF	POSTDEC1
004124   ec0e     call    0xc1c, 0         	CALL	_pprint
004126   f006
004128   6e00     movwf   0, 0             	MOVWF	r0x00
00412a   0e09     movlw   0x9              	MOVLW	0x09
00412c   26e1     addwf   0xe1, 0x1, 0     	ADDWF	FSR1L, F
00412e   5000     movf    0, 0, 0          	MOVF	r0x00, W
004130   cfe4     movff   0xfe4, 0x5       	MOVFF	PREINC1, r0x05
004132   f005
004134   cfe4     movff   0xfe4, 0x4       	MOVFF	PREINC1, r0x04
004136   f004
004138   cfe4     movff   0xfe4, 0x3       	MOVFF	PREINC1, r0x03
00413a   f003
00413c   cfe4     movff   0xfe4, 0x2       	MOVFF	PREINC1, r0x02
00413e   f002
004140   cfe4     movff   0xfe4, 0x1       	MOVFF	PREINC1, r0x01
004142   f001
004144   cfe4     movff   0xfe4, 0         	MOVFF	PREINC1, r0x00
004146   f000
004148   cfe4     movff   0xfe4, 0xfd9     	MOVFF	PREINC1, FSR2L
00414a   ffd9
00414c   0012     return  0                	RETURN	
                                           
                                           ; ; Starting pCode block
                                           S_main__pprint	code
                                           _pprint:
                                           ;	.line	306; /dvpt/pinguino/git/pinguino-ide/pinguino/p8/pinguino/core/stdio.c	static u8 pprint(u8 **out, const u8 *format, va_list args)
000c1c   cfd9     movff   0xfd9, 0xfe5     	MOVFF	FSR2L, POSTDEC1
000c1e   ffe5
000c20   cfe1     movff   0xfe1, 0xfd9     	MOVFF	FSR1L, FSR2L
000c22   ffd9
000c24   c000     movff   0, 0xfe5         	MOVFF	r0x00, POSTDEC1
000c26   ffe5
000c28   c001     movff   0x1, 0xfe5       	MOVFF	r0x01, POSTDEC1
000c2a   ffe5
000c2c   c002     movff   0x2, 0xfe5       	MOVFF	r0x02, POSTDEC1
000c2e   ffe5
000c30   c003     movff   0x3, 0xfe5       	MOVFF	r0x03, POSTDEC1
000c32   ffe5
000c34   c004     movff   0x4, 0xfe5       	MOVFF	r0x04, POSTDEC1
000c36   ffe5
000c38   c005     movff   0x5, 0xfe5       	MOVFF	r0x05, POSTDEC1
000c3a   ffe5
000c3c   c006     movff   0x6, 0xfe5       	MOVFF	r0x06, POSTDEC1
000c3e   ffe5
000c40   c007     movff   0x7, 0xfe5       	MOVFF	r0x07, POSTDEC1
000c42   ffe5
000c44   c008     movff   0x8, 0xfe5       	MOVFF	r0x08, POSTDEC1
000c46   ffe5
000c48   c009     movff   0x9, 0xfe5       	MOVFF	r0x09, POSTDEC1
000c4a   ffe5
000c4c   c00a     movff   0xa, 0xfe5       	MOVFF	r0x0a, POSTDEC1
000c4e   ffe5
000c50   c00b     movff   0xb, 0xfe5       	MOVFF	r0x0b, POSTDEC1
000c52   ffe5
000c54   c00c     movff   0xc, 0xfe5       	MOVFF	r0x0c, POSTDEC1
000c56   ffe5
000c58   c00d     movff   0xd, 0xfe5       	MOVFF	r0x0d, POSTDEC1
000c5a   ffe5
000c5c   c00e     movff   0xe, 0xfe5       	MOVFF	r0x0e, POSTDEC1
000c5e   ffe5
000c60   c00f     movff   0xf, 0xfe5       	MOVFF	r0x0f, POSTDEC1
000c62   ffe5
000c64   c010     movff   0x10, 0xfe5      	MOVFF	r0x10, POSTDEC1
000c66   ffe5
000c68   c011     movff   0x11, 0xfe5      	MOVFF	r0x11, POSTDEC1
000c6a   ffe5
000c6c   c012     movff   0x12, 0xfe5      	MOVFF	r0x12, POSTDEC1
000c6e   ffe5
000c70   c013     movff   0x13, 0xfe5      	MOVFF	r0x13, POSTDEC1
000c72   ffe5
000c74   c014     movff   0x14, 0xfe5      	MOVFF	r0x14, POSTDEC1
000c76   ffe5
000c78   c015     movff   0x15, 0xfe5      	MOVFF	r0x15, POSTDEC1
000c7a   ffe5
000c7c   c016     movff   0x16, 0xfe5      	MOVFF	r0x16, POSTDEC1
000c7e   ffe5
000c80   c017     movff   0x17, 0xfe5      	MOVFF	r0x17, POSTDEC1
000c82   ffe5
000c84   c018     movff   0x18, 0xfe5      	MOVFF	r0x18, POSTDEC1
000c86   ffe5
000c88   c019     movff   0x19, 0xfe5      	MOVFF	r0x19, POSTDEC1
000c8a   ffe5
000c8c   0e02     movlw   0x2              	MOVLW	0x02
000c8e   cfdb     movff   0xfdb, 0         	MOVFF	PLUSW2, r0x00
000c90   f000
000c92   0e03     movlw   0x3              	MOVLW	0x03
000c94   cfdb     movff   0xfdb, 0x1       	MOVFF	PLUSW2, r0x01
000c96   f001
000c98   0e04     movlw   0x4              	MOVLW	0x04
000c9a   cfdb     movff   0xfdb, 0x2       	MOVFF	PLUSW2, r0x02
000c9c   f002
000c9e   0e05     movlw   0x5              	MOVLW	0x05
000ca0   cfdb     movff   0xfdb, 0x3       	MOVFF	PLUSW2, r0x03
000ca2   f003
000ca4   0e06     movlw   0x6              	MOVLW	0x06
000ca6   cfdb     movff   0xfdb, 0x4       	MOVFF	PLUSW2, r0x04
000ca8   f004
000caa   0e07     movlw   0x7              	MOVLW	0x07
000cac   cfdb     movff   0xfdb, 0x5       	MOVFF	PLUSW2, r0x05
000cae   f005
000cb0   0e08     movlw   0x8              	MOVLW	0x08
000cb2   cfdb     movff   0xfdb, 0x6       	MOVFF	PLUSW2, r0x06
000cb4   f006
000cb6   0e09     movlw   0x9              	MOVLW	0x09
000cb8   cfdb     movff   0xfdb, 0x7       	MOVFF	PLUSW2, r0x07
000cba   f007
000cbc   0e0a     movlw   0xa              	MOVLW	0x0a
000cbe   cfdb     movff   0xfdb, 0x8       	MOVFF	PLUSW2, r0x08
000cc0   f008
                                           ;	.line	310; /dvpt/pinguino/git/pinguino-ide/pinguino/p8/pinguino/core/stdio.c	register u8 pc = 0;
000cc2   6a09     clrf    0x9, 0           	CLRF	r0x09
                                           ;	.line	311; /dvpt/pinguino/git/pinguino-ide/pinguino/p8/pinguino/core/stdio.c	u8 precision = 2; // default value is 2 digits fractional part
000cc4   0e02     movlw   0x2              	MOVLW	0x02
000cc6   6e0a     movwf   0xa, 0           	MOVWF	r0x0a
                                           _01216_DS_:
                                           ;	.line	315; /dvpt/pinguino/git/pinguino-ide/pinguino/p8/pinguino/core/stdio.c	for (; *format != 0; ++format)
000cc8   c003     movff   0x3, 0xfe9       	MOVFF	r0x03, FSR0L
000cca   ffe9
000ccc   c004     movff   0x4, 0xff3       	MOVFF	r0x04, PRODL
000cce   fff3
000cd0   5005     movf    0x5, 0, 0        	MOVF	r0x05, W
000cd2   ec4b     call    0x4c96, 0        	CALL	__gptrget1
000cd4   f026
000cd6   6e0b     movwf   0xb, 0           	MOVWF	r0x0b
000cd8   500b     movf    0xb, 0, 0        	MOVF	r0x0b, W
000cda   e102     bnz     0xce0            	BNZ	_01336_DS_
000cdc   efd4     goto    0x15a8           	GOTO	_01204_DS_
000cde   f00a
                                           _01336_DS_:
                                           ;	.line	318; /dvpt/pinguino/git/pinguino-ide/pinguino/p8/pinguino/core/stdio.c	islong = 0;                 // default is 16-bit
000ce0   6a0c     clrf    0xc, 0           	CLRF	r0x0c
                                           ;	.line	320; /dvpt/pinguino/git/pinguino-ide/pinguino/p8/pinguino/core/stdio.c	if (*format == '%')
000ce2   500b     movf    0xb, 0, 0        	MOVF	r0x0b, W
000ce4   0a25     xorlw   0x25             	XORLW	0x25
000ce6   e002     bz      0xcec            	BZ	_01338_DS_
000ce8   efbb     goto    0x1576           	GOTO	_01199_DS_
000cea   f00a
                                           _01338_DS_:
                                           ;	.line	322; /dvpt/pinguino/git/pinguino-ide/pinguino/p8/pinguino/core/stdio.c	width = pad = 0;		// default is left justify, no zero padded
000cec   6a0b     clrf    0xb, 0           	CLRF	r0x0b
000cee   6a0d     clrf    0xd, 0           	CLRF	r0x0d
                                           ;	.line	323; /dvpt/pinguino/git/pinguino-ide/pinguino/p8/pinguino/core/stdio.c	++format;				// get the next format identifier
000cf0   2a03     incf    0x3, 0x1, 0      	INCF	r0x03, F
000cf2   e302     bnc     0xcf8            	BNC	_01339_DS_
000cf4   4a04     infsnz  0x4, 0x1, 0      	INFSNZ	r0x04, F
000cf6   2a05     incf    0x5, 0x1, 0      	INCF	r0x05, F
                                           _01339_DS_:
                                           ;	.line	325; /dvpt/pinguino/git/pinguino-ide/pinguino/p8/pinguino/core/stdio.c	if (*format == '\0')	// end of line
000cf8   c003     movff   0x3, 0xfe9       	MOVFF	r0x03, FSR0L
000cfa   ffe9
000cfc   c004     movff   0x4, 0xff3       	MOVFF	r0x04, PRODL
000cfe   fff3
000d00   5005     movf    0x5, 0, 0        	MOVF	r0x05, W
000d02   ec4b     call    0x4c96, 0        	CALL	__gptrget1
000d04   f026
000d06   6e0e     movwf   0xe, 0           	MOVWF	r0x0e
000d08   500e     movf    0xe, 0, 0        	MOVF	r0x0e, W
000d0a   b4d8     btfsc   0xd8, 0x2, 0     	BTFSC	STATUS, 2
000d0c   efd4     goto    0x15a8           	GOTO	_01204_DS_
000d0e   f00a
                                           ;	.line	328; /dvpt/pinguino/git/pinguino-ide/pinguino/p8/pinguino/core/stdio.c	if (*format == '%')		// error
000d10   500e     movf    0xe, 0, 0        	MOVF	r0x0e, W
000d12   0a25     xorlw   0x25             	XORLW	0x25
000d14   e102     bnz     0xd1a            	BNZ	_01341_DS_
000d16   efbb     goto    0x1576           	GOTO	_01199_DS_
000d18   f00a
                                           _01341_DS_:
                                           ;	.line	331; /dvpt/pinguino/git/pinguino-ide/pinguino/p8/pinguino/core/stdio.c	if (*format == '-')		// right justify
000d1a   500e     movf    0xe, 0, 0        	MOVF	r0x0e, W
000d1c   0a2d     xorlw   0x2d             	XORLW	0x2d
000d1e   e106     bnz     0xd2c            	BNZ	_01239_DS_
                                           ;	.line	333; /dvpt/pinguino/git/pinguino-ide/pinguino/p8/pinguino/core/stdio.c	++format;
000d20   2a03     incf    0x3, 0x1, 0      	INCF	r0x03, F
000d22   e302     bnc     0xd28            	BNC	_01344_DS_
000d24   4a04     infsnz  0x4, 0x1, 0      	INFSNZ	r0x04, F
000d26   2a05     incf    0x5, 0x1, 0      	INCF	r0x05, F
                                           _01344_DS_:
                                           ;	.line	334; /dvpt/pinguino/git/pinguino-ide/pinguino/p8/pinguino/core/stdio.c	pad = PAD_RIGHT;
000d28   0e01     movlw   0x1              	MOVLW	0x01
000d2a   6e0b     movwf   0xb, 0           	MOVWF	r0x0b
                                           _01239_DS_:
                                           ;	.line	337; /dvpt/pinguino/git/pinguino-ide/pinguino/p8/pinguino/core/stdio.c	while (*format == '0')	// field is padded with 0's instead of blanks
000d2c   c003     movff   0x3, 0xe         	MOVFF	r0x03, r0x0e
000d2e   f00e
000d30   c004     movff   0x4, 0xf         	MOVFF	r0x04, r0x0f
000d32   f00f
000d34   c005     movff   0x5, 0x10        	MOVFF	r0x05, r0x10
000d36   f010
                                           _01169_DS_:
000d38   c00e     movff   0xe, 0xfe9       	MOVFF	r0x0e, FSR0L
000d3a   ffe9
000d3c   c00f     movff   0xf, 0xff3       	MOVFF	r0x0f, PRODL
000d3e   fff3
000d40   5010     movf    0x10, 0, 0       	MOVF	r0x10, W
000d42   ec4b     call    0x4c96, 0        	CALL	__gptrget1
000d44   f026
                                           ; #	MOVWF	r0x11
                                           ; #	MOVF	r0x11, W
000d46   0a30     xorlw   0x30             	XORLW	0x30
000d48   e106     bnz     0xd56            	BNZ	_01209_DS_
                                           ;	.line	339; /dvpt/pinguino/git/pinguino-ide/pinguino/p8/pinguino/core/stdio.c	++format;
000d4a   2a0e     incf    0xe, 0x1, 0      	INCF	r0x0e, F
000d4c   e302     bnc     0xd52            	BNC	_01347_DS_
000d4e   4a0f     infsnz  0xf, 0x1, 0      	INFSNZ	r0x0f, F
000d50   2a10     incf    0x10, 0x1, 0     	INCF	r0x10, F
                                           _01347_DS_:
                                           ;	.line	340; /dvpt/pinguino/git/pinguino-ide/pinguino/p8/pinguino/core/stdio.c	pad |= PAD_ZERO;
000d52   820b     bsf     0xb, 0x1, 0      	BSF	r0x0b, 1
000d54   d7f1     bra     0xd38            	BRA	_01169_DS_
                                           _01209_DS_:
                                           ;	.line	343; /dvpt/pinguino/git/pinguino-ide/pinguino/p8/pinguino/core/stdio.c	for ( ; *format >= '0' && *format <= '9'; ++format)
000d56   c00e     movff   0xe, 0xfe9       	MOVFF	r0x0e, FSR0L
000d58   ffe9
000d5a   c00f     movff   0xf, 0xff3       	MOVFF	r0x0f, PRODL
000d5c   fff3
000d5e   5010     movf    0x10, 0, 0       	MOVF	r0x10, W
000d60   ec4b     call    0x4c96, 0        	CALL	__gptrget1
000d62   f026
000d64   6e11     movwf   0x11, 0          	MOVWF	r0x11
000d66   0e30     movlw   0x30             	MOVLW	0x30
000d68   5c11     subwf   0x11, 0, 0       	SUBWF	r0x11, W
000d6a   e313     bnc     0xd92            	BNC	_01267_DS_
000d6c   0e3a     movlw   0x3a             	MOVLW	0x3a
000d6e   5c11     subwf   0x11, 0, 0       	SUBWF	r0x11, W
000d70   e210     bc      0xd92            	BC	_01267_DS_
                                           ; ;multiply lit val:0x0a by variable r0x0d and store in r0x0d
                                           ;	.line	345; /dvpt/pinguino/git/pinguino-ide/pinguino/p8/pinguino/core/stdio.c	width *= 10;
000d72   500d     movf    0xd, 0, 0        	MOVF	r0x0d, W
000d74   0d0a     mullw   0xa              	MULLW	0x0a
000d76   cff3     movff   0xff3, 0xd       	MOVFF	PRODL, r0x0d
000d78   f00d
                                           ;	.line	346; /dvpt/pinguino/git/pinguino-ide/pinguino/p8/pinguino/core/stdio.c	width += *format - '0';
000d7a   0ed0     movlw   0xd0             	MOVLW	0xd0
000d7c   2611     addwf   0x11, 0x1, 0     	ADDWF	r0x11, F
000d7e   500d     movf    0xd, 0, 0        	MOVF	r0x0d, W
000d80   6e12     movwf   0x12, 0          	MOVWF	r0x12
000d82   5011     movf    0x11, 0, 0       	MOVF	r0x11, W
000d84   2412     addwf   0x12, 0, 0       	ADDWF	r0x12, W
000d86   6e0d     movwf   0xd, 0           	MOVWF	r0x0d
                                           ;	.line	343; /dvpt/pinguino/git/pinguino-ide/pinguino/p8/pinguino/core/stdio.c	for ( ; *format >= '0' && *format <= '9'; ++format)
000d88   2a0e     incf    0xe, 0x1, 0      	INCF	r0x0e, F
000d8a   e302     bnc     0xd90            	BNC	_01351_DS_
000d8c   4a0f     infsnz  0xf, 0x1, 0      	INFSNZ	r0x0f, F
000d8e   2a10     incf    0x10, 0x1, 0     	INCF	r0x10, F
                                           _01351_DS_:
000d90   d7e2     bra     0xd56            	BRA	_01209_DS_
                                           _01267_DS_:
000d92   c00e     movff   0xe, 0x3         	MOVFF	r0x0e, r0x03
000d94   f003
000d96   c00f     movff   0xf, 0x4         	MOVFF	r0x0f, r0x04
000d98   f004
000d9a   c010     movff   0x10, 0x5        	MOVFF	r0x10, r0x05
000d9c   f005
                                           ;	.line	356; /dvpt/pinguino/git/pinguino-ide/pinguino/p8/pinguino/core/stdio.c	if (*format == '.')		// float precision
000d9e   c00e     movff   0xe, 0xfe9       	MOVFF	r0x0e, FSR0L
000da0   ffe9
000da2   c00f     movff   0xf, 0xff3       	MOVFF	r0x0f, PRODL
000da4   fff3
000da6   5010     movf    0x10, 0, 0       	MOVF	r0x10, W
000da8   ec4b     call    0x4c96, 0        	CALL	__gptrget1
000daa   f026
                                           ; #	MOVWF	r0x11
                                           ; #	MOVF	r0x11, W
000dac   0a2e     xorlw   0x2e             	XORLW	0x2e
000dae   e134     bnz     0xe18            	BNZ	_01175_DS_
                                           ;	.line	358; /dvpt/pinguino/git/pinguino-ide/pinguino/p8/pinguino/core/stdio.c	++format;
000db0   500e     movf    0xe, 0, 0        	MOVF	r0x0e, W
000db2   0f01     addlw   0x1              	ADDLW	0x01
000db4   6e03     movwf   0x3, 0           	MOVWF	r0x03
000db6   0e00     movlw   0                	MOVLW	0x00
000db8   200f     addwfc  0xf, 0, 0        	ADDWFC	r0x0f, W
000dba   6e04     movwf   0x4, 0           	MOVWF	r0x04
000dbc   0e00     movlw   0                	MOVLW	0x00
000dbe   2010     addwfc  0x10, 0, 0       	ADDWFC	r0x10, W
000dc0   6e05     movwf   0x5, 0           	MOVWF	r0x05
                                           ;	.line	359; /dvpt/pinguino/git/pinguino-ide/pinguino/p8/pinguino/core/stdio.c	precision = 0;
000dc2   6a0a     clrf    0xa, 0           	CLRF	r0x0a
000dc4   c003     movff   0x3, 0xe         	MOVFF	r0x03, r0x0e
000dc6   f00e
000dc8   c004     movff   0x4, 0xf         	MOVFF	r0x04, r0x0f
000dca   f00f
000dcc   c005     movff   0x5, 0x10        	MOVFF	r0x05, r0x10
000dce   f010
                                           _01213_DS_:
                                           ;	.line	361; /dvpt/pinguino/git/pinguino-ide/pinguino/p8/pinguino/core/stdio.c	for ( ; *format >= '0' && *format <= '9'; ++format)
000dd0   c00e     movff   0xe, 0xfe9       	MOVFF	r0x0e, FSR0L
000dd2   ffe9
000dd4   c00f     movff   0xf, 0xff3       	MOVFF	r0x0f, PRODL
000dd6   fff3
000dd8   5010     movf    0x10, 0, 0       	MOVF	r0x10, W
000dda   ec4b     call    0x4c96, 0        	CALL	__gptrget1
000ddc   f026
000dde   6e11     movwf   0x11, 0          	MOVWF	r0x11
000de0   0e30     movlw   0x30             	MOVLW	0x30
000de2   5c11     subwf   0x11, 0, 0       	SUBWF	r0x11, W
000de4   e313     bnc     0xe0c            	BNC	_01268_DS_
000de6   0e3a     movlw   0x3a             	MOVLW	0x3a
000de8   5c11     subwf   0x11, 0, 0       	SUBWF	r0x11, W
000dea   e210     bc      0xe0c            	BC	_01268_DS_
                                           ; ;multiply lit val:0x0a by variable r0x0a and store in r0x0a
                                           ;	.line	363; /dvpt/pinguino/git/pinguino-ide/pinguino/p8/pinguino/core/stdio.c	precision *= 10;
000dec   500a     movf    0xa, 0, 0        	MOVF	r0x0a, W
000dee   0d0a     mullw   0xa              	MULLW	0x0a
000df0   cff3     movff   0xff3, 0xa       	MOVFF	PRODL, r0x0a
000df2   f00a
                                           ;	.line	364; /dvpt/pinguino/git/pinguino-ide/pinguino/p8/pinguino/core/stdio.c	precision += *format - '0';
000df4   0ed0     movlw   0xd0             	MOVLW	0xd0
000df6   2611     addwf   0x11, 0x1, 0     	ADDWF	r0x11, F
000df8   500a     movf    0xa, 0, 0        	MOVF	r0x0a, W
000dfa   6e12     movwf   0x12, 0          	MOVWF	r0x12
000dfc   5011     movf    0x11, 0, 0       	MOVF	r0x11, W
000dfe   2412     addwf   0x12, 0, 0       	ADDWF	r0x12, W
000e00   6e0a     movwf   0xa, 0           	MOVWF	r0x0a
                                           ;	.line	361; /dvpt/pinguino/git/pinguino-ide/pinguino/p8/pinguino/core/stdio.c	for ( ; *format >= '0' && *format <= '9'; ++format)
000e02   2a0e     incf    0xe, 0x1, 0      	INCF	r0x0e, F
000e04   e302     bnc     0xe0a            	BNC	_01356_DS_
000e06   4a0f     infsnz  0xf, 0x1, 0      	INFSNZ	r0x0f, F
000e08   2a10     incf    0x10, 0x1, 0     	INCF	r0x10, F
                                           _01356_DS_:
000e0a   d7e2     bra     0xdd0            	BRA	_01213_DS_
                                           _01268_DS_:
000e0c   c00e     movff   0xe, 0x3         	MOVFF	r0x0e, r0x03
000e0e   f003
000e10   c00f     movff   0xf, 0x4         	MOVFF	r0x0f, r0x04
000e12   f004
000e14   c010     movff   0x10, 0x5        	MOVFF	r0x10, r0x05
000e16   f005
                                           _01175_DS_:
                                           ;	.line	368; /dvpt/pinguino/git/pinguino-ide/pinguino/p8/pinguino/core/stdio.c	if (*format == 'f') 	// float
000e18   c003     movff   0x3, 0xfe9       	MOVFF	r0x03, FSR0L
000e1a   ffe9
000e1c   c004     movff   0x4, 0xff3       	MOVFF	r0x04, PRODL
000e1e   fff3
000e20   5005     movf    0x5, 0, 0        	MOVF	r0x05, W
000e22   ec4b     call    0x4c96, 0        	CALL	__gptrget1
000e24   f026
                                           ; #	MOVWF	r0x0e
                                           ; #	MOVF	r0x0e, W
000e26   6e0e     movwf   0xe, 0           	MOVWF	r0x0e
000e28   0a66     xorlw   0x66             	XORLW	0x66
000e2a   e001     bz      0xe2e            	BZ	_01358_DS_
000e2c   d040     bra     0xeae            	BRA	_01177_DS_
                                           _01358_DS_:
                                           ;	.line	370; /dvpt/pinguino/git/pinguino-ide/pinguino/p8/pinguino/core/stdio.c	pc += pprintfl(out, va_arg(args, float), width, pad, separator, precision);
000e2e   5006     movf    0x6, 0, 0        	MOVF	r0x06, W
000e30   0f04     addlw   0x4              	ADDLW	0x04
000e32   6e0f     movwf   0xf, 0           	MOVWF	r0x0f
000e34   0e00     movlw   0                	MOVLW	0x00
000e36   2007     addwfc  0x7, 0, 0        	ADDWFC	r0x07, W
000e38   6e10     movwf   0x10, 0          	MOVWF	r0x10
000e3a   0e00     movlw   0                	MOVLW	0x00
000e3c   2008     addwfc  0x8, 0, 0        	ADDWFC	r0x08, W
000e3e   6e11     movwf   0x11, 0          	MOVWF	r0x11
000e40   c00f     movff   0xf, 0x6         	MOVFF	r0x0f, r0x06
000e42   f006
000e44   c010     movff   0x10, 0x7        	MOVFF	r0x10, r0x07
000e46   f007
000e48   c011     movff   0x11, 0x8        	MOVFF	r0x11, r0x08
000e4a   f008
000e4c   0efc     movlw   0xfc             	MOVLW	0xfc
000e4e   260f     addwf   0xf, 0x1, 0      	ADDWF	r0x0f, F
000e50   0eff     movlw   0xff             	MOVLW	0xff
000e52   2210     addwfc  0x10, 0x1, 0     	ADDWFC	r0x10, F
000e54   2211     addwfc  0x11, 0x1, 0     	ADDWFC	r0x11, F
                                           ; #	MOVF	r0x11, W
                                           ; #	MOVWF	r0x11
                                           ; #	MOVF	r0x11, W
                                           ; #	MOVF	r0x10, W
                                           ; #	MOVF	r0x10, W
                                           ; #	MOVWF	r0x10
                                           ; #	MOVF	r0x10, W
                                           ; #	MOVF	r0x0f, W
                                           ; #	MOVF	r0x0f, W
                                           ; #	MOVWF	r0x0f
000e56   c00f     movff   0xf, 0xfe9       	MOVFF	r0x0f, FSR0L
000e58   ffe9
000e5a   c010     movff   0x10, 0xff3      	MOVFF	r0x10, PRODL
000e5c   fff3
000e5e   5011     movf    0x11, 0, 0       	MOVF	r0x11, W
000e60   eca0     call    0x4940, 0        	CALL	__gptrget4
000e62   f024
000e64   6e0f     movwf   0xf, 0           	MOVWF	r0x0f
000e66   cff3     movff   0xff3, 0x10      	MOVFF	PRODL, r0x10
000e68   f010
000e6a   cff4     movff   0xff4, 0x11      	MOVFF	PRODH, r0x11
000e6c   f011
000e6e   cfe9     movff   0xfe9, 0x12      	MOVFF	FSR0L, r0x12
000e70   f012
000e72   500a     movf    0xa, 0, 0        	MOVF	r0x0a, W
000e74   6ee5     movwf   0xe5, 0          	MOVWF	POSTDEC1
000e76   6ae5     clrf    0xe5, 0          	CLRF	POSTDEC1
000e78   500b     movf    0xb, 0, 0        	MOVF	r0x0b, W
000e7a   6ee5     movwf   0xe5, 0          	MOVWF	POSTDEC1
000e7c   500d     movf    0xd, 0, 0        	MOVF	r0x0d, W
000e7e   6ee5     movwf   0xe5, 0          	MOVWF	POSTDEC1
000e80   5012     movf    0x12, 0, 0       	MOVF	r0x12, W
000e82   6ee5     movwf   0xe5, 0          	MOVWF	POSTDEC1
000e84   5011     movf    0x11, 0, 0       	MOVF	r0x11, W
000e86   6ee5     movwf   0xe5, 0          	MOVWF	POSTDEC1
000e88   5010     movf    0x10, 0, 0       	MOVF	r0x10, W
000e8a   6ee5     movwf   0xe5, 0          	MOVWF	POSTDEC1
000e8c   500f     movf    0xf, 0, 0        	MOVF	r0x0f, W
000e8e   6ee5     movwf   0xe5, 0          	MOVWF	POSTDEC1
000e90   5002     movf    0x2, 0, 0        	MOVF	r0x02, W
000e92   6ee5     movwf   0xe5, 0          	MOVWF	POSTDEC1
000e94   5001     movf    0x1, 0, 0        	MOVF	r0x01, W
000e96   6ee5     movwf   0xe5, 0          	MOVWF	POSTDEC1
000e98   5000     movf    0, 0, 0          	MOVF	r0x00, W
000e9a   6ee5     movwf   0xe5, 0          	MOVWF	POSTDEC1
000e9c   ec24     call    0x1648, 0        	CALL	_pprintfl
000e9e   f00b
000ea0   6e0f     movwf   0xf, 0           	MOVWF	r0x0f
000ea2   0e0b     movlw   0xb              	MOVLW	0x0b
000ea4   26e1     addwf   0xe1, 0x1, 0     	ADDWF	FSR1L, F
000ea6   500f     movf    0xf, 0, 0        	MOVF	r0x0f, W
000ea8   2609     addwf   0x9, 0x1, 0      	ADDWF	r0x09, F
                                           ;	.line	371; /dvpt/pinguino/git/pinguino-ide/pinguino/p8/pinguino/core/stdio.c	continue;
000eaa   efce     goto    0x159c           	GOTO	_01203_DS_
000eac   f00a
                                           _01177_DS_:
                                           ;	.line	374; /dvpt/pinguino/git/pinguino-ide/pinguino/p8/pinguino/core/stdio.c	if (*format == 's')		// string
000eae   500e     movf    0xe, 0, 0        	MOVF	r0x0e, W
000eb0   0a73     xorlw   0x73             	XORLW	0x73
000eb2   e001     bz      0xeb6            	BZ	_01360_DS_
000eb4   d045     bra     0xf40            	BRA	_01179_DS_
                                           _01360_DS_:
                                           ;	.line	376; /dvpt/pinguino/git/pinguino-ide/pinguino/p8/pinguino/core/stdio.c	u8 *s = va_arg(args, u8*);
000eb6   5006     movf    0x6, 0, 0        	MOVF	r0x06, W
000eb8   0f03     addlw   0x3              	ADDLW	0x03
000eba   6e0f     movwf   0xf, 0           	MOVWF	r0x0f
000ebc   0e00     movlw   0                	MOVLW	0x00
000ebe   2007     addwfc  0x7, 0, 0        	ADDWFC	r0x07, W
000ec0   6e10     movwf   0x10, 0          	MOVWF	r0x10
000ec2   0e00     movlw   0                	MOVLW	0x00
000ec4   2008     addwfc  0x8, 0, 0        	ADDWFC	r0x08, W
000ec6   6e11     movwf   0x11, 0          	MOVWF	r0x11
000ec8   c00f     movff   0xf, 0x6         	MOVFF	r0x0f, r0x06
000eca   f006
000ecc   c010     movff   0x10, 0x7        	MOVFF	r0x10, r0x07
000ece   f007
000ed0   c011     movff   0x11, 0x8        	MOVFF	r0x11, r0x08
000ed2   f008
000ed4   0efd     movlw   0xfd             	MOVLW	0xfd
000ed6   260f     addwf   0xf, 0x1, 0      	ADDWF	r0x0f, F
000ed8   0eff     movlw   0xff             	MOVLW	0xff
000eda   2210     addwfc  0x10, 0x1, 0     	ADDWFC	r0x10, F
000edc   2211     addwfc  0x11, 0x1, 0     	ADDWFC	r0x11, F
                                           ; #	MOVF	r0x11, W
                                           ; #	MOVWF	r0x11
                                           ; #	MOVF	r0x11, W
                                           ; #	MOVF	r0x10, W
                                           ; #	MOVF	r0x10, W
                                           ; #	MOVWF	r0x10
                                           ; #	MOVF	r0x10, W
                                           ; #	MOVF	r0x0f, W
                                           ; #	MOVF	r0x0f, W
                                           ; #	MOVWF	r0x0f
000ede   c00f     movff   0xf, 0xfe9       	MOVFF	r0x0f, FSR0L
000ee0   ffe9
000ee2   c010     movff   0x10, 0xff3      	MOVFF	r0x10, PRODL
000ee4   fff3
000ee6   5011     movf    0x11, 0, 0       	MOVF	r0x11, W
000ee8   ecfe     call    0x49fc, 0        	CALL	__gptrget3
000eea   f024
000eec   6e0f     movwf   0xf, 0           	MOVWF	r0x0f
000eee   cff3     movff   0xff3, 0x10      	MOVFF	PRODL, r0x10
000ef0   f010
000ef2   cff4     movff   0xff4, 0x11      	MOVFF	PRODH, r0x11
000ef4   f011
                                           ;	.line	377; /dvpt/pinguino/git/pinguino-ide/pinguino/p8/pinguino/core/stdio.c	pc += pprints(out, s?s:"(null)", width, pad);
000ef6   1010     iorwf   0x10, 0, 0       	IORWF	r0x10, W
                                           ; #	IORWF	r0x11, W
                                           ; #	BTFSC	STATUS, 2
                                           ; #	GOTO	_01219_DS_
                                           ; #	GOTO	_01220_DS_
                                           ; #	MOVLW	UPPER(__str_0)
000ef8   1011     iorwf   0x11, 0, 0       	IORWF	r0x11, W
000efa   e106     bnz     0xf08            	BNZ	_01220_DS_
000efc   0e00     movlw   0                	MOVLW	UPPER(__str_0)
000efe   6e11     movwf   0x11, 0          	MOVWF	r0x11
000f00   0e27     movlw   0x27             	MOVLW	HIGH(__str_0)
000f02   6e10     movwf   0x10, 0          	MOVWF	r0x10
000f04   0ea2     movlw   0xa2             	MOVLW	LOW(__str_0)
000f06   6e0f     movwf   0xf, 0           	MOVWF	r0x0f
                                           _01220_DS_:
000f08   500b     movf    0xb, 0, 0        	MOVF	r0x0b, W
000f0a   6ee5     movwf   0xe5, 0          	MOVWF	POSTDEC1
000f0c   500d     movf    0xd, 0, 0        	MOVF	r0x0d, W
000f0e   6ee5     movwf   0xe5, 0          	MOVWF	POSTDEC1
000f10   5011     movf    0x11, 0, 0       	MOVF	r0x11, W
000f12   6ee5     movwf   0xe5, 0          	MOVWF	POSTDEC1
000f14   5010     movf    0x10, 0, 0       	MOVF	r0x10, W
000f16   6ee5     movwf   0xe5, 0          	MOVWF	POSTDEC1
000f18   500f     movf    0xf, 0, 0        	MOVF	r0x0f, W
000f1a   6ee5     movwf   0xe5, 0          	MOVWF	POSTDEC1
000f1c   5002     movf    0x2, 0, 0        	MOVF	r0x02, W
000f1e   6ee5     movwf   0xe5, 0          	MOVWF	POSTDEC1
000f20   5001     movf    0x1, 0, 0        	MOVF	r0x01, W
000f22   6ee5     movwf   0xe5, 0          	MOVWF	POSTDEC1
000f24   5000     movf    0, 0, 0          	MOVF	r0x00, W
000f26   6ee5     movwf   0xe5, 0          	MOVWF	POSTDEC1
000f28   ec4a     call    0x2c94, 0        	CALL	_pprints
000f2a   f016
000f2c   6e0f     movwf   0xf, 0           	MOVWF	r0x0f
000f2e   0e08     movlw   0x8              	MOVLW	0x08
000f30   26e1     addwf   0xe1, 0x1, 0     	ADDWF	FSR1L, F
000f32   5009     movf    0x9, 0, 0        	MOVF	r0x09, W
000f34   6e10     movwf   0x10, 0          	MOVWF	r0x10
000f36   500f     movf    0xf, 0, 0        	MOVF	r0x0f, W
000f38   2410     addwf   0x10, 0, 0       	ADDWF	r0x10, W
000f3a   6e09     movwf   0x9, 0           	MOVWF	r0x09
                                           ;	.line	378; /dvpt/pinguino/git/pinguino-ide/pinguino/p8/pinguino/core/stdio.c	continue;
000f3c   efce     goto    0x159c           	GOTO	_01203_DS_
000f3e   f00a
                                           _01179_DS_:
                                           ;	.line	381; /dvpt/pinguino/git/pinguino-ide/pinguino/p8/pinguino/core/stdio.c	if (*format == 'l')		// long support
000f40   500e     movf    0xe, 0, 0        	MOVF	r0x0e, W
000f42   0a6c     xorlw   0x6c             	XORLW	0x6c
000f44   e106     bnz     0xf52            	BNZ	_01181_DS_
                                           ;	.line	383; /dvpt/pinguino/git/pinguino-ide/pinguino/p8/pinguino/core/stdio.c	++format;
000f46   2a03     incf    0x3, 0x1, 0      	INCF	r0x03, F
000f48   e302     bnc     0xf4e            	BNC	_01363_DS_
000f4a   4a04     infsnz  0x4, 0x1, 0      	INFSNZ	r0x04, F
000f4c   2a05     incf    0x5, 0x1, 0      	INCF	r0x05, F
                                           _01363_DS_:
                                           ;	.line	384; /dvpt/pinguino/git/pinguino-ide/pinguino/p8/pinguino/core/stdio.c	islong = 1;
000f4e   0e01     movlw   0x1              	MOVLW	0x01
000f50   6e0c     movwf   0xc, 0           	MOVWF	r0x0c
                                           _01181_DS_:
                                           ;	.line	387; /dvpt/pinguino/git/pinguino-ide/pinguino/p8/pinguino/core/stdio.c	if (*format == 'u')		// decimal (10) unsigned (0) integer
000f52   c003     movff   0x3, 0xfe9       	MOVFF	r0x03, FSR0L
000f54   ffe9
000f56   c004     movff   0x4, 0xff3       	MOVFF	r0x04, PRODL
000f58   fff3
000f5a   5005     movf    0x5, 0, 0        	MOVF	r0x05, W
000f5c   ec4b     call    0x4c96, 0        	CALL	__gptrget1
000f5e   f026
                                           ; #	MOVWF	r0x0e
                                           ; #	MOVF	r0x0e, W
000f60   6e0e     movwf   0xe, 0           	MOVWF	r0x0e
000f62   0a75     xorlw   0x75             	XORLW	0x75
000f64   e001     bz      0xf68            	BZ	_01365_DS_
000f66   d06c     bra     0x1040           	BRA	_01183_DS_
                                           _01365_DS_:
                                           ;	.line	389; /dvpt/pinguino/git/pinguino-ide/pinguino/p8/pinguino/core/stdio.c	val = (islong) ? va_arg(args, u32) : va_arg(args, u16);
000f68   500c     movf    0xc, 0, 0        	MOVF	r0x0c, W
000f6a   e023     bz      0xfb2            	BZ	_01221_DS_
000f6c   5006     movf    0x6, 0, 0        	MOVF	r0x06, W
000f6e   0f04     addlw   0x4              	ADDLW	0x04
000f70   6e0f     movwf   0xf, 0           	MOVWF	r0x0f
000f72   0e00     movlw   0                	MOVLW	0x00
000f74   2007     addwfc  0x7, 0, 0        	ADDWFC	r0x07, W
000f76   6e10     movwf   0x10, 0          	MOVWF	r0x10
000f78   0e00     movlw   0                	MOVLW	0x00
000f7a   2008     addwfc  0x8, 0, 0        	ADDWFC	r0x08, W
000f7c   6e11     movwf   0x11, 0          	MOVWF	r0x11
000f7e   c00f     movff   0xf, 0x6         	MOVFF	r0x0f, r0x06
000f80   f006
000f82   c010     movff   0x10, 0x7        	MOVFF	r0x10, r0x07
000f84   f007
000f86   c011     movff   0x11, 0x8        	MOVFF	r0x11, r0x08
000f88   f008
000f8a   0efc     movlw   0xfc             	MOVLW	0xfc
000f8c   260f     addwf   0xf, 0x1, 0      	ADDWF	r0x0f, F
000f8e   0eff     movlw   0xff             	MOVLW	0xff
000f90   2210     addwfc  0x10, 0x1, 0     	ADDWFC	r0x10, F
000f92   2211     addwfc  0x11, 0x1, 0     	ADDWFC	r0x11, F
                                           ; #	MOVF	r0x11, W
                                           ; #	MOVWF	r0x11
                                           ; #	MOVF	r0x11, W
                                           ; #	MOVF	r0x10, W
                                           ; #	MOVF	r0x10, W
                                           ; #	MOVWF	r0x10
                                           ; #	MOVF	r0x10, W
                                           ; #	MOVF	r0x0f, W
                                           ; #	MOVF	r0x0f, W
                                           ; #	MOVWF	r0x0f
000f94   c00f     movff   0xf, 0xfe9       	MOVFF	r0x0f, FSR0L
000f96   ffe9
000f98   c010     movff   0x10, 0xff3      	MOVFF	r0x10, PRODL
000f9a   fff3
000f9c   5011     movf    0x11, 0, 0       	MOVF	r0x11, W
000f9e   eca0     call    0x4940, 0        	CALL	__gptrget4
000fa0   f024
000fa2   6e0f     movwf   0xf, 0           	MOVWF	r0x0f
000fa4   cff3     movff   0xff3, 0x10      	MOVFF	PRODL, r0x10
000fa6   f010
000fa8   cff4     movff   0xff4, 0x11      	MOVFF	PRODH, r0x11
000faa   f011
000fac   cfe9     movff   0xfe9, 0x12      	MOVFF	FSR0L, r0x12
000fae   f012
000fb0   d024     bra     0xffa            	BRA	_01222_DS_
                                           _01221_DS_:
000fb2   5006     movf    0x6, 0, 0        	MOVF	r0x06, W
000fb4   0f02     addlw   0x2              	ADDLW	0x02
000fb6   6e13     movwf   0x13, 0          	MOVWF	r0x13
000fb8   0e00     movlw   0                	MOVLW	0x00
000fba   2007     addwfc  0x7, 0, 0        	ADDWFC	r0x07, W
000fbc   6e14     movwf   0x14, 0          	MOVWF	r0x14
000fbe   0e00     movlw   0                	MOVLW	0x00
000fc0   2008     addwfc  0x8, 0, 0        	ADDWFC	r0x08, W
000fc2   6e15     movwf   0x15, 0          	MOVWF	r0x15
000fc4   c013     movff   0x13, 0x6        	MOVFF	r0x13, r0x06
000fc6   f006
000fc8   c014     movff   0x14, 0x7        	MOVFF	r0x14, r0x07
000fca   f007
000fcc   c015     movff   0x15, 0x8        	MOVFF	r0x15, r0x08
000fce   f008
000fd0   0efe     movlw   0xfe             	MOVLW	0xfe
000fd2   2613     addwf   0x13, 0x1, 0     	ADDWF	r0x13, F
000fd4   0eff     movlw   0xff             	MOVLW	0xff
000fd6   2214     addwfc  0x14, 0x1, 0     	ADDWFC	r0x14, F
000fd8   2215     addwfc  0x15, 0x1, 0     	ADDWFC	r0x15, F
                                           ; #	MOVF	r0x15, W
                                           ; #	MOVWF	r0x15
                                           ; #	MOVF	r0x15, W
                                           ; #	MOVF	r0x14, W
                                           ; #	MOVF	r0x14, W
                                           ; #	MOVWF	r0x14
                                           ; #	MOVF	r0x14, W
                                           ; #	MOVF	r0x13, W
                                           ; #	MOVF	r0x13, W
                                           ; #	MOVWF	r0x13
000fda   c013     movff   0x13, 0xfe9      	MOVFF	r0x13, FSR0L
000fdc   ffe9
000fde   c014     movff   0x14, 0xff3      	MOVFF	r0x14, PRODL
000fe0   fff3
000fe2   5015     movf    0x15, 0, 0       	MOVF	r0x15, W
000fe4   ecea     call    0x4bd4, 0        	CALL	__gptrget2
000fe6   f025
000fe8   6e13     movwf   0x13, 0          	MOVWF	r0x13
000fea   cff3     movff   0xff3, 0x14      	MOVFF	PRODL, r0x14
000fec   f014
000fee   c013     movff   0x13, 0xf        	MOVFF	r0x13, r0x0f
000ff0   f00f
000ff2   c014     movff   0x14, 0x10       	MOVFF	r0x14, r0x10
000ff4   f010
000ff6   6a11     clrf    0x11, 0          	CLRF	r0x11
000ff8   6a12     clrf    0x12, 0          	CLRF	r0x12
                                           _01222_DS_:
                                           ;	.line	390; /dvpt/pinguino/git/pinguino-ide/pinguino/p8/pinguino/core/stdio.c	pc += pprinti(out, val, islong, 10, 0, width, pad, separator, 'a');
000ffa   0e61     movlw   0x61             	MOVLW	0x61
000ffc   6ee5     movwf   0xe5, 0          	MOVWF	POSTDEC1
000ffe   6ae5     clrf    0xe5, 0          	CLRF	POSTDEC1
001000   500b     movf    0xb, 0, 0        	MOVF	r0x0b, W
001002   6ee5     movwf   0xe5, 0          	MOVWF	POSTDEC1
001004   500d     movf    0xd, 0, 0        	MOVF	r0x0d, W
001006   6ee5     movwf   0xe5, 0          	MOVWF	POSTDEC1
001008   6ae5     clrf    0xe5, 0          	CLRF	POSTDEC1
00100a   0e0a     movlw   0xa              	MOVLW	0x0a
00100c   6ee5     movwf   0xe5, 0          	MOVWF	POSTDEC1
00100e   500c     movf    0xc, 0, 0        	MOVF	r0x0c, W
001010   6ee5     movwf   0xe5, 0          	MOVWF	POSTDEC1
001012   5012     movf    0x12, 0, 0       	MOVF	r0x12, W
001014   6ee5     movwf   0xe5, 0          	MOVWF	POSTDEC1
001016   5011     movf    0x11, 0, 0       	MOVF	r0x11, W
001018   6ee5     movwf   0xe5, 0          	MOVWF	POSTDEC1
00101a   5010     movf    0x10, 0, 0       	MOVF	r0x10, W
00101c   6ee5     movwf   0xe5, 0          	MOVWF	POSTDEC1
00101e   500f     movf    0xf, 0, 0        	MOVF	r0x0f, W
001020   6ee5     movwf   0xe5, 0          	MOVWF	POSTDEC1
001022   5002     movf    0x2, 0, 0        	MOVF	r0x02, W
001024   6ee5     movwf   0xe5, 0          	MOVWF	POSTDEC1
001026   5001     movf    0x1, 0, 0        	MOVF	r0x01, W
001028   6ee5     movwf   0xe5, 0          	MOVWF	POSTDEC1
00102a   5000     movf    0, 0, 0          	MOVF	r0x00, W
00102c   6ee5     movwf   0xe5, 0          	MOVWF	POSTDEC1
00102e   ecf9     call    0x1bf2, 0        	CALL	_pprinti
001030   f00d
001032   6e13     movwf   0x13, 0          	MOVWF	r0x13
001034   0e0e     movlw   0xe              	MOVLW	0x0e
001036   26e1     addwf   0xe1, 0x1, 0     	ADDWF	FSR1L, F
001038   5013     movf    0x13, 0, 0       	MOVF	r0x13, W
00103a   2609     addwf   0x9, 0x1, 0      	ADDWF	r0x09, F
                                           ;	.line	391; /dvpt/pinguino/git/pinguino-ide/pinguino/p8/pinguino/core/stdio.c	continue;
00103c   efce     goto    0x159c           	GOTO	_01203_DS_
00103e   f00a
                                           _01183_DS_:
                                           ;	.line	394; /dvpt/pinguino/git/pinguino-ide/pinguino/p8/pinguino/core/stdio.c	if (*format == 'd' || *format == 'i') // decimal (10) signed (1) integer
001040   500e     movf    0xe, 0, 0        	MOVF	r0x0e, W
001042   0a64     xorlw   0x64             	XORLW	0x64
001044   e004     bz      0x104e           	BZ	_01184_DS_
001046   500e     movf    0xe, 0, 0        	MOVF	r0x0e, W
001048   0a69     xorlw   0x69             	XORLW	0x69
00104a   e001     bz      0x104e           	BZ	_01184_DS_
00104c   d075     bra     0x1138           	BRA	_01185_DS_
                                           _01184_DS_:
                                           ;	.line	396; /dvpt/pinguino/git/pinguino-ide/pinguino/p8/pinguino/core/stdio.c	val = (islong) ? va_arg(args, u32) : va_arg(args, u16);
00104e   500c     movf    0xc, 0, 0        	MOVF	r0x0c, W
001050   e023     bz      0x1098           	BZ	_01223_DS_
001052   5006     movf    0x6, 0, 0        	MOVF	r0x06, W
001054   0f04     addlw   0x4              	ADDLW	0x04
001056   6e13     movwf   0x13, 0          	MOVWF	r0x13
001058   0e00     movlw   0                	MOVLW	0x00
00105a   2007     addwfc  0x7, 0, 0        	ADDWFC	r0x07, W
00105c   6e14     movwf   0x14, 0          	MOVWF	r0x14
00105e   0e00     movlw   0                	MOVLW	0x00
001060   2008     addwfc  0x8, 0, 0        	ADDWFC	r0x08, W
001062   6e15     movwf   0x15, 0          	MOVWF	r0x15
001064   c013     movff   0x13, 0x6        	MOVFF	r0x13, r0x06
001066   f006
001068   c014     movff   0x14, 0x7        	MOVFF	r0x14, r0x07
00106a   f007
00106c   c015     movff   0x15, 0x8        	MOVFF	r0x15, r0x08
00106e   f008
001070   0efc     movlw   0xfc             	MOVLW	0xfc
001072   2613     addwf   0x13, 0x1, 0     	ADDWF	r0x13, F
001074   0eff     movlw   0xff             	MOVLW	0xff
001076   2214     addwfc  0x14, 0x1, 0     	ADDWFC	r0x14, F
001078   2215     addwfc  0x15, 0x1, 0     	ADDWFC	r0x15, F
                                           ; #	MOVF	r0x15, W
                                           ; #	MOVWF	r0x15
                                           ; #	MOVF	r0x15, W
                                           ; #	MOVF	r0x14, W
                                           ; #	MOVF	r0x14, W
                                           ; #	MOVWF	r0x14
                                           ; #	MOVF	r0x14, W
                                           ; #	MOVF	r0x13, W
                                           ; #	MOVF	r0x13, W
                                           ; #	MOVWF	r0x13
00107a   c013     movff   0x13, 0xfe9      	MOVFF	r0x13, FSR0L
00107c   ffe9
00107e   c014     movff   0x14, 0xff3      	MOVFF	r0x14, PRODL
001080   fff3
001082   5015     movf    0x15, 0, 0       	MOVF	r0x15, W
001084   eca0     call    0x4940, 0        	CALL	__gptrget4
001086   f024
001088   6e13     movwf   0x13, 0          	MOVWF	r0x13
00108a   cff3     movff   0xff3, 0x14      	MOVFF	PRODL, r0x14
00108c   f014
00108e   cff4     movff   0xff4, 0x15      	MOVFF	PRODH, r0x15
001090   f015
001092   cfe9     movff   0xfe9, 0x16      	MOVFF	FSR0L, r0x16
001094   f016
001096   d024     bra     0x10e0           	BRA	_01224_DS_
                                           _01223_DS_:
001098   5006     movf    0x6, 0, 0        	MOVF	r0x06, W
00109a   0f02     addlw   0x2              	ADDLW	0x02
00109c   6e17     movwf   0x17, 0          	MOVWF	r0x17
00109e   0e00     movlw   0                	MOVLW	0x00
0010a0   2007     addwfc  0x7, 0, 0        	ADDWFC	r0x07, W
0010a2   6e18     movwf   0x18, 0          	MOVWF	r0x18
0010a4   0e00     movlw   0                	MOVLW	0x00
0010a6   2008     addwfc  0x8, 0, 0        	ADDWFC	r0x08, W
0010a8   6e19     movwf   0x19, 0          	MOVWF	r0x19
0010aa   c017     movff   0x17, 0x6        	MOVFF	r0x17, r0x06
0010ac   f006
0010ae   c018     movff   0x18, 0x7        	MOVFF	r0x18, r0x07
0010b0   f007
0010b2   c019     movff   0x19, 0x8        	MOVFF	r0x19, r0x08
0010b4   f008
0010b6   0efe     movlw   0xfe             	MOVLW	0xfe
0010b8   2617     addwf   0x17, 0x1, 0     	ADDWF	r0x17, F
0010ba   0eff     movlw   0xff             	MOVLW	0xff
0010bc   2218     addwfc  0x18, 0x1, 0     	ADDWFC	r0x18, F
0010be   2219     addwfc  0x19, 0x1, 0     	ADDWFC	r0x19, F
                                           ; #	MOVF	r0x19, W
                                           ; #	MOVWF	r0x19
                                           ; #	MOVF	r0x19, W
                                           ; #	MOVF	r0x18, W
                                           ; #	MOVF	r0x18, W
                                           ; #	MOVWF	r0x18
                                           ; #	MOVF	r0x18, W
                                           ; #	MOVF	r0x17, W
                                           ; #	MOVF	r0x17, W
                                           ; #	MOVWF	r0x17
0010c0   c017     movff   0x17, 0xfe9      	MOVFF	r0x17, FSR0L
0010c2   ffe9
0010c4   c018     movff   0x18, 0xff3      	MOVFF	r0x18, PRODL
0010c6   fff3
0010c8   5019     movf    0x19, 0, 0       	MOVF	r0x19, W
0010ca   ecea     call    0x4bd4, 0        	CALL	__gptrget2
0010cc   f025
0010ce   6e17     movwf   0x17, 0          	MOVWF	r0x17
0010d0   cff3     movff   0xff3, 0x18      	MOVFF	PRODL, r0x18
0010d2   f018
0010d4   c017     movff   0x17, 0x13       	MOVFF	r0x17, r0x13
0010d6   f013
0010d8   c018     movff   0x18, 0x14       	MOVFF	r0x18, r0x14
0010da   f014
0010dc   6a15     clrf    0x15, 0          	CLRF	r0x15
0010de   6a16     clrf    0x16, 0          	CLRF	r0x16
                                           _01224_DS_:
0010e0   c013     movff   0x13, 0xf        	MOVFF	r0x13, r0x0f
0010e2   f00f
0010e4   c014     movff   0x14, 0x10       	MOVFF	r0x14, r0x10
0010e6   f010
0010e8   c015     movff   0x15, 0x11       	MOVFF	r0x15, r0x11
0010ea   f011
0010ec   c016     movff   0x16, 0x12       	MOVFF	r0x16, r0x12
0010ee   f012
                                           ;	.line	397; /dvpt/pinguino/git/pinguino-ide/pinguino/p8/pinguino/core/stdio.c	pc += pprinti(out, val, islong, 10, 1, width, pad, separator, 'a');
0010f0   0e61     movlw   0x61             	MOVLW	0x61
0010f2   6ee5     movwf   0xe5, 0          	MOVWF	POSTDEC1
0010f4   6ae5     clrf    0xe5, 0          	CLRF	POSTDEC1
0010f6   500b     movf    0xb, 0, 0        	MOVF	r0x0b, W
0010f8   6ee5     movwf   0xe5, 0          	MOVWF	POSTDEC1
0010fa   500d     movf    0xd, 0, 0        	MOVF	r0x0d, W
0010fc   6ee5     movwf   0xe5, 0          	MOVWF	POSTDEC1
0010fe   0e01     movlw   0x1              	MOVLW	0x01
001100   6ee5     movwf   0xe5, 0          	MOVWF	POSTDEC1
001102   0e0a     movlw   0xa              	MOVLW	0x0a
001104   6ee5     movwf   0xe5, 0          	MOVWF	POSTDEC1
001106   500c     movf    0xc, 0, 0        	MOVF	r0x0c, W
001108   6ee5     movwf   0xe5, 0          	MOVWF	POSTDEC1
00110a   5012     movf    0x12, 0, 0       	MOVF	r0x12, W
00110c   6ee5     movwf   0xe5, 0          	MOVWF	POSTDEC1
00110e   5011     movf    0x11, 0, 0       	MOVF	r0x11, W
001110   6ee5     movwf   0xe5, 0          	MOVWF	POSTDEC1
001112   5010     movf    0x10, 0, 0       	MOVF	r0x10, W
001114   6ee5     movwf   0xe5, 0          	MOVWF	POSTDEC1
001116   500f     movf    0xf, 0, 0        	MOVF	r0x0f, W
001118   6ee5     movwf   0xe5, 0          	MOVWF	POSTDEC1
00111a   5002     movf    0x2, 0, 0        	MOVF	r0x02, W
00111c   6ee5     movwf   0xe5, 0          	MOVWF	POSTDEC1
00111e   5001     movf    0x1, 0, 0        	MOVF	r0x01, W
001120   6ee5     movwf   0xe5, 0          	MOVWF	POSTDEC1
001122   5000     movf    0, 0, 0          	MOVF	r0x00, W
001124   6ee5     movwf   0xe5, 0          	MOVWF	POSTDEC1
001126   ecf9     call    0x1bf2, 0        	CALL	_pprinti
001128   f00d
00112a   6e13     movwf   0x13, 0          	MOVWF	r0x13
00112c   0e0e     movlw   0xe              	MOVLW	0x0e
00112e   26e1     addwf   0xe1, 0x1, 0     	ADDWF	FSR1L, F
001130   5013     movf    0x13, 0, 0       	MOVF	r0x13, W
001132   2609     addwf   0x9, 0x1, 0      	ADDWF	r0x09, F
                                           ;	.line	398; /dvpt/pinguino/git/pinguino-ide/pinguino/p8/pinguino/core/stdio.c	continue;
001134   efce     goto    0x159c           	GOTO	_01203_DS_
001136   f00a
                                           _01185_DS_:
                                           ;	.line	401; /dvpt/pinguino/git/pinguino-ide/pinguino/p8/pinguino/core/stdio.c	if (*format == 'x' || *format == 'p')	// unsigned (0) lower ('a') hexa (16) or pointer
001138   500e     movf    0xe, 0, 0        	MOVF	r0x0e, W
00113a   0a78     xorlw   0x78             	XORLW	0x78
00113c   e004     bz      0x1146           	BZ	_01187_DS_
00113e   500e     movf    0xe, 0, 0        	MOVF	r0x0e, W
001140   0a70     xorlw   0x70             	XORLW	0x70
001142   e001     bz      0x1146           	BZ	_01187_DS_
001144   d073     bra     0x122c           	BRA	_01188_DS_
                                           _01187_DS_:
                                           ;	.line	403; /dvpt/pinguino/git/pinguino-ide/pinguino/p8/pinguino/core/stdio.c	val = (islong) ? va_arg(args, u32) : va_arg(args, u16);
001146   500c     movf    0xc, 0, 0        	MOVF	r0x0c, W
001148   e023     bz      0x1190           	BZ	_01225_DS_
00114a   5006     movf    0x6, 0, 0        	MOVF	r0x06, W
00114c   0f04     addlw   0x4              	ADDLW	0x04
00114e   6e13     movwf   0x13, 0          	MOVWF	r0x13
001150   0e00     movlw   0                	MOVLW	0x00
001152   2007     addwfc  0x7, 0, 0        	ADDWFC	r0x07, W
001154   6e14     movwf   0x14, 0          	MOVWF	r0x14
001156   0e00     movlw   0                	MOVLW	0x00
001158   2008     addwfc  0x8, 0, 0        	ADDWFC	r0x08, W
00115a   6e15     movwf   0x15, 0          	MOVWF	r0x15
00115c   c013     movff   0x13, 0x6        	MOVFF	r0x13, r0x06
00115e   f006
001160   c014     movff   0x14, 0x7        	MOVFF	r0x14, r0x07
001162   f007
001164   c015     movff   0x15, 0x8        	MOVFF	r0x15, r0x08
001166   f008
001168   0efc     movlw   0xfc             	MOVLW	0xfc
00116a   2613     addwf   0x13, 0x1, 0     	ADDWF	r0x13, F
00116c   0eff     movlw   0xff             	MOVLW	0xff
00116e   2214     addwfc  0x14, 0x1, 0     	ADDWFC	r0x14, F
001170   2215     addwfc  0x15, 0x1, 0     	ADDWFC	r0x15, F
                                           ; #	MOVF	r0x15, W
                                           ; #	MOVWF	r0x15
                                           ; #	MOVF	r0x15, W
                                           ; #	MOVF	r0x14, W
                                           ; #	MOVF	r0x14, W
                                           ; #	MOVWF	r0x14
                                           ; #	MOVF	r0x14, W
                                           ; #	MOVF	r0x13, W
                                           ; #	MOVF	r0x13, W
                                           ; #	MOVWF	r0x13
001172   c013     movff   0x13, 0xfe9      	MOVFF	r0x13, FSR0L
001174   ffe9
001176   c014     movff   0x14, 0xff3      	MOVFF	r0x14, PRODL
001178   fff3
00117a   5015     movf    0x15, 0, 0       	MOVF	r0x15, W
00117c   eca0     call    0x4940, 0        	CALL	__gptrget4
00117e   f024
001180   6e13     movwf   0x13, 0          	MOVWF	r0x13
001182   cff3     movff   0xff3, 0x14      	MOVFF	PRODL, r0x14
001184   f014
001186   cff4     movff   0xff4, 0x15      	MOVFF	PRODH, r0x15
001188   f015
00118a   cfe9     movff   0xfe9, 0x16      	MOVFF	FSR0L, r0x16
00118c   f016
00118e   d024     bra     0x11d8           	BRA	_01226_DS_
                                           _01225_DS_:
001190   5006     movf    0x6, 0, 0        	MOVF	r0x06, W
001192   0f02     addlw   0x2              	ADDLW	0x02
001194   6e17     movwf   0x17, 0          	MOVWF	r0x17
001196   0e00     movlw   0                	MOVLW	0x00
001198   2007     addwfc  0x7, 0, 0        	ADDWFC	r0x07, W
00119a   6e18     movwf   0x18, 0          	MOVWF	r0x18
00119c   0e00     movlw   0                	MOVLW	0x00
00119e   2008     addwfc  0x8, 0, 0        	ADDWFC	r0x08, W
0011a0   6e19     movwf   0x19, 0          	MOVWF	r0x19
0011a2   c017     movff   0x17, 0x6        	MOVFF	r0x17, r0x06
0011a4   f006
0011a6   c018     movff   0x18, 0x7        	MOVFF	r0x18, r0x07
0011a8   f007
0011aa   c019     movff   0x19, 0x8        	MOVFF	r0x19, r0x08
0011ac   f008
0011ae   0efe     movlw   0xfe             	MOVLW	0xfe
0011b0   2617     addwf   0x17, 0x1, 0     	ADDWF	r0x17, F
0011b2   0eff     movlw   0xff             	MOVLW	0xff
0011b4   2218     addwfc  0x18, 0x1, 0     	ADDWFC	r0x18, F
0011b6   2219     addwfc  0x19, 0x1, 0     	ADDWFC	r0x19, F
                                           ; #	MOVF	r0x19, W
                                           ; #	MOVWF	r0x19
                                           ; #	MOVF	r0x19, W
                                           ; #	MOVF	r0x18, W
                                           ; #	MOVF	r0x18, W
                                           ; #	MOVWF	r0x18
                                           ; #	MOVF	r0x18, W
                                           ; #	MOVF	r0x17, W
                                           ; #	MOVF	r0x17, W
                                           ; #	MOVWF	r0x17
0011b8   c017     movff   0x17, 0xfe9      	MOVFF	r0x17, FSR0L
0011ba   ffe9
0011bc   c018     movff   0x18, 0xff3      	MOVFF	r0x18, PRODL
0011be   fff3
0011c0   5019     movf    0x19, 0, 0       	MOVF	r0x19, W
0011c2   ecea     call    0x4bd4, 0        	CALL	__gptrget2
0011c4   f025
0011c6   6e17     movwf   0x17, 0          	MOVWF	r0x17
0011c8   cff3     movff   0xff3, 0x18      	MOVFF	PRODL, r0x18
0011ca   f018
0011cc   c017     movff   0x17, 0x13       	MOVFF	r0x17, r0x13
0011ce   f013
0011d0   c018     movff   0x18, 0x14       	MOVFF	r0x18, r0x14
0011d2   f014
0011d4   6a15     clrf    0x15, 0          	CLRF	r0x15
0011d6   6a16     clrf    0x16, 0          	CLRF	r0x16
                                           _01226_DS_:
0011d8   c013     movff   0x13, 0xf        	MOVFF	r0x13, r0x0f
0011da   f00f
0011dc   c014     movff   0x14, 0x10       	MOVFF	r0x14, r0x10
0011de   f010
0011e0   c015     movff   0x15, 0x11       	MOVFF	r0x15, r0x11
0011e2   f011
0011e4   c016     movff   0x16, 0x12       	MOVFF	r0x16, r0x12
0011e6   f012
                                           ;	.line	404; /dvpt/pinguino/git/pinguino-ide/pinguino/p8/pinguino/core/stdio.c	pc += pprinti(out, val, islong, 16, 0, width, pad, separator, 'a');
0011e8   0e61     movlw   0x61             	MOVLW	0x61
0011ea   6ee5     movwf   0xe5, 0          	MOVWF	POSTDEC1
0011ec   6ae5     clrf    0xe5, 0          	CLRF	POSTDEC1
0011ee   500b     movf    0xb, 0, 0        	MOVF	r0x0b, W
0011f0   6ee5     movwf   0xe5, 0          	MOVWF	POSTDEC1
0011f2   500d     movf    0xd, 0, 0        	MOVF	r0x0d, W
0011f4   6ee5     movwf   0xe5, 0          	MOVWF	POSTDEC1
0011f6   6ae5     clrf    0xe5, 0          	CLRF	POSTDEC1
0011f8   0e10     movlw   0x10             	MOVLW	0x10
0011fa   6ee5     movwf   0xe5, 0          	MOVWF	POSTDEC1
0011fc   500c     movf    0xc, 0, 0        	MOVF	r0x0c, W
0011fe   6ee5     movwf   0xe5, 0          	MOVWF	POSTDEC1
001200   5012     movf    0x12, 0, 0       	MOVF	r0x12, W
001202   6ee5     movwf   0xe5, 0          	MOVWF	POSTDEC1
001204   5011     movf    0x11, 0, 0       	MOVF	r0x11, W
001206   6ee5     movwf   0xe5, 0          	MOVWF	POSTDEC1
001208   5010     movf    0x10, 0, 0       	MOVF	r0x10, W
00120a   6ee5     movwf   0xe5, 0          	MOVWF	POSTDEC1
00120c   500f     movf    0xf, 0, 0        	MOVF	r0x0f, W
00120e   6ee5     movwf   0xe5, 0          	MOVWF	POSTDEC1
001210   5002     movf    0x2, 0, 0        	MOVF	r0x02, W
001212   6ee5     movwf   0xe5, 0          	MOVWF	POSTDEC1
001214   5001     movf    0x1, 0, 0        	MOVF	r0x01, W
001216   6ee5     movwf   0xe5, 0          	MOVWF	POSTDEC1
001218   5000     movf    0, 0, 0          	MOVF	r0x00, W
00121a   6ee5     movwf   0xe5, 0          	MOVWF	POSTDEC1
00121c   ecf9     call    0x1bf2, 0        	CALL	_pprinti
00121e   f00d
001220   6e13     movwf   0x13, 0          	MOVWF	r0x13
001222   0e0e     movlw   0xe              	MOVLW	0x0e
001224   26e1     addwf   0xe1, 0x1, 0     	ADDWF	FSR1L, F
001226   5013     movf    0x13, 0, 0       	MOVF	r0x13, W
001228   2609     addwf   0x9, 0x1, 0      	ADDWF	r0x09, F
                                           ;	.line	405; /dvpt/pinguino/git/pinguino-ide/pinguino/p8/pinguino/core/stdio.c	continue;
00122a   d1b8     bra     0x159c           	BRA	_01203_DS_
                                           _01188_DS_:
                                           ;	.line	408; /dvpt/pinguino/git/pinguino-ide/pinguino/p8/pinguino/core/stdio.c	if (*format == 'X' || *format == 'P')	// unsigned (0) upper ('A') hexa (16) or pointer
00122c   500e     movf    0xe, 0, 0        	MOVF	r0x0e, W
00122e   0a58     xorlw   0x58             	XORLW	0x58
001230   e004     bz      0x123a           	BZ	_01190_DS_
001232   500e     movf    0xe, 0, 0        	MOVF	r0x0e, W
001234   0a50     xorlw   0x50             	XORLW	0x50
001236   e001     bz      0x123a           	BZ	_01190_DS_
001238   d073     bra     0x1320           	BRA	_01191_DS_
                                           _01190_DS_:
                                           ;	.line	410; /dvpt/pinguino/git/pinguino-ide/pinguino/p8/pinguino/core/stdio.c	val = (islong) ? va_arg(args, u32) : va_arg(args, u16);
00123a   500c     movf    0xc, 0, 0        	MOVF	r0x0c, W
00123c   e023     bz      0x1284           	BZ	_01227_DS_
00123e   5006     movf    0x6, 0, 0        	MOVF	r0x06, W
001240   0f04     addlw   0x4              	ADDLW	0x04
001242   6e13     movwf   0x13, 0          	MOVWF	r0x13
001244   0e00     movlw   0                	MOVLW	0x00
001246   2007     addwfc  0x7, 0, 0        	ADDWFC	r0x07, W
001248   6e14     movwf   0x14, 0          	MOVWF	r0x14
00124a   0e00     movlw   0                	MOVLW	0x00
00124c   2008     addwfc  0x8, 0, 0        	ADDWFC	r0x08, W
00124e   6e15     movwf   0x15, 0          	MOVWF	r0x15
001250   c013     movff   0x13, 0x6        	MOVFF	r0x13, r0x06
001252   f006
001254   c014     movff   0x14, 0x7        	MOVFF	r0x14, r0x07
001256   f007
001258   c015     movff   0x15, 0x8        	MOVFF	r0x15, r0x08
00125a   f008
00125c   0efc     movlw   0xfc             	MOVLW	0xfc
00125e   2613     addwf   0x13, 0x1, 0     	ADDWF	r0x13, F
001260   0eff     movlw   0xff             	MOVLW	0xff
001262   2214     addwfc  0x14, 0x1, 0     	ADDWFC	r0x14, F
001264   2215     addwfc  0x15, 0x1, 0     	ADDWFC	r0x15, F
                                           ; #	MOVF	r0x15, W
                                           ; #	MOVWF	r0x15
                                           ; #	MOVF	r0x15, W
                                           ; #	MOVF	r0x14, W
                                           ; #	MOVF	r0x14, W
                                           ; #	MOVWF	r0x14
                                           ; #	MOVF	r0x14, W
                                           ; #	MOVF	r0x13, W
                                           ; #	MOVF	r0x13, W
                                           ; #	MOVWF	r0x13
001266   c013     movff   0x13, 0xfe9      	MOVFF	r0x13, FSR0L
001268   ffe9
00126a   c014     movff   0x14, 0xff3      	MOVFF	r0x14, PRODL
00126c   fff3
00126e   5015     movf    0x15, 0, 0       	MOVF	r0x15, W
001270   eca0     call    0x4940, 0        	CALL	__gptrget4
001272   f024
001274   6e13     movwf   0x13, 0          	MOVWF	r0x13
001276   cff3     movff   0xff3, 0x14      	MOVFF	PRODL, r0x14
001278   f014
00127a   cff4     movff   0xff4, 0x15      	MOVFF	PRODH, r0x15
00127c   f015
00127e   cfe9     movff   0xfe9, 0x16      	MOVFF	FSR0L, r0x16
001280   f016
001282   d024     bra     0x12cc           	BRA	_01228_DS_
                                           _01227_DS_:
001284   5006     movf    0x6, 0, 0        	MOVF	r0x06, W
001286   0f02     addlw   0x2              	ADDLW	0x02
001288   6e17     movwf   0x17, 0          	MOVWF	r0x17
00128a   0e00     movlw   0                	MOVLW	0x00
00128c   2007     addwfc  0x7, 0, 0        	ADDWFC	r0x07, W
00128e   6e18     movwf   0x18, 0          	MOVWF	r0x18
001290   0e00     movlw   0                	MOVLW	0x00
001292   2008     addwfc  0x8, 0, 0        	ADDWFC	r0x08, W
001294   6e19     movwf   0x19, 0          	MOVWF	r0x19
001296   c017     movff   0x17, 0x6        	MOVFF	r0x17, r0x06
001298   f006
00129a   c018     movff   0x18, 0x7        	MOVFF	r0x18, r0x07
00129c   f007
00129e   c019     movff   0x19, 0x8        	MOVFF	r0x19, r0x08
0012a0   f008
0012a2   0efe     movlw   0xfe             	MOVLW	0xfe
0012a4   2617     addwf   0x17, 0x1, 0     	ADDWF	r0x17, F
0012a6   0eff     movlw   0xff             	MOVLW	0xff
0012a8   2218     addwfc  0x18, 0x1, 0     	ADDWFC	r0x18, F
0012aa   2219     addwfc  0x19, 0x1, 0     	ADDWFC	r0x19, F
                                           ; #	MOVF	r0x19, W
                                           ; #	MOVWF	r0x19
                                           ; #	MOVF	r0x19, W
                                           ; #	MOVF	r0x18, W
                                           ; #	MOVF	r0x18, W
                                           ; #	MOVWF	r0x18
                                           ; #	MOVF	r0x18, W
                                           ; #	MOVF	r0x17, W
                                           ; #	MOVF	r0x17, W
                                           ; #	MOVWF	r0x17
0012ac   c017     movff   0x17, 0xfe9      	MOVFF	r0x17, FSR0L
0012ae   ffe9
0012b0   c018     movff   0x18, 0xff3      	MOVFF	r0x18, PRODL
0012b2   fff3
0012b4   5019     movf    0x19, 0, 0       	MOVF	r0x19, W
0012b6   ecea     call    0x4bd4, 0        	CALL	__gptrget2
0012b8   f025
0012ba   6e17     movwf   0x17, 0          	MOVWF	r0x17
0012bc   cff3     movff   0xff3, 0x18      	MOVFF	PRODL, r0x18
0012be   f018
0012c0   c017     movff   0x17, 0x13       	MOVFF	r0x17, r0x13
0012c2   f013
0012c4   c018     movff   0x18, 0x14       	MOVFF	r0x18, r0x14
0012c6   f014
0012c8   6a15     clrf    0x15, 0          	CLRF	r0x15
0012ca   6a16     clrf    0x16, 0          	CLRF	r0x16
                                           _01228_DS_:
0012cc   c013     movff   0x13, 0xf        	MOVFF	r0x13, r0x0f
0012ce   f00f
0012d0   c014     movff   0x14, 0x10       	MOVFF	r0x14, r0x10
0012d2   f010
0012d4   c015     movff   0x15, 0x11       	MOVFF	r0x15, r0x11
0012d6   f011
0012d8   c016     movff   0x16, 0x12       	MOVFF	r0x16, r0x12
0012da   f012
                                           ;	.line	411; /dvpt/pinguino/git/pinguino-ide/pinguino/p8/pinguino/core/stdio.c	pc += pprinti(out, val, islong, 16, 0, width, pad, separator, 'A');
0012dc   0e41     movlw   0x41             	MOVLW	0x41
0012de   6ee5     movwf   0xe5, 0          	MOVWF	POSTDEC1
0012e0   6ae5     clrf    0xe5, 0          	CLRF	POSTDEC1
0012e2   500b     movf    0xb, 0, 0        	MOVF	r0x0b, W
0012e4   6ee5     movwf   0xe5, 0          	MOVWF	POSTDEC1
0012e6   500d     movf    0xd, 0, 0        	MOVF	r0x0d, W
0012e8   6ee5     movwf   0xe5, 0          	MOVWF	POSTDEC1
0012ea   6ae5     clrf    0xe5, 0          	CLRF	POSTDEC1
0012ec   0e10     movlw   0x10             	MOVLW	0x10
0012ee   6ee5     movwf   0xe5, 0          	MOVWF	POSTDEC1
0012f0   500c     movf    0xc, 0, 0        	MOVF	r0x0c, W
0012f2   6ee5     movwf   0xe5, 0          	MOVWF	POSTDEC1
0012f4   5012     movf    0x12, 0, 0       	MOVF	r0x12, W
0012f6   6ee5     movwf   0xe5, 0          	MOVWF	POSTDEC1
0012f8   5011     movf    0x11, 0, 0       	MOVF	r0x11, W
0012fa   6ee5     movwf   0xe5, 0          	MOVWF	POSTDEC1
0012fc   5010     movf    0x10, 0, 0       	MOVF	r0x10, W
0012fe   6ee5     movwf   0xe5, 0          	MOVWF	POSTDEC1
001300   500f     movf    0xf, 0, 0        	MOVF	r0x0f, W
001302   6ee5     movwf   0xe5, 0          	MOVWF	POSTDEC1
001304   5002     movf    0x2, 0, 0        	MOVF	r0x02, W
001306   6ee5     movwf   0xe5, 0          	MOVWF	POSTDEC1
001308   5001     movf    0x1, 0, 0        	MOVF	r0x01, W
00130a   6ee5     movwf   0xe5, 0          	MOVWF	POSTDEC1
00130c   5000     movf    0, 0, 0          	MOVF	r0x00, W
00130e   6ee5     movwf   0xe5, 0          	MOVWF	POSTDEC1
001310   ecf9     call    0x1bf2, 0        	CALL	_pprinti
001312   f00d
001314   6e13     movwf   0x13, 0          	MOVWF	r0x13
001316   0e0e     movlw   0xe              	MOVLW	0x0e
001318   26e1     addwf   0xe1, 0x1, 0     	ADDWF	FSR1L, F
00131a   5013     movf    0x13, 0, 0       	MOVF	r0x13, W
00131c   2609     addwf   0x9, 0x1, 0      	ADDWF	r0x09, F
                                           ;	.line	412; /dvpt/pinguino/git/pinguino-ide/pinguino/p8/pinguino/core/stdio.c	continue;
00131e   d13e     bra     0x159c           	BRA	_01203_DS_
                                           _01191_DS_:
                                           ;	.line	415; /dvpt/pinguino/git/pinguino-ide/pinguino/p8/pinguino/core/stdio.c	if (*format == 'b')		// binary
001320   500e     movf    0xe, 0, 0        	MOVF	r0x0e, W
001322   0a62     xorlw   0x62             	XORLW	0x62
001324   e001     bz      0x1328           	BZ	_01379_DS_
001326   d073     bra     0x140e           	BRA	_01194_DS_
                                           _01379_DS_:
                                           ;	.line	417; /dvpt/pinguino/git/pinguino-ide/pinguino/p8/pinguino/core/stdio.c	val = (islong) ? va_arg(args, u32) : va_arg(args, u16);
001328   500c     movf    0xc, 0, 0        	MOVF	r0x0c, W
00132a   e023     bz      0x1372           	BZ	_01229_DS_
00132c   5006     movf    0x6, 0, 0        	MOVF	r0x06, W
00132e   0f04     addlw   0x4              	ADDLW	0x04
001330   6e13     movwf   0x13, 0          	MOVWF	r0x13
001332   0e00     movlw   0                	MOVLW	0x00
001334   2007     addwfc  0x7, 0, 0        	ADDWFC	r0x07, W
001336   6e14     movwf   0x14, 0          	MOVWF	r0x14
001338   0e00     movlw   0                	MOVLW	0x00
00133a   2008     addwfc  0x8, 0, 0        	ADDWFC	r0x08, W
00133c   6e15     movwf   0x15, 0          	MOVWF	r0x15
00133e   c013     movff   0x13, 0x6        	MOVFF	r0x13, r0x06
001340   f006
001342   c014     movff   0x14, 0x7        	MOVFF	r0x14, r0x07
001344   f007
001346   c015     movff   0x15, 0x8        	MOVFF	r0x15, r0x08
001348   f008
00134a   0efc     movlw   0xfc             	MOVLW	0xfc
00134c   2613     addwf   0x13, 0x1, 0     	ADDWF	r0x13, F
00134e   0eff     movlw   0xff             	MOVLW	0xff
001350   2214     addwfc  0x14, 0x1, 0     	ADDWFC	r0x14, F
001352   2215     addwfc  0x15, 0x1, 0     	ADDWFC	r0x15, F
                                           ; #	MOVF	r0x15, W
                                           ; #	MOVWF	r0x15
                                           ; #	MOVF	r0x15, W
                                           ; #	MOVF	r0x14, W
                                           ; #	MOVF	r0x14, W
                                           ; #	MOVWF	r0x14
                                           ; #	MOVF	r0x14, W
                                           ; #	MOVF	r0x13, W
                                           ; #	MOVF	r0x13, W
                                           ; #	MOVWF	r0x13
001354   c013     movff   0x13, 0xfe9      	MOVFF	r0x13, FSR0L
001356   ffe9
001358   c014     movff   0x14, 0xff3      	MOVFF	r0x14, PRODL
00135a   fff3
00135c   5015     movf    0x15, 0, 0       	MOVF	r0x15, W
00135e   eca0     call    0x4940, 0        	CALL	__gptrget4
001360   f024
001362   6e13     movwf   0x13, 0          	MOVWF	r0x13
001364   cff3     movff   0xff3, 0x14      	MOVFF	PRODL, r0x14
001366   f014
001368   cff4     movff   0xff4, 0x15      	MOVFF	PRODH, r0x15
00136a   f015
00136c   cfe9     movff   0xfe9, 0x16      	MOVFF	FSR0L, r0x16
00136e   f016
001370   d024     bra     0x13ba           	BRA	_01230_DS_
                                           _01229_DS_:
001372   5006     movf    0x6, 0, 0        	MOVF	r0x06, W
001374   0f02     addlw   0x2              	ADDLW	0x02
001376   6e17     movwf   0x17, 0          	MOVWF	r0x17
001378   0e00     movlw   0                	MOVLW	0x00
00137a   2007     addwfc  0x7, 0, 0        	ADDWFC	r0x07, W
00137c   6e18     movwf   0x18, 0          	MOVWF	r0x18
00137e   0e00     movlw   0                	MOVLW	0x00
001380   2008     addwfc  0x8, 0, 0        	ADDWFC	r0x08, W
001382   6e19     movwf   0x19, 0          	MOVWF	r0x19
001384   c017     movff   0x17, 0x6        	MOVFF	r0x17, r0x06
001386   f006
001388   c018     movff   0x18, 0x7        	MOVFF	r0x18, r0x07
00138a   f007
00138c   c019     movff   0x19, 0x8        	MOVFF	r0x19, r0x08
00138e   f008
001390   0efe     movlw   0xfe             	MOVLW	0xfe
001392   2617     addwf   0x17, 0x1, 0     	ADDWF	r0x17, F
001394   0eff     movlw   0xff             	MOVLW	0xff
001396   2218     addwfc  0x18, 0x1, 0     	ADDWFC	r0x18, F
001398   2219     addwfc  0x19, 0x1, 0     	ADDWFC	r0x19, F
                                           ; #	MOVF	r0x19, W
                                           ; #	MOVWF	r0x19
                                           ; #	MOVF	r0x19, W
                                           ; #	MOVF	r0x18, W
                                           ; #	MOVF	r0x18, W
                                           ; #	MOVWF	r0x18
                                           ; #	MOVF	r0x18, W
                                           ; #	MOVF	r0x17, W
                                           ; #	MOVF	r0x17, W
                                           ; #	MOVWF	r0x17
00139a   c017     movff   0x17, 0xfe9      	MOVFF	r0x17, FSR0L
00139c   ffe9
00139e   c018     movff   0x18, 0xff3      	MOVFF	r0x18, PRODL
0013a0   fff3
0013a2   5019     movf    0x19, 0, 0       	MOVF	r0x19, W
0013a4   ecea     call    0x4bd4, 0        	CALL	__gptrget2
0013a6   f025
0013a8   6e17     movwf   0x17, 0          	MOVWF	r0x17
0013aa   cff3     movff   0xff3, 0x18      	MOVFF	PRODL, r0x18
0013ac   f018
0013ae   c017     movff   0x17, 0x13       	MOVFF	r0x17, r0x13
0013b0   f013
0013b2   c018     movff   0x18, 0x14       	MOVFF	r0x18, r0x14
0013b4   f014
0013b6   6a15     clrf    0x15, 0          	CLRF	r0x15
0013b8   6a16     clrf    0x16, 0          	CLRF	r0x16
                                           _01230_DS_:
0013ba   c013     movff   0x13, 0xf        	MOVFF	r0x13, r0x0f
0013bc   f00f
0013be   c014     movff   0x14, 0x10       	MOVFF	r0x14, r0x10
0013c0   f010
0013c2   c015     movff   0x15, 0x11       	MOVFF	r0x15, r0x11
0013c4   f011
0013c6   c016     movff   0x16, 0x12       	MOVFF	r0x16, r0x12
0013c8   f012
                                           ;	.line	418; /dvpt/pinguino/git/pinguino-ide/pinguino/p8/pinguino/core/stdio.c	pc += pprinti(out, val, islong, 2, 0, width, pad, separator, 'a');
0013ca   0e61     movlw   0x61             	MOVLW	0x61
0013cc   6ee5     movwf   0xe5, 0          	MOVWF	POSTDEC1
0013ce   6ae5     clrf    0xe5, 0          	CLRF	POSTDEC1
0013d0   500b     movf    0xb, 0, 0        	MOVF	r0x0b, W
0013d2   6ee5     movwf   0xe5, 0          	MOVWF	POSTDEC1
0013d4   500d     movf    0xd, 0, 0        	MOVF	r0x0d, W
0013d6   6ee5     movwf   0xe5, 0          	MOVWF	POSTDEC1
0013d8   6ae5     clrf    0xe5, 0          	CLRF	POSTDEC1
0013da   0e02     movlw   0x2              	MOVLW	0x02
0013dc   6ee5     movwf   0xe5, 0          	MOVWF	POSTDEC1
0013de   500c     movf    0xc, 0, 0        	MOVF	r0x0c, W
0013e0   6ee5     movwf   0xe5, 0          	MOVWF	POSTDEC1
0013e2   5012     movf    0x12, 0, 0       	MOVF	r0x12, W
0013e4   6ee5     movwf   0xe5, 0          	MOVWF	POSTDEC1
0013e6   5011     movf    0x11, 0, 0       	MOVF	r0x11, W
0013e8   6ee5     movwf   0xe5, 0          	MOVWF	POSTDEC1
0013ea   5010     movf    0x10, 0, 0       	MOVF	r0x10, W
0013ec   6ee5     movwf   0xe5, 0          	MOVWF	POSTDEC1
0013ee   500f     movf    0xf, 0, 0        	MOVF	r0x0f, W
0013f0   6ee5     movwf   0xe5, 0          	MOVWF	POSTDEC1
0013f2   5002     movf    0x2, 0, 0        	MOVF	r0x02, W
0013f4   6ee5     movwf   0xe5, 0          	MOVWF	POSTDEC1
0013f6   5001     movf    0x1, 0, 0        	MOVF	r0x01, W
0013f8   6ee5     movwf   0xe5, 0          	MOVWF	POSTDEC1
0013fa   5000     movf    0, 0, 0          	MOVF	r0x00, W
0013fc   6ee5     movwf   0xe5, 0          	MOVWF	POSTDEC1
0013fe   ecf9     call    0x1bf2, 0        	CALL	_pprinti
001400   f00d
001402   6e13     movwf   0x13, 0          	MOVWF	r0x13
001404   0e0e     movlw   0xe              	MOVLW	0x0e
001406   26e1     addwf   0xe1, 0x1, 0     	ADDWF	FSR1L, F
001408   5013     movf    0x13, 0, 0       	MOVF	r0x13, W
00140a   2609     addwf   0x9, 0x1, 0      	ADDWF	r0x09, F
                                           ;	.line	419; /dvpt/pinguino/git/pinguino-ide/pinguino/p8/pinguino/core/stdio.c	continue;
00140c   d0c7     bra     0x159c           	BRA	_01203_DS_
                                           _01194_DS_:
                                           ;	.line	422; /dvpt/pinguino/git/pinguino-ide/pinguino/p8/pinguino/core/stdio.c	if (*format == 'o')		// octal
00140e   500e     movf    0xe, 0, 0        	MOVF	r0x0e, W
001410   0a6f     xorlw   0x6f             	XORLW	0x6f
001412   e001     bz      0x1416           	BZ	_01381_DS_
001414   d073     bra     0x14fc           	BRA	_01196_DS_
                                           _01381_DS_:
                                           ;	.line	424; /dvpt/pinguino/git/pinguino-ide/pinguino/p8/pinguino/core/stdio.c	val = (islong) ? va_arg(args, u32) : va_arg(args, u16);
001416   500c     movf    0xc, 0, 0        	MOVF	r0x0c, W
001418   e023     bz      0x1460           	BZ	_01231_DS_
00141a   5006     movf    0x6, 0, 0        	MOVF	r0x06, W
00141c   0f04     addlw   0x4              	ADDLW	0x04
00141e   6e13     movwf   0x13, 0          	MOVWF	r0x13
001420   0e00     movlw   0                	MOVLW	0x00
001422   2007     addwfc  0x7, 0, 0        	ADDWFC	r0x07, W
001424   6e14     movwf   0x14, 0          	MOVWF	r0x14
001426   0e00     movlw   0                	MOVLW	0x00
001428   2008     addwfc  0x8, 0, 0        	ADDWFC	r0x08, W
00142a   6e15     movwf   0x15, 0          	MOVWF	r0x15
00142c   c013     movff   0x13, 0x6        	MOVFF	r0x13, r0x06
00142e   f006
001430   c014     movff   0x14, 0x7        	MOVFF	r0x14, r0x07
001432   f007
001434   c015     movff   0x15, 0x8        	MOVFF	r0x15, r0x08
001436   f008
001438   0efc     movlw   0xfc             	MOVLW	0xfc
00143a   2613     addwf   0x13, 0x1, 0     	ADDWF	r0x13, F
00143c   0eff     movlw   0xff             	MOVLW	0xff
00143e   2214     addwfc  0x14, 0x1, 0     	ADDWFC	r0x14, F
001440   2215     addwfc  0x15, 0x1, 0     	ADDWFC	r0x15, F
                                           ; #	MOVF	r0x15, W
                                           ; #	MOVWF	r0x15
                                           ; #	MOVF	r0x15, W
                                           ; #	MOVF	r0x14, W
                                           ; #	MOVF	r0x14, W
                                           ; #	MOVWF	r0x14
                                           ; #	MOVF	r0x14, W
                                           ; #	MOVF	r0x13, W
                                           ; #	MOVF	r0x13, W
                                           ; #	MOVWF	r0x13
001442   c013     movff   0x13, 0xfe9      	MOVFF	r0x13, FSR0L
001444   ffe9
001446   c014     movff   0x14, 0xff3      	MOVFF	r0x14, PRODL
001448   fff3
00144a   5015     movf    0x15, 0, 0       	MOVF	r0x15, W
00144c   eca0     call    0x4940, 0        	CALL	__gptrget4
00144e   f024
001450   6e13     movwf   0x13, 0          	MOVWF	r0x13
001452   cff3     movff   0xff3, 0x14      	MOVFF	PRODL, r0x14
001454   f014
001456   cff4     movff   0xff4, 0x15      	MOVFF	PRODH, r0x15
001458   f015
00145a   cfe9     movff   0xfe9, 0x16      	MOVFF	FSR0L, r0x16
00145c   f016
00145e   d024     bra     0x14a8           	BRA	_01232_DS_
                                           _01231_DS_:
001460   5006     movf    0x6, 0, 0        	MOVF	r0x06, W
001462   0f02     addlw   0x2              	ADDLW	0x02
001464   6e17     movwf   0x17, 0          	MOVWF	r0x17
001466   0e00     movlw   0                	MOVLW	0x00
001468   2007     addwfc  0x7, 0, 0        	ADDWFC	r0x07, W
00146a   6e18     movwf   0x18, 0          	MOVWF	r0x18
00146c   0e00     movlw   0                	MOVLW	0x00
00146e   2008     addwfc  0x8, 0, 0        	ADDWFC	r0x08, W
001470   6e19     movwf   0x19, 0          	MOVWF	r0x19
001472   c017     movff   0x17, 0x6        	MOVFF	r0x17, r0x06
001474   f006
001476   c018     movff   0x18, 0x7        	MOVFF	r0x18, r0x07
001478   f007
00147a   c019     movff   0x19, 0x8        	MOVFF	r0x19, r0x08
00147c   f008
00147e   0efe     movlw   0xfe             	MOVLW	0xfe
001480   2617     addwf   0x17, 0x1, 0     	ADDWF	r0x17, F
001482   0eff     movlw   0xff             	MOVLW	0xff
001484   2218     addwfc  0x18, 0x1, 0     	ADDWFC	r0x18, F
001486   2219     addwfc  0x19, 0x1, 0     	ADDWFC	r0x19, F
                                           ; #	MOVF	r0x19, W
                                           ; #	MOVWF	r0x19
                                           ; #	MOVF	r0x19, W
                                           ; #	MOVF	r0x18, W
                                           ; #	MOVF	r0x18, W
                                           ; #	MOVWF	r0x18
                                           ; #	MOVF	r0x18, W
                                           ; #	MOVF	r0x17, W
                                           ; #	MOVF	r0x17, W
                                           ; #	MOVWF	r0x17
001488   c017     movff   0x17, 0xfe9      	MOVFF	r0x17, FSR0L
00148a   ffe9
00148c   c018     movff   0x18, 0xff3      	MOVFF	r0x18, PRODL
00148e   fff3
001490   5019     movf    0x19, 0, 0       	MOVF	r0x19, W
001492   ecea     call    0x4bd4, 0        	CALL	__gptrget2
001494   f025
001496   6e17     movwf   0x17, 0          	MOVWF	r0x17
001498   cff3     movff   0xff3, 0x18      	MOVFF	PRODL, r0x18
00149a   f018
00149c   c017     movff   0x17, 0x13       	MOVFF	r0x17, r0x13
00149e   f013
0014a0   c018     movff   0x18, 0x14       	MOVFF	r0x18, r0x14
0014a2   f014
0014a4   6a15     clrf    0x15, 0          	CLRF	r0x15
0014a6   6a16     clrf    0x16, 0          	CLRF	r0x16
                                           _01232_DS_:
0014a8   c013     movff   0x13, 0xf        	MOVFF	r0x13, r0x0f
0014aa   f00f
0014ac   c014     movff   0x14, 0x10       	MOVFF	r0x14, r0x10
0014ae   f010
0014b0   c015     movff   0x15, 0x11       	MOVFF	r0x15, r0x11
0014b2   f011
0014b4   c016     movff   0x16, 0x12       	MOVFF	r0x16, r0x12
0014b6   f012
                                           ;	.line	425; /dvpt/pinguino/git/pinguino-ide/pinguino/p8/pinguino/core/stdio.c	pc += pprinti(out, val, islong, 8, 0, width, pad, separator, 'a');
0014b8   0e61     movlw   0x61             	MOVLW	0x61
0014ba   6ee5     movwf   0xe5, 0          	MOVWF	POSTDEC1
0014bc   6ae5     clrf    0xe5, 0          	CLRF	POSTDEC1
0014be   500b     movf    0xb, 0, 0        	MOVF	r0x0b, W
0014c0   6ee5     movwf   0xe5, 0          	MOVWF	POSTDEC1
0014c2   500d     movf    0xd, 0, 0        	MOVF	r0x0d, W
0014c4   6ee5     movwf   0xe5, 0          	MOVWF	POSTDEC1
0014c6   6ae5     clrf    0xe5, 0          	CLRF	POSTDEC1
0014c8   0e08     movlw   0x8              	MOVLW	0x08
0014ca   6ee5     movwf   0xe5, 0          	MOVWF	POSTDEC1
0014cc   500c     movf    0xc, 0, 0        	MOVF	r0x0c, W
0014ce   6ee5     movwf   0xe5, 0          	MOVWF	POSTDEC1
0014d0   5012     movf    0x12, 0, 0       	MOVF	r0x12, W
0014d2   6ee5     movwf   0xe5, 0          	MOVWF	POSTDEC1
0014d4   5011     movf    0x11, 0, 0       	MOVF	r0x11, W
0014d6   6ee5     movwf   0xe5, 0          	MOVWF	POSTDEC1
0014d8   5010     movf    0x10, 0, 0       	MOVF	r0x10, W
0014da   6ee5     movwf   0xe5, 0          	MOVWF	POSTDEC1
0014dc   500f     movf    0xf, 0, 0        	MOVF	r0x0f, W
0014de   6ee5     movwf   0xe5, 0          	MOVWF	POSTDEC1
0014e0   5002     movf    0x2, 0, 0        	MOVF	r0x02, W
0014e2   6ee5     movwf   0xe5, 0          	MOVWF	POSTDEC1
0014e4   5001     movf    0x1, 0, 0        	MOVF	r0x01, W
0014e6   6ee5     movwf   0xe5, 0          	MOVWF	POSTDEC1
0014e8   5000     movf    0, 0, 0          	MOVF	r0x00, W
0014ea   6ee5     movwf   0xe5, 0          	MOVWF	POSTDEC1
0014ec   ecf9     call    0x1bf2, 0        	CALL	_pprinti
0014ee   f00d
0014f0   6e0c     movwf   0xc, 0           	MOVWF	r0x0c
0014f2   0e0e     movlw   0xe              	MOVLW	0x0e
0014f4   26e1     addwf   0xe1, 0x1, 0     	ADDWF	FSR1L, F
0014f6   500c     movf    0xc, 0, 0        	MOVF	r0x0c, W
0014f8   2609     addwf   0x9, 0x1, 0      	ADDWF	r0x09, F
                                           ;	.line	426; /dvpt/pinguino/git/pinguino-ide/pinguino/p8/pinguino/core/stdio.c	continue;
0014fa   d050     bra     0x159c           	BRA	_01203_DS_
                                           _01196_DS_:
                                           ;	.line	429; /dvpt/pinguino/git/pinguino-ide/pinguino/p8/pinguino/core/stdio.c	if (*format == 'c') 	// ascii
0014fc   500e     movf    0xe, 0, 0        	MOVF	r0x0e, W
0014fe   0a63     xorlw   0x63             	XORLW	0x63
001500   e001     bz      0x1504           	BZ	_01383_DS_
001502   d04c     bra     0x159c           	BRA	_01203_DS_
                                           _01383_DS_:
                                           ;	.line	431; /dvpt/pinguino/git/pinguino-ide/pinguino/p8/pinguino/core/stdio.c	scr[0] = va_arg(args, u16);
001504   5006     movf    0x6, 0, 0        	MOVF	r0x06, W
001506   0f02     addlw   0x2              	ADDLW	0x02
001508   6e0c     movwf   0xc, 0           	MOVWF	r0x0c
00150a   0e00     movlw   0                	MOVLW	0x00
00150c   2007     addwfc  0x7, 0, 0        	ADDWFC	r0x07, W
00150e   6e0e     movwf   0xe, 0           	MOVWF	r0x0e
001510   0e00     movlw   0                	MOVLW	0x00
001512   2008     addwfc  0x8, 0, 0        	ADDWFC	r0x08, W
001514   6e0f     movwf   0xf, 0           	MOVWF	r0x0f
001516   c00c     movff   0xc, 0x6         	MOVFF	r0x0c, r0x06
001518   f006
00151a   c00e     movff   0xe, 0x7         	MOVFF	r0x0e, r0x07
00151c   f007
00151e   c00f     movff   0xf, 0x8         	MOVFF	r0x0f, r0x08
001520   f008
001522   0efe     movlw   0xfe             	MOVLW	0xfe
001524   260c     addwf   0xc, 0x1, 0      	ADDWF	r0x0c, F
001526   0eff     movlw   0xff             	MOVLW	0xff
001528   220e     addwfc  0xe, 0x1, 0      	ADDWFC	r0x0e, F
00152a   220f     addwfc  0xf, 0x1, 0      	ADDWFC	r0x0f, F
                                           ; #	MOVF	r0x0f, W
                                           ; #	MOVWF	r0x0f
                                           ; #	MOVF	r0x0f, W
                                           ; #	MOVF	r0x0e, W
                                           ; #	MOVF	r0x0e, W
                                           ; #	MOVWF	r0x0e
                                           ; #	MOVF	r0x0e, W
                                           ; #	MOVF	r0x0c, W
                                           ; #	MOVF	r0x0c, W
                                           ; #	MOVWF	r0x0c
00152c   c00c     movff   0xc, 0xfe9       	MOVFF	r0x0c, FSR0L
00152e   ffe9
001530   c00e     movff   0xe, 0xff3       	MOVFF	r0x0e, PRODL
001532   fff3
001534   500f     movf    0xf, 0, 0        	MOVF	r0x0f, W
001536   ecea     call    0x4bd4, 0        	CALL	__gptrget2
001538   f025
00153a   0101     movlb   0x1              	BANKSEL	_pprint_scr_1_175
00153c   6f8a     movwf   0x8a, 0x1        	MOVWF	_pprint_scr_1_175, B
                                           ; removed redundant BANKSEL
                                           ;	.line	432; /dvpt/pinguino/git/pinguino-ide/pinguino/p8/pinguino/core/stdio.c	scr[1] = '\0';
00153e   6b8b     clrf    0x8b, 0x1        	CLRF	(_pprint_scr_1_175 + 1), B
                                           ;	.line	433; /dvpt/pinguino/git/pinguino-ide/pinguino/p8/pinguino/core/stdio.c	pc += pprints(out, scr, width, pad);
001540   500b     movf    0xb, 0, 0        	MOVF	r0x0b, W
001542   6ee5     movwf   0xe5, 0          	MOVWF	POSTDEC1
001544   500d     movf    0xd, 0, 0        	MOVF	r0x0d, W
001546   6ee5     movwf   0xe5, 0          	MOVWF	POSTDEC1
001548   0e80     movlw   0x80             	MOVLW	0x80
00154a   6ee5     movwf   0xe5, 0          	MOVWF	POSTDEC1
00154c   0e01     movlw   0x1              	MOVLW	HIGH(_pprint_scr_1_175)
00154e   6ee5     movwf   0xe5, 0          	MOVWF	POSTDEC1
001550   0e8a     movlw   0x8a             	MOVLW	LOW(_pprint_scr_1_175)
001552   6ee5     movwf   0xe5, 0          	MOVWF	POSTDEC1
001554   5002     movf    0x2, 0, 0        	MOVF	r0x02, W
001556   6ee5     movwf   0xe5, 0          	MOVWF	POSTDEC1
001558   5001     movf    0x1, 0, 0        	MOVF	r0x01, W
00155a   6ee5     movwf   0xe5, 0          	MOVWF	POSTDEC1
00155c   5000     movf    0, 0, 0          	MOVF	r0x00, W
00155e   6ee5     movwf   0xe5, 0          	MOVWF	POSTDEC1
001560   ec4a     call    0x2c94, 0        	CALL	_pprints
001562   f016
001564   6e0b     movwf   0xb, 0           	MOVWF	r0x0b
001566   0e08     movlw   0x8              	MOVLW	0x08
001568   26e1     addwf   0xe1, 0x1, 0     	ADDWF	FSR1L, F
00156a   5009     movf    0x9, 0, 0        	MOVF	r0x09, W
00156c   6e0c     movwf   0xc, 0           	MOVWF	r0x0c
00156e   500b     movf    0xb, 0, 0        	MOVF	r0x0b, W
001570   240c     addwf   0xc, 0, 0        	ADDWF	r0x0c, W
001572   6e09     movwf   0x9, 0           	MOVWF	r0x09
                                           ;	.line	434; /dvpt/pinguino/git/pinguino-ide/pinguino/p8/pinguino/core/stdio.c	continue;
001574   d013     bra     0x159c           	BRA	_01203_DS_
                                           _01199_DS_:
                                           ;	.line	441; /dvpt/pinguino/git/pinguino-ide/pinguino/p8/pinguino/core/stdio.c	pprintc(out, *format);
001576   c003     movff   0x3, 0xfe9       	MOVFF	r0x03, FSR0L
001578   ffe9
00157a   c004     movff   0x4, 0xff3       	MOVFF	r0x04, PRODL
00157c   fff3
00157e   5005     movf    0x5, 0, 0        	MOVF	r0x05, W
001580   ec4b     call    0x4c96, 0        	CALL	__gptrget1
001582   f026
                                           ; #	MOVWF	r0x0b
                                           ; #	MOVF	r0x0b, W
001584   6ee5     movwf   0xe5, 0          	MOVWF	POSTDEC1
001586   5002     movf    0x2, 0, 0        	MOVF	r0x02, W
001588   6ee5     movwf   0xe5, 0          	MOVWF	POSTDEC1
00158a   5001     movf    0x1, 0, 0        	MOVF	r0x01, W
00158c   6ee5     movwf   0xe5, 0          	MOVWF	POSTDEC1
00158e   5000     movf    0, 0, 0          	MOVF	r0x00, W
001590   6ee5     movwf   0xe5, 0          	MOVWF	POSTDEC1
001592   ecfe     call    0x39fc, 0        	CALL	_pprintc
001594   f01c
001596   0e04     movlw   0x4              	MOVLW	0x04
001598   26e1     addwf   0xe1, 0x1, 0     	ADDWF	FSR1L, F
                                           ;	.line	442; /dvpt/pinguino/git/pinguino-ide/pinguino/p8/pinguino/core/stdio.c	++pc;
00159a   2a09     incf    0x9, 0x1, 0      	INCF	r0x09, F
                                           _01203_DS_:
                                           ;	.line	315; /dvpt/pinguino/git/pinguino-ide/pinguino/p8/pinguino/core/stdio.c	for (; *format != 0; ++format)
00159c   2a03     incf    0x3, 0x1, 0      	INCF	r0x03, F
00159e   e302     bnc     0x15a4           	BNC	_01384_DS_
0015a0   4a04     infsnz  0x4, 0x1, 0      	INFSNZ	r0x04, F
0015a2   2a05     incf    0x5, 0x1, 0      	INCF	r0x05, F
                                           _01384_DS_:
0015a4   ef64     goto    0xcc8            	GOTO	_01216_DS_
0015a6   f006
                                           _01204_DS_:
                                           ;	.line	445; /dvpt/pinguino/git/pinguino-ide/pinguino/p8/pinguino/core/stdio.c	if (out) **out = '\0';
0015a8   5000     movf    0, 0, 0          	MOVF	r0x00, W
0015aa   1001     iorwf   0x1, 0, 0        	IORWF	r0x01, W
0015ac   1002     iorwf   0x2, 0, 0        	IORWF	r0x02, W
0015ae   e014     bz      0x15d8           	BZ	_01206_DS_
0015b0   c000     movff   0, 0xfe9         	MOVFF	r0x00, FSR0L
0015b2   ffe9
0015b4   c001     movff   0x1, 0xff3       	MOVFF	r0x01, PRODL
0015b6   fff3
0015b8   5002     movf    0x2, 0, 0        	MOVF	r0x02, W
0015ba   ecfe     call    0x49fc, 0        	CALL	__gptrget3
0015bc   f024
0015be   6e00     movwf   0, 0             	MOVWF	r0x00
0015c0   cff3     movff   0xff3, 0x1       	MOVFF	PRODL, r0x01
0015c2   f001
0015c4   cff4     movff   0xff4, 0x2       	MOVFF	PRODH, r0x02
0015c6   f002
0015c8   6ae5     clrf    0xe5, 0          	CLRF	POSTDEC1
0015ca   c000     movff   0, 0xfe9         	MOVFF	r0x00, FSR0L
0015cc   ffe9
0015ce   c001     movff   0x1, 0xff3       	MOVFF	r0x01, PRODL
0015d0   fff3
0015d2   5002     movf    0x2, 0, 0        	MOVF	r0x02, W
0015d4   ec78     call    0x4cf0, 0        	CALL	__gptrput1
0015d6   f026
                                           _01206_DS_:
                                           ;	.line	446; /dvpt/pinguino/git/pinguino-ide/pinguino/p8/pinguino/core/stdio.c	return pc;
0015d8   5009     movf    0x9, 0, 0        	MOVF	r0x09, W
0015da   cfe4     movff   0xfe4, 0x19      	MOVFF	PREINC1, r0x19
0015dc   f019
0015de   cfe4     movff   0xfe4, 0x18      	MOVFF	PREINC1, r0x18
0015e0   f018
0015e2   cfe4     movff   0xfe4, 0x17      	MOVFF	PREINC1, r0x17
0015e4   f017
0015e6   cfe4     movff   0xfe4, 0x16      	MOVFF	PREINC1, r0x16
0015e8   f016
0015ea   cfe4     movff   0xfe4, 0x15      	MOVFF	PREINC1, r0x15
0015ec   f015
0015ee   cfe4     movff   0xfe4, 0x14      	MOVFF	PREINC1, r0x14
0015f0   f014
0015f2   cfe4     movff   0xfe4, 0x13      	MOVFF	PREINC1, r0x13
0015f4   f013
0015f6   cfe4     movff   0xfe4, 0x12      	MOVFF	PREINC1, r0x12
0015f8   f012
0015fa   cfe4     movff   0xfe4, 0x11      	MOVFF	PREINC1, r0x11
0015fc   f011
0015fe   cfe4     movff   0xfe4, 0x10      	MOVFF	PREINC1, r0x10
001600   f010
001602   cfe4     movff   0xfe4, 0xf       	MOVFF	PREINC1, r0x0f
001604   f00f
001606   cfe4     movff   0xfe4, 0xe       	MOVFF	PREINC1, r0x0e
001608   f00e
00160a   cfe4     movff   0xfe4, 0xd       	MOVFF	PREINC1, r0x0d
00160c   f00d
00160e   cfe4     movff   0xfe4, 0xc       	MOVFF	PREINC1, r0x0c
001610   f00c
001612   cfe4     movff   0xfe4, 0xb       	MOVFF	PREINC1, r0x0b
001614   f00b
001616   cfe4     movff   0xfe4, 0xa       	MOVFF	PREINC1, r0x0a
001618   f00a
00161a   cfe4     movff   0xfe4, 0x9       	MOVFF	PREINC1, r0x09
00161c   f009
00161e   cfe4     movff   0xfe4, 0x8       	MOVFF	PREINC1, r0x08
001620   f008
001622   cfe4     movff   0xfe4, 0x7       	MOVFF	PREINC1, r0x07
001624   f007
001626   cfe4     movff   0xfe4, 0x6       	MOVFF	PREINC1, r0x06
001628   f006
00162a   cfe4     movff   0xfe4, 0x5       	MOVFF	PREINC1, r0x05
00162c   f005
00162e   cfe4     movff   0xfe4, 0x4       	MOVFF	PREINC1, r0x04
001630   f004
001632   cfe4     movff   0xfe4, 0x3       	MOVFF	PREINC1, r0x03
001634   f003
001636   cfe4     movff   0xfe4, 0x2       	MOVFF	PREINC1, r0x02
001638   f002
00163a   cfe4     movff   0xfe4, 0x1       	MOVFF	PREINC1, r0x01
00163c   f001
00163e   cfe4     movff   0xfe4, 0         	MOVFF	PREINC1, r0x00
001640   f000
001642   cfe4     movff   0xfe4, 0xfd9     	MOVFF	PREINC1, FSR2L
001644   ffd9
001646   0012     return  0                	RETURN	
                                           
                                           ; ; Starting pCode block
                                           S_main__pprintfl	code
                                           _pprintfl:
                                           ;	.line	175; /dvpt/pinguino/git/pinguino-ide/pinguino/p8/pinguino/core/stdio.c	static u8 pprintfl(u8 **out, float value, u8 width, u8 pad, u8 separator, u8 precision)
001648   cfd9     movff   0xfd9, 0xfe5     	MOVFF	FSR2L, POSTDEC1
00164a   ffe5
00164c   cfe1     movff   0xfe1, 0xfd9     	MOVFF	FSR1L, FSR2L
00164e   ffd9
001650   c000     movff   0, 0xfe5         	MOVFF	r0x00, POSTDEC1
001652   ffe5
001654   c001     movff   0x1, 0xfe5       	MOVFF	r0x01, POSTDEC1
001656   ffe5
001658   c002     movff   0x2, 0xfe5       	MOVFF	r0x02, POSTDEC1
00165a   ffe5
00165c   c003     movff   0x3, 0xfe5       	MOVFF	r0x03, POSTDEC1
00165e   ffe5
001660   c004     movff   0x4, 0xfe5       	MOVFF	r0x04, POSTDEC1
001662   ffe5
001664   c005     movff   0x5, 0xfe5       	MOVFF	r0x05, POSTDEC1
001666   ffe5
001668   c006     movff   0x6, 0xfe5       	MOVFF	r0x06, POSTDEC1
00166a   ffe5
00166c   c007     movff   0x7, 0xfe5       	MOVFF	r0x07, POSTDEC1
00166e   ffe5
001670   c008     movff   0x8, 0xfe5       	MOVFF	r0x08, POSTDEC1
001672   ffe5
001674   c009     movff   0x9, 0xfe5       	MOVFF	r0x09, POSTDEC1
001676   ffe5
001678   c00a     movff   0xa, 0xfe5       	MOVFF	r0x0a, POSTDEC1
00167a   ffe5
00167c   c00b     movff   0xb, 0xfe5       	MOVFF	r0x0b, POSTDEC1
00167e   ffe5
001680   c00c     movff   0xc, 0xfe5       	MOVFF	r0x0c, POSTDEC1
001682   ffe5
001684   c00d     movff   0xd, 0xfe5       	MOVFF	r0x0d, POSTDEC1
001686   ffe5
001688   c00e     movff   0xe, 0xfe5       	MOVFF	r0x0e, POSTDEC1
00168a   ffe5
00168c   c00f     movff   0xf, 0xfe5       	MOVFF	r0x0f, POSTDEC1
00168e   ffe5
001690   c010     movff   0x10, 0xfe5      	MOVFF	r0x10, POSTDEC1
001692   ffe5
001694   c011     movff   0x11, 0xfe5      	MOVFF	r0x11, POSTDEC1
001696   ffe5
001698   c012     movff   0x12, 0xfe5      	MOVFF	r0x12, POSTDEC1
00169a   ffe5
00169c   c013     movff   0x13, 0xfe5      	MOVFF	r0x13, POSTDEC1
00169e   ffe5
0016a0   c014     movff   0x14, 0xfe5      	MOVFF	r0x14, POSTDEC1
0016a2   ffe5
0016a4   c015     movff   0x15, 0xfe5      	MOVFF	r0x15, POSTDEC1
0016a6   ffe5
0016a8   c016     movff   0x16, 0xfe5      	MOVFF	r0x16, POSTDEC1
0016aa   ffe5
0016ac   c017     movff   0x17, 0xfe5      	MOVFF	r0x17, POSTDEC1
0016ae   ffe5
0016b0   c018     movff   0x18, 0xfe5      	MOVFF	r0x18, POSTDEC1
0016b2   ffe5
0016b4   c019     movff   0x19, 0xfe5      	MOVFF	r0x19, POSTDEC1
0016b6   ffe5
0016b8   c01a     movff   0x1a, 0xfe5      	MOVFF	r0x1a, POSTDEC1
0016ba   ffe5
0016bc   c01b     movff   0x1b, 0xfe5      	MOVFF	r0x1b, POSTDEC1
0016be   ffe5
0016c0   c01c     movff   0x1c, 0xfe5      	MOVFF	r0x1c, POSTDEC1
0016c2   ffe5
0016c4   c01d     movff   0x1d, 0xfe5      	MOVFF	r0x1d, POSTDEC1
0016c6   ffe5
0016c8   c01e     movff   0x1e, 0xfe5      	MOVFF	r0x1e, POSTDEC1
0016ca   ffe5
0016cc   c01f     movff   0x1f, 0xfe5      	MOVFF	r0x1f, POSTDEC1
0016ce   ffe5
0016d0   c020     movff   0x20, 0xfe5      	MOVFF	r0x20, POSTDEC1
0016d2   ffe5
0016d4   0e02     movlw   0x2              	MOVLW	0x02
0016d6   cfdb     movff   0xfdb, 0         	MOVFF	PLUSW2, r0x00
0016d8   f000
0016da   0e03     movlw   0x3              	MOVLW	0x03
0016dc   cfdb     movff   0xfdb, 0x1       	MOVFF	PLUSW2, r0x01
0016de   f001
0016e0   0e04     movlw   0x4              	MOVLW	0x04
0016e2   cfdb     movff   0xfdb, 0x2       	MOVFF	PLUSW2, r0x02
0016e4   f002
0016e6   0e05     movlw   0x5              	MOVLW	0x05
0016e8   cfdb     movff   0xfdb, 0x3       	MOVFF	PLUSW2, r0x03
0016ea   f003
0016ec   0e06     movlw   0x6              	MOVLW	0x06
0016ee   cfdb     movff   0xfdb, 0x4       	MOVFF	PLUSW2, r0x04
0016f0   f004
0016f2   0e07     movlw   0x7              	MOVLW	0x07
0016f4   cfdb     movff   0xfdb, 0x5       	MOVFF	PLUSW2, r0x05
0016f6   f005
0016f8   0e08     movlw   0x8              	MOVLW	0x08
0016fa   cfdb     movff   0xfdb, 0x6       	MOVFF	PLUSW2, r0x06
0016fc   f006
0016fe   0e09     movlw   0x9              	MOVLW	0x09
001700   cfdb     movff   0xfdb, 0x7       	MOVFF	PLUSW2, r0x07
001702   f007
001704   0e0a     movlw   0xa              	MOVLW	0x0a
001706   cfdb     movff   0xfdb, 0x8       	MOVFF	PLUSW2, r0x08
001708   f008
00170a   0e0c     movlw   0xc              	MOVLW	0x0c
00170c   cfdb     movff   0xfdb, 0x9       	MOVFF	PLUSW2, r0x09
00170e   f009
                                           ;	.line	184; /dvpt/pinguino/git/pinguino-ide/pinguino/p8/pinguino/core/stdio.c	u32 int_part  = 0;
001710   6a0a     clrf    0xa, 0           	CLRF	r0x0a
001712   6a0b     clrf    0xb, 0           	CLRF	r0x0b
001714   6a0c     clrf    0xc, 0           	CLRF	r0x0c
001716   6a0d     clrf    0xd, 0           	CLRF	r0x0d
                                           ;	.line	185; /dvpt/pinguino/git/pinguino-ide/pinguino/p8/pinguino/core/stdio.c	u32 frac_part = 0;
001718   6a0e     clrf    0xe, 0           	CLRF	r0x0e
00171a   6a0f     clrf    0xf, 0           	CLRF	r0x0f
00171c   6a10     clrf    0x10, 0          	CLRF	r0x10
00171e   6a11     clrf    0x11, 0          	CLRF	r0x11
                                           ;	.line	187; /dvpt/pinguino/git/pinguino-ide/pinguino/p8/pinguino/core/stdio.c	u8 buffer[PRINT_BUF_LEN], *string = buffer;
001720   0e01     movlw   0x1              	MOVLW	HIGH(_pprintfl_buffer_1_161)
001722   6e13     movwf   0x13, 0          	MOVWF	r0x13
001724   0e4c     movlw   0x4c             	MOVLW	LOW(_pprintfl_buffer_1_161)
001726   6e12     movwf   0x12, 0          	MOVWF	r0x12
001728   0e80     movlw   0x80             	MOVLW	0x80
00172a   6e14     movwf   0x14, 0          	MOVWF	r0x14
                                           ;	.line	188; /dvpt/pinguino/git/pinguino-ide/pinguino/p8/pinguino/core/stdio.c	u8 tmp[PRINT_BUF_LEN], *s = tmp;
00172c   0e01     movlw   0x1              	MOVLW	HIGH(_pprintfl_tmp_1_161)
00172e   6e16     movwf   0x16, 0          	MOVWF	r0x16
001730   0e58     movlw   0x58             	MOVLW	LOW(_pprintfl_tmp_1_161)
001732   6e15     movwf   0x15, 0          	MOVWF	r0x15
001734   0e80     movlw   0x80             	MOVLW	0x80
001736   6e17     movwf   0x17, 0          	MOVWF	r0x17
                                           ;	.line	189; /dvpt/pinguino/git/pinguino-ide/pinguino/p8/pinguino/core/stdio.c	u8 count = 0, m, t;
001738   6a18     clrf    0x18, 0          	CLRF	r0x18
                                           ;	.line	190; /dvpt/pinguino/git/pinguino-ide/pinguino/p8/pinguino/core/stdio.c	u8 length = PRINT_BUF_LEN - 1;
00173a   0e0b     movlw   0xb              	MOVLW	0x0b
00173c   6e19     movwf   0x19, 0          	MOVWF	r0x19
                                           ;	.line	192; /dvpt/pinguino/git/pinguino-ide/pinguino/p8/pinguino/core/stdio.c	helper.f = value;
00173e   5003     movf    0x3, 0, 0        	MOVF	r0x03, W
001740   0101     movlb   0x1              	BANKSEL	_pprintfl_helper_1_161
001742   6f78     movwf   0x78, 0x1        	MOVWF	_pprintfl_helper_1_161, B
001744   5004     movf    0x4, 0, 0        	MOVF	r0x04, W
                                           ; removed redundant BANKSEL
001746   6f79     movwf   0x79, 0x1        	MOVWF	(_pprintfl_helper_1_161 + 1), B
001748   5005     movf    0x5, 0, 0        	MOVF	r0x05, W
                                           ; removed redundant BANKSEL
00174a   6f7a     movwf   0x7a, 0x1        	MOVWF	(_pprintfl_helper_1_161 + 2), B
00174c   5006     movf    0x6, 0, 0        	MOVF	r0x06, W
                                           ; removed redundant BANKSEL
00174e   6f7b     movwf   0x7b, 0x1        	MOVWF	(_pprintfl_helper_1_161 + 3), B
                                           ;	.line	195; /dvpt/pinguino/git/pinguino-ide/pinguino/p8/pinguino/core/stdio.c	if (helper.l < 0)
001750   80d8     bsf     0xd8, 0, 0       	BSF	STATUS, 0
                                           ; removed redundant BANKSEL
001752   af7b     btfss   0x7b, 0x7, 0x1   	BTFSS	(_pprintfl_helper_1_161 + 3), 7, B
001754   90d8     bcf     0xd8, 0, 0       	BCF	STATUS, 0
001756   e323     bnc     0x179e           	BNC	_01040_DS_
                                           ;	.line	197; /dvpt/pinguino/git/pinguino-ide/pinguino/p8/pinguino/core/stdio.c	if (width && (pad & PAD_ZERO))
001758   5007     movf    0x7, 0, 0        	MOVF	r0x07, W
00175a   e012     bz      0x1780           	BZ	_01036_DS_
00175c   a208     btfss   0x8, 0x1, 0      	BTFSS	r0x08, 1
00175e   d010     bra     0x1780           	BRA	_01036_DS_
                                           ;	.line	199; /dvpt/pinguino/git/pinguino-ide/pinguino/p8/pinguino/core/stdio.c	pprintc(out, '-');
001760   0e2d     movlw   0x2d             	MOVLW	0x2d
001762   6ee5     movwf   0xe5, 0          	MOVWF	POSTDEC1
001764   5002     movf    0x2, 0, 0        	MOVF	r0x02, W
001766   6ee5     movwf   0xe5, 0          	MOVWF	POSTDEC1
001768   5001     movf    0x1, 0, 0        	MOVF	r0x01, W
00176a   6ee5     movwf   0xe5, 0          	MOVWF	POSTDEC1
00176c   5000     movf    0, 0, 0          	MOVF	r0x00, W
00176e   6ee5     movwf   0xe5, 0          	MOVWF	POSTDEC1
001770   ecfe     call    0x39fc, 0        	CALL	_pprintc
001772   f01c
001774   0e04     movlw   0x4              	MOVLW	0x04
001776   26e1     addwf   0xe1, 0x1, 0     	ADDWF	FSR1L, F
                                           ;	.line	200; /dvpt/pinguino/git/pinguino-ide/pinguino/p8/pinguino/core/stdio.c	++count;
001778   0e01     movlw   0x1              	MOVLW	0x01
00177a   6e18     movwf   0x18, 0          	MOVWF	r0x18
                                           ;	.line	201; /dvpt/pinguino/git/pinguino-ide/pinguino/p8/pinguino/core/stdio.c	--width;
00177c   0607     decf    0x7, 0x1, 0      	DECF	r0x07, F
00177e   d00f     bra     0x179e           	BRA	_01040_DS_
                                           _01036_DS_:
                                           ;	.line	205; /dvpt/pinguino/git/pinguino-ide/pinguino/p8/pinguino/core/stdio.c	*string++ = '-';
001780   0e2d     movlw   0x2d             	MOVLW	0x2d
001782   6ee5     movwf   0xe5, 0          	MOVWF	POSTDEC1
001784   c012     movff   0x12, 0xfe9      	MOVFF	r0x12, FSR0L
001786   ffe9
001788   c013     movff   0x13, 0xff3      	MOVFF	r0x13, PRODL
00178a   fff3
00178c   5014     movf    0x14, 0, 0       	MOVF	r0x14, W
00178e   ec78     call    0x4cf0, 0        	CALL	__gptrput1
001790   f026
001792   2a12     incf    0x12, 0x1, 0     	INCF	r0x12, F
001794   e302     bnc     0x179a           	BNC	_01124_DS_
001796   4a13     infsnz  0x13, 0x1, 0     	INFSNZ	r0x13, F
001798   2a14     incf    0x14, 0x1, 0     	INCF	r0x14, F
                                           _01124_DS_:
                                           ;	.line	206; /dvpt/pinguino/git/pinguino-ide/pinguino/p8/pinguino/core/stdio.c	length--;
00179a   0e0a     movlw   0xa              	MOVLW	0x0a
00179c   6e19     movwf   0x19, 0          	MOVWF	r0x19
                                           _01040_DS_:
00179e   0101     movlb   0x1              	BANKSEL	(_pprintfl_helper_1_161 + 2)
                                           ;	.line	212; /dvpt/pinguino/git/pinguino-ide/pinguino/p8/pinguino/core/stdio.c	exponent = ((helper.l >> 23) & 0xFF) - 127;	
0017a0   357a     rlcf    0x7a, 0, 0x1     	RLCF	(_pprintfl_helper_1_161 + 2), W, B
                                           ; removed redundant BANKSEL
0017a2   357b     rlcf    0x7b, 0, 0x1     	RLCF	(_pprintfl_helper_1_161 + 3), W, B
0017a4   6e03     movwf   0x3, 0           	MOVWF	r0x03
0017a6   6a04     clrf    0x4, 0           	CLRF	r0x04
0017a8   0e81     movlw   0x81             	MOVLW	0x81
0017aa   2603     addwf   0x3, 0x1, 0      	ADDWF	r0x03, F
                                           ; removed redundant BANKSEL
                                           ;	.line	215; /dvpt/pinguino/git/pinguino-ide/pinguino/p8/pinguino/core/stdio.c	mantissa = (helper.l & 0x7FFFFF) | 0x800000;
0017ac   5178     movf    0x78, 0, 0x1     	MOVF	_pprintfl_helper_1_161, W, B
0017ae   6e04     movwf   0x4, 0           	MOVWF	r0x04
                                           ; removed redundant BANKSEL
0017b0   5179     movf    0x79, 0, 0x1     	MOVF	(_pprintfl_helper_1_161 + 1), W, B
0017b2   6e05     movwf   0x5, 0           	MOVWF	r0x05
0017b4   0e7f     movlw   0x7f             	MOVLW	0x7f
                                           ; removed redundant BANKSEL
0017b6   157a     andwf   0x7a, 0, 0x1     	ANDWF	(_pprintfl_helper_1_161 + 2), W, B
0017b8   6e06     movwf   0x6, 0           	MOVWF	r0x06
0017ba   6a1a     clrf    0x1a, 0          	CLRF	r0x1a
0017bc   8e06     bsf     0x6, 0x7, 0      	BSF	r0x06, 7
                                           ;	.line	217; /dvpt/pinguino/git/pinguino-ide/pinguino/p8/pinguino/core/stdio.c	if ( (exponent >= 31) || (exponent < -23) )
0017be   5003     movf    0x3, 0, 0        	MOVF	r0x03, W
0017c0   0f80     addlw   0x80             	ADDLW	0x80
0017c2   0f61     addlw   0x61             	ADDLW	0x61
0017c4   e204     bc      0x17ce           	BC	_01047_DS_
0017c6   5003     movf    0x3, 0, 0        	MOVF	r0x03, W
0017c8   0f80     addlw   0x80             	ADDLW	0x80
0017ca   0f97     addlw   0x97             	ADDLW	0x97
0017cc   e21f     bc      0x180c           	BC	_01048_DS_
                                           _01047_DS_:
                                           ;	.line	219; /dvpt/pinguino/git/pinguino-ide/pinguino/p8/pinguino/core/stdio.c	buffer[0] = 'i';
0017ce   0e69     movlw   0x69             	MOVLW	0x69
0017d0   0101     movlb   0x1              	BANKSEL	_pprintfl_buffer_1_161
0017d2   6f4c     movwf   0x4c, 0x1        	MOVWF	_pprintfl_buffer_1_161, B
                                           ;	.line	220; /dvpt/pinguino/git/pinguino-ide/pinguino/p8/pinguino/core/stdio.c	buffer[1] = 'n';
0017d4   0e6e     movlw   0x6e             	MOVLW	0x6e
                                           ; removed redundant BANKSEL
0017d6   6f4d     movwf   0x4d, 0x1        	MOVWF	(_pprintfl_buffer_1_161 + 1), B
                                           ;	.line	221; /dvpt/pinguino/git/pinguino-ide/pinguino/p8/pinguino/core/stdio.c	buffer[2] = 'f';
0017d8   0e66     movlw   0x66             	MOVLW	0x66
                                           ; removed redundant BANKSEL
0017da   6f4e     movwf   0x4e, 0x1        	MOVWF	(_pprintfl_buffer_1_161 + 2), B
                                           ; removed redundant BANKSEL
                                           ;	.line	222; /dvpt/pinguino/git/pinguino-ide/pinguino/p8/pinguino/core/stdio.c	buffer[3] = '\0';
0017dc   6b4f     clrf    0x4f, 0x1        	CLRF	(_pprintfl_buffer_1_161 + 3), B
                                           ;	.line	223; /dvpt/pinguino/git/pinguino-ide/pinguino/p8/pinguino/core/stdio.c	return pprints(out, buffer, width, pad);
0017de   5008     movf    0x8, 0, 0        	MOVF	r0x08, W
0017e0   6ee5     movwf   0xe5, 0          	MOVWF	POSTDEC1
0017e2   5007     movf    0x7, 0, 0        	MOVF	r0x07, W
0017e4   6ee5     movwf   0xe5, 0          	MOVWF	POSTDEC1
0017e6   0e80     movlw   0x80             	MOVLW	0x80
0017e8   6ee5     movwf   0xe5, 0          	MOVWF	POSTDEC1
0017ea   0e01     movlw   0x1              	MOVLW	HIGH(_pprintfl_buffer_1_161)
0017ec   6ee5     movwf   0xe5, 0          	MOVWF	POSTDEC1
0017ee   0e4c     movlw   0x4c             	MOVLW	LOW(_pprintfl_buffer_1_161)
0017f0   6ee5     movwf   0xe5, 0          	MOVWF	POSTDEC1
0017f2   5002     movf    0x2, 0, 0        	MOVF	r0x02, W
0017f4   6ee5     movwf   0xe5, 0          	MOVWF	POSTDEC1
0017f6   5001     movf    0x1, 0, 0        	MOVF	r0x01, W
0017f8   6ee5     movwf   0xe5, 0          	MOVWF	POSTDEC1
0017fa   5000     movf    0, 0, 0          	MOVF	r0x00, W
0017fc   6ee5     movwf   0xe5, 0          	MOVWF	POSTDEC1
0017fe   ec4a     call    0x2c94, 0        	CALL	_pprints
001800   f016
001802   6e1b     movwf   0x1b, 0          	MOVWF	r0x1b
001804   0e08     movlw   0x8              	MOVLW	0x08
001806   26e1     addwf   0xe1, 0x1, 0     	ADDWF	FSR1L, F
001808   501b     movf    0x1b, 0, 0       	MOVF	r0x1b, W
00180a   d1ae     bra     0x1b68           	BRA	_01070_DS_
                                           _01048_DS_:
                                           ;	.line	225; /dvpt/pinguino/git/pinguino-ide/pinguino/p8/pinguino/core/stdio.c	else if (exponent >= 23)
00180c   5003     movf    0x3, 0, 0        	MOVF	r0x03, W
00180e   0f80     addlw   0x80             	ADDLW	0x80
001810   0f69     addlw   0x69             	ADDLW	0x69
001812   e325     bnc     0x185e           	BNC	_01045_DS_
                                           ;	.line	227; /dvpt/pinguino/git/pinguino-ide/pinguino/p8/pinguino/core/stdio.c	int_part = mantissa << (exponent - 23);
001814   c003     movff   0x3, 0x1b        	MOVFF	r0x03, r0x1b
001816   f01b
001818   6a1c     clrf    0x1c, 0          	CLRF	r0x1c
00181a   be03     btfsc   0x3, 0x7, 0      	BTFSC	r0x03, 7
00181c   681c     setf    0x1c, 0          	SETF	r0x1c
00181e   0ee9     movlw   0xe9             	MOVLW	0xe9
001820   261b     addwf   0x1b, 0x1, 0     	ADDWF	r0x1b, F
001822   a0d8     btfss   0xd8, 0, 0       	BTFSS	STATUS, 0
001824   061c     decf    0x1c, 0x1, 0     	DECF	r0x1c, F
001826   c004     movff   0x4, 0xa         	MOVFF	r0x04, r0x0a
001828   f00a
00182a   c005     movff   0x5, 0xb         	MOVFF	r0x05, r0x0b
00182c   f00b
00182e   c006     movff   0x6, 0xc         	MOVFF	r0x06, r0x0c
001830   f00c
001832   c01a     movff   0x1a, 0xd        	MOVFF	r0x1a, r0x0d
001834   f00d
001836   501b     movf    0x1b, 0, 0       	MOVF	r0x1b, W
001838   e011     bz      0x185c           	BZ	_01131_DS_
00183a   e609     bn      0x184e           	BN	_01134_DS_
00183c   6ce8     negf    0xe8, 0          	NEGF	WREG
00183e   90d8     bcf     0xd8, 0, 0       	BCF	STATUS, 0
                                           _01132_DS_:
001840   360a     rlcf    0xa, 0x1, 0      	RLCF	r0x0a, F
001842   360b     rlcf    0xb, 0x1, 0      	RLCF	r0x0b, F
001844   360c     rlcf    0xc, 0x1, 0      	RLCF	r0x0c, F
001846   360d     rlcf    0xd, 0x1, 0      	RLCF	r0x0d, F
001848   0f01     addlw   0x1              	ADDLW	0x01
00184a   e3fa     bnc     0x1840           	BNC	_01132_DS_
00184c   d07c     bra     0x1946           	BRA	_01049_DS_
                                           _01134_DS_:
00184e   90d8     bcf     0xd8, 0, 0       	BCF	STATUS, 0
                                           _01133_DS_:
001850   320d     rrcf    0xd, 0x1, 0      	RRCF	r0x0d, F
001852   320c     rrcf    0xc, 0x1, 0      	RRCF	r0x0c, F
001854   320b     rrcf    0xb, 0x1, 0      	RRCF	r0x0b, F
001856   320a     rrcf    0xa, 0x1, 0      	RRCF	r0x0a, F
001858   0f01     addlw   0x1              	ADDLW	0x01
00185a   e3fa     bnc     0x1850           	BNC	_01133_DS_
                                           _01131_DS_:
00185c   d074     bra     0x1946           	BRA	_01049_DS_
                                           _01045_DS_:
                                           ;	.line	229; /dvpt/pinguino/git/pinguino-ide/pinguino/p8/pinguino/core/stdio.c	else if (exponent >= 0) 
00185e   80d8     bsf     0xd8, 0, 0       	BSF	STATUS, 0
001860   ae03     btfss   0x3, 0x7, 0      	BTFSS	r0x03, 7
001862   90d8     bcf     0xd8, 0, 0       	BCF	STATUS, 0
001864   b0d8     btfsc   0xd8, 0, 0       	BTFSC	STATUS, 0
001866   d04a     bra     0x18fc           	BRA	_01042_DS_
                                           ;	.line	231; /dvpt/pinguino/git/pinguino-ide/pinguino/p8/pinguino/core/stdio.c	int_part = mantissa >> (23 - exponent);
001868   c003     movff   0x3, 0x1b        	MOVFF	r0x03, r0x1b
00186a   f01b
00186c   6a1c     clrf    0x1c, 0          	CLRF	r0x1c
00186e   be03     btfsc   0x3, 0x7, 0      	BTFSC	r0x03, 7
001870   681c     setf    0x1c, 0          	SETF	r0x1c
001872   501b     movf    0x1b, 0, 0       	MOVF	r0x1b, W
001874   0817     sublw   0x17             	SUBLW	0x17
001876   6e1d     movwf   0x1d, 0          	MOVWF	r0x1d
001878   0e00     movlw   0                	MOVLW	0x00
00187a   541c     subfwb  0x1c, 0, 0       	SUBFWB	r0x1c, W
00187c   c004     movff   0x4, 0xa         	MOVFF	r0x04, r0x0a
00187e   f00a
001880   c005     movff   0x5, 0xb         	MOVFF	r0x05, r0x0b
001882   f00b
001884   c006     movff   0x6, 0xc         	MOVFF	r0x06, r0x0c
001886   f00c
001888   c01a     movff   0x1a, 0xd        	MOVFF	r0x1a, r0x0d
00188a   f00d
00188c   501d     movf    0x1d, 0, 0       	MOVF	r0x1d, W
00188e   e011     bz      0x18b2           	BZ	_01135_DS_
001890   e609     bn      0x18a4           	BN	_01138_DS_
001892   6ce8     negf    0xe8, 0          	NEGF	WREG
001894   90d8     bcf     0xd8, 0, 0       	BCF	STATUS, 0
                                           _01136_DS_:
001896   320d     rrcf    0xd, 0x1, 0      	RRCF	r0x0d, F
001898   320c     rrcf    0xc, 0x1, 0      	RRCF	r0x0c, F
00189a   320b     rrcf    0xb, 0x1, 0      	RRCF	r0x0b, F
00189c   320a     rrcf    0xa, 0x1, 0      	RRCF	r0x0a, F
00189e   0f01     addlw   0x1              	ADDLW	0x01
0018a0   e3fa     bnc     0x1896           	BNC	_01136_DS_
0018a2   d007     bra     0x18b2           	BRA	_01135_DS_
                                           _01138_DS_:
0018a4   90d8     bcf     0xd8, 0, 0       	BCF	STATUS, 0
                                           _01137_DS_:
0018a6   360a     rlcf    0xa, 0x1, 0      	RLCF	r0x0a, F
0018a8   360b     rlcf    0xb, 0x1, 0      	RLCF	r0x0b, F
0018aa   360c     rlcf    0xc, 0x1, 0      	RLCF	r0x0c, F
0018ac   360d     rlcf    0xd, 0x1, 0      	RLCF	r0x0d, F
0018ae   0f01     addlw   0x1              	ADDLW	0x01
0018b0   e3fa     bnc     0x18a6           	BNC	_01137_DS_
                                           _01135_DS_:
                                           ;	.line	232; /dvpt/pinguino/git/pinguino-ide/pinguino/p8/pinguino/core/stdio.c	frac_part = (mantissa << (exponent + 1)) & 0xFFFFFF; // mfh
0018b2   4a1b     infsnz  0x1b, 0x1, 0     	INFSNZ	r0x1b, F
0018b4   2a1c     incf    0x1c, 0x1, 0     	INCF	r0x1c, F
0018b6   c004     movff   0x4, 0x1d        	MOVFF	r0x04, r0x1d
0018b8   f01d
0018ba   c005     movff   0x5, 0x1e        	MOVFF	r0x05, r0x1e
0018bc   f01e
0018be   c006     movff   0x6, 0x1f        	MOVFF	r0x06, r0x1f
0018c0   f01f
0018c2   c01a     movff   0x1a, 0x20       	MOVFF	r0x1a, r0x20
0018c4   f020
0018c6   501b     movf    0x1b, 0, 0       	MOVF	r0x1b, W
0018c8   e011     bz      0x18ec           	BZ	_01139_DS_
0018ca   e609     bn      0x18de           	BN	_01142_DS_
0018cc   6ce8     negf    0xe8, 0          	NEGF	WREG
0018ce   90d8     bcf     0xd8, 0, 0       	BCF	STATUS, 0
                                           _01140_DS_:
0018d0   361d     rlcf    0x1d, 0x1, 0     	RLCF	r0x1d, F
0018d2   361e     rlcf    0x1e, 0x1, 0     	RLCF	r0x1e, F
0018d4   361f     rlcf    0x1f, 0x1, 0     	RLCF	r0x1f, F
0018d6   3620     rlcf    0x20, 0x1, 0     	RLCF	r0x20, F
0018d8   0f01     addlw   0x1              	ADDLW	0x01
0018da   e3fa     bnc     0x18d0           	BNC	_01140_DS_
0018dc   d007     bra     0x18ec           	BRA	_01139_DS_
                                           _01142_DS_:
0018de   90d8     bcf     0xd8, 0, 0       	BCF	STATUS, 0
                                           _01141_DS_:
0018e0   3220     rrcf    0x20, 0x1, 0     	RRCF	r0x20, F
0018e2   321f     rrcf    0x1f, 0x1, 0     	RRCF	r0x1f, F
0018e4   321e     rrcf    0x1e, 0x1, 0     	RRCF	r0x1e, F
0018e6   321d     rrcf    0x1d, 0x1, 0     	RRCF	r0x1d, F
0018e8   0f01     addlw   0x1              	ADDLW	0x01
0018ea   e3fa     bnc     0x18e0           	BNC	_01141_DS_
                                           _01139_DS_:
0018ec   501d     movf    0x1d, 0, 0       	MOVF	r0x1d, W
0018ee   6e0e     movwf   0xe, 0           	MOVWF	r0x0e
0018f0   501e     movf    0x1e, 0, 0       	MOVF	r0x1e, W
0018f2   6e0f     movwf   0xf, 0           	MOVWF	r0x0f
0018f4   501f     movf    0x1f, 0, 0       	MOVF	r0x1f, W
0018f6   6e10     movwf   0x10, 0          	MOVWF	r0x10
0018f8   6a11     clrf    0x11, 0          	CLRF	r0x11
0018fa   d025     bra     0x1946           	BRA	_01049_DS_
                                           _01042_DS_:
                                           ;	.line	235; /dvpt/pinguino/git/pinguino-ide/pinguino/p8/pinguino/core/stdio.c	frac_part = (mantissa & 0xFFFFFF) >> -(exponent + 1);
0018fc   6a1a     clrf    0x1a, 0          	CLRF	r0x1a
0018fe   6a1b     clrf    0x1b, 0          	CLRF	r0x1b
001900   be03     btfsc   0x3, 0x7, 0      	BTFSC	r0x03, 7
001902   681b     setf    0x1b, 0          	SETF	r0x1b
001904   4a03     infsnz  0x3, 0x1, 0      	INFSNZ	r0x03, F
001906   2a1b     incf    0x1b, 0x1, 0     	INCF	r0x1b, F
001908   1e1b     comf    0x1b, 0x1, 0     	COMF	r0x1b, F
00190a   6c03     negf    0x3, 0           	NEGF	r0x03
00190c   b4d8     btfsc   0xd8, 0x2, 0     	BTFSC	STATUS, 2
00190e   2a1b     incf    0x1b, 0x1, 0     	INCF	r0x1b, F
001910   c004     movff   0x4, 0xe         	MOVFF	r0x04, r0x0e
001912   f00e
001914   c005     movff   0x5, 0xf         	MOVFF	r0x05, r0x0f
001916   f00f
001918   c006     movff   0x6, 0x10        	MOVFF	r0x06, r0x10
00191a   f010
00191c   c01a     movff   0x1a, 0x11       	MOVFF	r0x1a, r0x11
00191e   f011
001920   5003     movf    0x3, 0, 0        	MOVF	r0x03, W
001922   e011     bz      0x1946           	BZ	_01049_DS_
001924   e609     bn      0x1938           	BN	_01149_DS_
001926   6ce8     negf    0xe8, 0          	NEGF	WREG
001928   90d8     bcf     0xd8, 0, 0       	BCF	STATUS, 0
                                           _01147_DS_:
00192a   3211     rrcf    0x11, 0x1, 0     	RRCF	r0x11, F
00192c   3210     rrcf    0x10, 0x1, 0     	RRCF	r0x10, F
00192e   320f     rrcf    0xf, 0x1, 0      	RRCF	r0x0f, F
001930   320e     rrcf    0xe, 0x1, 0      	RRCF	r0x0e, F
001932   0f01     addlw   0x1              	ADDLW	0x01
001934   e3fa     bnc     0x192a           	BNC	_01147_DS_
001936   d007     bra     0x1946           	BRA	_01049_DS_
                                           _01149_DS_:
001938   90d8     bcf     0xd8, 0, 0       	BCF	STATUS, 0
                                           _01148_DS_:
00193a   360e     rlcf    0xe, 0x1, 0      	RLCF	r0x0e, F
00193c   360f     rlcf    0xf, 0x1, 0      	RLCF	r0x0f, F
00193e   3610     rlcf    0x10, 0x1, 0     	RLCF	r0x10, F
001940   3611     rlcf    0x11, 0x1, 0     	RLCF	r0x11, F
001942   0f01     addlw   0x1              	ADDLW	0x01
001944   e3fa     bnc     0x193a           	BNC	_01148_DS_
                                           _01049_DS_:
                                           ;	.line	238; /dvpt/pinguino/git/pinguino-ide/pinguino/p8/pinguino/core/stdio.c	if (int_part == 0)
001946   500a     movf    0xa, 0, 0        	MOVF	r0x0a, W
001948   100b     iorwf   0xb, 0, 0        	IORWF	r0x0b, W
00194a   100c     iorwf   0xc, 0, 0        	IORWF	r0x0c, W
00194c   100d     iorwf   0xd, 0, 0        	IORWF	r0x0d, W
00194e   e10f     bnz     0x196e           	BNZ	_01080_DS_
                                           ;	.line	240; /dvpt/pinguino/git/pinguino-ide/pinguino/p8/pinguino/core/stdio.c	*string++ = '0';
001950   0e30     movlw   0x30             	MOVLW	0x30
001952   6ee5     movwf   0xe5, 0          	MOVWF	POSTDEC1
001954   c012     movff   0x12, 0xfe9      	MOVFF	r0x12, FSR0L
001956   ffe9
001958   c013     movff   0x13, 0xff3      	MOVFF	r0x13, PRODL
00195a   fff3
00195c   5014     movf    0x14, 0, 0       	MOVF	r0x14, W
00195e   ec78     call    0x4cf0, 0        	CALL	__gptrput1
001960   f026
001962   2a12     incf    0x12, 0x1, 0     	INCF	r0x12, F
001964   e302     bnc     0x196a           	BNC	_01150_DS_
001966   4a13     infsnz  0x13, 0x1, 0     	INFSNZ	r0x13, F
001968   2a14     incf    0x14, 0x1, 0     	INCF	r0x14, F
                                           _01150_DS_:
                                           ;	.line	241; /dvpt/pinguino/git/pinguino-ide/pinguino/p8/pinguino/core/stdio.c	length--;
00196a   0619     decf    0x19, 0x1, 0     	DECF	r0x19, F
00196c   d078     bra     0x1a5e           	BRA	_01059_DS_
                                           _01080_DS_:
                                           ;	.line	247; /dvpt/pinguino/git/pinguino-ide/pinguino/p8/pinguino/core/stdio.c	while (int_part)
00196e   c015     movff   0x15, 0x3        	MOVFF	r0x15, r0x03
001970   f003
001972   c016     movff   0x16, 0x4        	MOVFF	r0x16, r0x04
001974   f004
001976   c017     movff   0x17, 0x5        	MOVFF	r0x17, r0x05
001978   f005
00197a   6a06     clrf    0x6, 0           	CLRF	r0x06
00197c   c019     movff   0x19, 0x15       	MOVFF	r0x19, r0x15
00197e   f015
                                           _01051_DS_:
001980   500a     movf    0xa, 0, 0        	MOVF	r0x0a, W
001982   100b     iorwf   0xb, 0, 0        	IORWF	r0x0b, W
001984   100c     iorwf   0xc, 0, 0        	IORWF	r0x0c, W
001986   100d     iorwf   0xd, 0, 0        	IORWF	r0x0d, W
001988   b4d8     btfsc   0xd8, 0x2, 0     	BTFSC	STATUS, 2
00198a   d03c     bra     0x1a04           	BRA	_01088_DS_
                                           ;	.line	249; /dvpt/pinguino/git/pinguino-ide/pinguino/p8/pinguino/core/stdio.c	t = int_part % 10;		// decimal base
00198c   6ae5     clrf    0xe5, 0          	CLRF	POSTDEC1
00198e   6ae5     clrf    0xe5, 0          	CLRF	POSTDEC1
001990   6ae5     clrf    0xe5, 0          	CLRF	POSTDEC1
001992   0e0a     movlw   0xa              	MOVLW	0x0a
001994   6ee5     movwf   0xe5, 0          	MOVWF	POSTDEC1
001996   500d     movf    0xd, 0, 0        	MOVF	r0x0d, W
001998   6ee5     movwf   0xe5, 0          	MOVWF	POSTDEC1
00199a   500c     movf    0xc, 0, 0        	MOVF	r0x0c, W
00199c   6ee5     movwf   0xe5, 0          	MOVWF	POSTDEC1
00199e   500b     movf    0xb, 0, 0        	MOVF	r0x0b, W
0019a0   6ee5     movwf   0xe5, 0          	MOVWF	POSTDEC1
0019a2   500a     movf    0xa, 0, 0        	MOVF	r0x0a, W
0019a4   6ee5     movwf   0xe5, 0          	MOVWF	POSTDEC1
0019a6   ecb7     call    0x336e, 0        	CALL	__modulong
0019a8   f019
0019aa   6e16     movwf   0x16, 0          	MOVWF	r0x16
0019ac   0e08     movlw   0x8              	MOVLW	0x08
0019ae   26e1     addwf   0xe1, 0x1, 0     	ADDWF	FSR1L, F
                                           ;	.line	250; /dvpt/pinguino/git/pinguino-ide/pinguino/p8/pinguino/core/stdio.c	*s++ = t + '0';
0019b0   0e30     movlw   0x30             	MOVLW	0x30
0019b2   2616     addwf   0x16, 0x1, 0     	ADDWF	r0x16, F
0019b4   c016     movff   0x16, 0xfe5      	MOVFF	r0x16, POSTDEC1
0019b6   ffe5
0019b8   c003     movff   0x3, 0xfe9       	MOVFF	r0x03, FSR0L
0019ba   ffe9
0019bc   c004     movff   0x4, 0xff3       	MOVFF	r0x04, PRODL
0019be   fff3
0019c0   5005     movf    0x5, 0, 0        	MOVF	r0x05, W
0019c2   ec78     call    0x4cf0, 0        	CALL	__gptrput1
0019c4   f026
0019c6   2a03     incf    0x3, 0x1, 0      	INCF	r0x03, F
0019c8   e302     bnc     0x19ce           	BNC	_01151_DS_
0019ca   4a04     infsnz  0x4, 0x1, 0      	INFSNZ	r0x04, F
0019cc   2a05     incf    0x5, 0x1, 0      	INCF	r0x05, F
                                           _01151_DS_:
                                           ;	.line	251; /dvpt/pinguino/git/pinguino-ide/pinguino/p8/pinguino/core/stdio.c	int_part /= 10;
0019ce   6ae5     clrf    0xe5, 0          	CLRF	POSTDEC1
0019d0   6ae5     clrf    0xe5, 0          	CLRF	POSTDEC1
0019d2   6ae5     clrf    0xe5, 0          	CLRF	POSTDEC1
0019d4   0e0a     movlw   0xa              	MOVLW	0x0a
0019d6   6ee5     movwf   0xe5, 0          	MOVWF	POSTDEC1
0019d8   500d     movf    0xd, 0, 0        	MOVF	r0x0d, W
0019da   6ee5     movwf   0xe5, 0          	MOVWF	POSTDEC1
0019dc   500c     movf    0xc, 0, 0        	MOVF	r0x0c, W
0019de   6ee5     movwf   0xe5, 0          	MOVWF	POSTDEC1
0019e0   500b     movf    0xb, 0, 0        	MOVF	r0x0b, W
0019e2   6ee5     movwf   0xe5, 0          	MOVWF	POSTDEC1
0019e4   500a     movf    0xa, 0, 0        	MOVF	r0x0a, W
0019e6   6ee5     movwf   0xe5, 0          	MOVWF	POSTDEC1
0019e8   ec67     call    0x36ce, 0        	CALL	__divulong
0019ea   f01b
0019ec   6e0a     movwf   0xa, 0           	MOVWF	r0x0a
0019ee   cff3     movff   0xff3, 0xb       	MOVFF	PRODL, r0x0b
0019f0   f00b
0019f2   cff4     movff   0xff4, 0xc       	MOVFF	PRODH, r0x0c
0019f4   f00c
0019f6   cfe9     movff   0xfe9, 0xd       	MOVFF	FSR0L, r0x0d
0019f8   f00d
0019fa   0e08     movlw   0x8              	MOVLW	0x08
0019fc   26e1     addwf   0xe1, 0x1, 0     	ADDWF	FSR1L, F
                                           ;	.line	252; /dvpt/pinguino/git/pinguino-ide/pinguino/p8/pinguino/core/stdio.c	m++;					// string's length counter
0019fe   2a06     incf    0x6, 0x1, 0      	INCF	r0x06, F
                                           ;	.line	253; /dvpt/pinguino/git/pinguino-ide/pinguino/p8/pinguino/core/stdio.c	length--;
001a00   0615     decf    0x15, 0x1, 0     	DECF	r0x15, F
001a02   d7be     bra     0x1980           	BRA	_01051_DS_
                                           _01088_DS_:
                                           ;	.line	256; /dvpt/pinguino/git/pinguino-ide/pinguino/p8/pinguino/core/stdio.c	while (m--)
001a04   c015     movff   0x15, 0x19       	MOVFF	r0x15, r0x19
001a06   f019
001a08   c012     movff   0x12, 0xa        	MOVFF	r0x12, r0x0a
001a0a   f00a
001a0c   c013     movff   0x13, 0xb        	MOVFF	r0x13, r0x0b
001a0e   f00b
001a10   c014     movff   0x14, 0xc        	MOVFF	r0x14, r0x0c
001a12   f00c
                                           _01054_DS_:
001a14   c006     movff   0x6, 0xd         	MOVFF	r0x06, r0x0d
001a16   f00d
001a18   0606     decf    0x6, 0x1, 0      	DECF	r0x06, F
001a1a   500d     movf    0xd, 0, 0        	MOVF	r0x0d, W
001a1c   e01a     bz      0x1a52           	BZ	_01089_DS_
                                           ;	.line	258; /dvpt/pinguino/git/pinguino-ide/pinguino/p8/pinguino/core/stdio.c	*string++ = *--s;
001a1e   0eff     movlw   0xff             	MOVLW	0xff
001a20   2603     addwf   0x3, 0x1, 0      	ADDWF	r0x03, F
001a22   2204     addwfc  0x4, 0x1, 0      	ADDWFC	r0x04, F
001a24   2205     addwfc  0x5, 0x1, 0      	ADDWFC	r0x05, F
001a26   c003     movff   0x3, 0xfe9       	MOVFF	r0x03, FSR0L
001a28   ffe9
001a2a   c004     movff   0x4, 0xff3       	MOVFF	r0x04, PRODL
001a2c   fff3
001a2e   5005     movf    0x5, 0, 0        	MOVF	r0x05, W
001a30   ec4b     call    0x4c96, 0        	CALL	__gptrget1
001a32   f026
001a34   6e0d     movwf   0xd, 0           	MOVWF	r0x0d
001a36   c00d     movff   0xd, 0xfe5       	MOVFF	r0x0d, POSTDEC1
001a38   ffe5
001a3a   c00a     movff   0xa, 0xfe9       	MOVFF	r0x0a, FSR0L
001a3c   ffe9
001a3e   c00b     movff   0xb, 0xff3       	MOVFF	r0x0b, PRODL
001a40   fff3
001a42   500c     movf    0xc, 0, 0        	MOVF	r0x0c, W
001a44   ec78     call    0x4cf0, 0        	CALL	__gptrput1
001a46   f026
001a48   2a0a     incf    0xa, 0x1, 0      	INCF	r0x0a, F
001a4a   e3e4     bnc     0x1a14           	BNC	_01054_DS_
001a4c   4a0b     infsnz  0xb, 0x1, 0      	INFSNZ	r0x0b, F
001a4e   2a0c     incf    0xc, 0x1, 0      	INCF	r0x0c, F
                                           _01152_DS_:
001a50   d7e1     bra     0x1a14           	BRA	_01054_DS_
                                           _01089_DS_:
001a52   c00a     movff   0xa, 0x12        	MOVFF	r0x0a, r0x12
001a54   f012
001a56   c00b     movff   0xb, 0x13        	MOVFF	r0x0b, r0x13
001a58   f013
001a5a   c00c     movff   0xc, 0x14        	MOVFF	r0x0c, r0x14
001a5c   f014
                                           _01059_DS_:
                                           ;	.line	271; /dvpt/pinguino/git/pinguino-ide/pinguino/p8/pinguino/core/stdio.c	if (precision > 6)
001a5e   0e07     movlw   0x7              	MOVLW	0x07
001a60   5c09     subwf   0x9, 0, 0        	SUBWF	r0x09, W
001a62   e302     bnc     0x1a68           	BNC	_01061_DS_
                                           ;	.line	272; /dvpt/pinguino/git/pinguino-ide/pinguino/p8/pinguino/core/stdio.c	precision = 6;
001a64   0e06     movlw   0x6              	MOVLW	0x06
001a66   6e09     movwf   0x9, 0           	MOVWF	r0x09
                                           _01061_DS_:
                                           ;	.line	275; /dvpt/pinguino/git/pinguino-ide/pinguino/p8/pinguino/core/stdio.c	if (precision > length)
001a68   5009     movf    0x9, 0, 0        	MOVF	r0x09, W
                                           ; #	SUBWF	r0x19, W
                                           ; #	BTFSC	STATUS, 0
                                           ; #	GOTO	_01063_DS_
                                           ; #	MOVFF	r0x19, r0x09
                                           ; #	MOVLW	0x01
                                           ;	.line	276; /dvpt/pinguino/git/pinguino-ide/pinguino/p8/pinguino/core/stdio.c	precision = length;
001a6a   5c19     subwf   0x19, 0, 0       	SUBWF	r0x19, W
                                           ;	.line	279; /dvpt/pinguino/git/pinguino-ide/pinguino/p8/pinguino/core/stdio.c	if (precision >= 1)
001a6c   a0d8     btfss   0xd8, 0, 0       	BTFSS	STATUS, 0
001a6e   c019     movff   0x19, 0x9        	MOVFF	r0x19, r0x09
001a70   f009
001a72   0e01     movlw   0x1              	MOVLW	0x01
001a74   5c09     subwf   0x9, 0, 0        	SUBWF	r0x09, W
001a76   a0d8     btfss   0xd8, 0, 0       	BTFSS	STATUS, 0
001a78   d057     bra     0x1b28           	BRA	_01066_DS_
                                           ;	.line	282; /dvpt/pinguino/git/pinguino-ide/pinguino/p8/pinguino/core/stdio.c	*string++ = '.';
001a7a   0e2e     movlw   0x2e             	MOVLW	0x2e
001a7c   6ee5     movwf   0xe5, 0          	MOVWF	POSTDEC1
001a7e   c012     movff   0x12, 0xfe9      	MOVFF	r0x12, FSR0L
001a80   ffe9
001a82   c013     movff   0x13, 0xff3      	MOVFF	r0x13, PRODL
001a84   fff3
001a86   5014     movf    0x14, 0, 0       	MOVF	r0x14, W
001a88   ec78     call    0x4cf0, 0        	CALL	__gptrput1
001a8a   f026
001a8c   2a12     incf    0x12, 0x1, 0     	INCF	r0x12, F
001a8e   e302     bnc     0x1a94           	BNC	_01156_DS_
001a90   4a13     infsnz  0x13, 0x1, 0     	INFSNZ	r0x13, F
001a92   2a14     incf    0x14, 0x1, 0     	INCF	r0x14, F
                                           _01156_DS_:
                                           ;	.line	285; /dvpt/pinguino/git/pinguino-ide/pinguino/p8/pinguino/core/stdio.c	for (m = 0; m < precision; m++)
001a94   c012     movff   0x12, 0x3        	MOVFF	r0x12, r0x03
001a96   f003
001a98   c013     movff   0x13, 0x4        	MOVFF	r0x13, r0x04
001a9a   f004
001a9c   c014     movff   0x14, 0x5        	MOVFF	r0x14, r0x05
001a9e   f005
001aa0   6a06     clrf    0x6, 0           	CLRF	r0x06
                                           _01068_DS_:
001aa2   5009     movf    0x9, 0, 0        	MOVF	r0x09, W
001aa4   5c06     subwf   0x6, 0, 0        	SUBWF	r0x06, W
001aa6   e23a     bc      0x1b1c           	BC	_01090_DS_
                                           ;	.line	288; /dvpt/pinguino/git/pinguino-ide/pinguino/p8/pinguino/core/stdio.c	frac_part = (frac_part << 3) + (frac_part << 1); 
001aa8   500e     movf    0xe, 0, 0        	MOVF	r0x0e, W
001aaa   240e     addwf   0xe, 0, 0        	ADDWF	r0x0e, W
001aac   6e0a     movwf   0xa, 0           	MOVWF	r0x0a
001aae   340f     rlcf    0xf, 0, 0        	RLCF	r0x0f, W
001ab0   6e0b     movwf   0xb, 0           	MOVWF	r0x0b
001ab2   3410     rlcf    0x10, 0, 0       	RLCF	r0x10, W
001ab4   6e0c     movwf   0xc, 0           	MOVWF	r0x0c
001ab6   3411     rlcf    0x11, 0, 0       	RLCF	r0x11, W
001ab8   6e0d     movwf   0xd, 0           	MOVWF	r0x0d
001aba   500a     movf    0xa, 0, 0        	MOVF	r0x0a, W
001abc   260a     addwf   0xa, 0x1, 0      	ADDWF	r0x0a, F
001abe   360b     rlcf    0xb, 0x1, 0      	RLCF	r0x0b, F
001ac0   360c     rlcf    0xc, 0x1, 0      	RLCF	r0x0c, F
001ac2   360d     rlcf    0xd, 0x1, 0      	RLCF	r0x0d, F
001ac4   500a     movf    0xa, 0, 0        	MOVF	r0x0a, W
001ac6   260a     addwf   0xa, 0x1, 0      	ADDWF	r0x0a, F
001ac8   360b     rlcf    0xb, 0x1, 0      	RLCF	r0x0b, F
001aca   360c     rlcf    0xc, 0x1, 0      	RLCF	r0x0c, F
001acc   360d     rlcf    0xd, 0x1, 0      	RLCF	r0x0d, F
001ace   500e     movf    0xe, 0, 0        	MOVF	r0x0e, W
001ad0   240e     addwf   0xe, 0, 0        	ADDWF	r0x0e, W
001ad2   6e15     movwf   0x15, 0          	MOVWF	r0x15
001ad4   340f     rlcf    0xf, 0, 0        	RLCF	r0x0f, W
001ad6   6e16     movwf   0x16, 0          	MOVWF	r0x16
001ad8   3410     rlcf    0x10, 0, 0       	RLCF	r0x10, W
001ada   6e17     movwf   0x17, 0          	MOVWF	r0x17
001adc   3411     rlcf    0x11, 0, 0       	RLCF	r0x11, W
001ade   6e19     movwf   0x19, 0          	MOVWF	r0x19
001ae0   5015     movf    0x15, 0, 0       	MOVF	r0x15, W
001ae2   240a     addwf   0xa, 0, 0        	ADDWF	r0x0a, W
001ae4   6e0e     movwf   0xe, 0           	MOVWF	r0x0e
001ae6   5016     movf    0x16, 0, 0       	MOVF	r0x16, W
001ae8   200b     addwfc  0xb, 0, 0        	ADDWFC	r0x0b, W
001aea   6e0f     movwf   0xf, 0           	MOVWF	r0x0f
001aec   5017     movf    0x17, 0, 0       	MOVF	r0x17, W
001aee   200c     addwfc  0xc, 0, 0        	ADDWFC	r0x0c, W
001af0   6e10     movwf   0x10, 0          	MOVWF	r0x10
001af2   5019     movf    0x19, 0, 0       	MOVF	r0x19, W
001af4   200d     addwfc  0xd, 0, 0        	ADDWFC	r0x0d, W
                                           ; #	MOVWF	r0x11
                                           ; #	MOVF	r0x11, W
                                           ;	.line	290; /dvpt/pinguino/git/pinguino-ide/pinguino/p8/pinguino/core/stdio.c	*string++ = (frac_part >> 24) + '0';
001af6   6e0a     movwf   0xa, 0           	MOVWF	r0x0a
001af8   0e30     movlw   0x30             	MOVLW	0x30
001afa   260a     addwf   0xa, 0x1, 0      	ADDWF	r0x0a, F
001afc   c00a     movff   0xa, 0xfe5       	MOVFF	r0x0a, POSTDEC1
001afe   ffe5
001b00   c003     movff   0x3, 0xfe9       	MOVFF	r0x03, FSR0L
001b02   ffe9
001b04   c004     movff   0x4, 0xff3       	MOVFF	r0x04, PRODL
001b06   fff3
001b08   5005     movf    0x5, 0, 0        	MOVF	r0x05, W
001b0a   ec78     call    0x4cf0, 0        	CALL	__gptrput1
001b0c   f026
001b0e   2a03     incf    0x3, 0x1, 0      	INCF	r0x03, F
001b10   e302     bnc     0x1b16           	BNC	_01158_DS_
001b12   4a04     infsnz  0x4, 0x1, 0      	INFSNZ	r0x04, F
001b14   2a05     incf    0x5, 0x1, 0      	INCF	r0x05, F
                                           _01158_DS_:
                                           ;	.line	292; /dvpt/pinguino/git/pinguino-ide/pinguino/p8/pinguino/core/stdio.c	frac_part &= 0xFFFFFF;
001b16   6a11     clrf    0x11, 0          	CLRF	r0x11
                                           ;	.line	285; /dvpt/pinguino/git/pinguino-ide/pinguino/p8/pinguino/core/stdio.c	for (m = 0; m < precision; m++)
001b18   2a06     incf    0x6, 0x1, 0      	INCF	r0x06, F
001b1a   d7c3     bra     0x1aa2           	BRA	_01068_DS_
                                           _01090_DS_:
001b1c   c003     movff   0x3, 0x12        	MOVFF	r0x03, r0x12
001b1e   f012
001b20   c004     movff   0x4, 0x13        	MOVFF	r0x04, r0x13
001b22   f013
001b24   c005     movff   0x5, 0x14        	MOVFF	r0x05, r0x14
001b26   f014
                                           _01066_DS_:
                                           ;	.line	297; /dvpt/pinguino/git/pinguino-ide/pinguino/p8/pinguino/core/stdio.c	*string++ = '\0';
001b28   6ae5     clrf    0xe5, 0          	CLRF	POSTDEC1
001b2a   c012     movff   0x12, 0xfe9      	MOVFF	r0x12, FSR0L
001b2c   ffe9
001b2e   c013     movff   0x13, 0xff3      	MOVFF	r0x13, PRODL
001b30   fff3
001b32   5014     movf    0x14, 0, 0       	MOVF	r0x14, W
001b34   ec78     call    0x4cf0, 0        	CALL	__gptrput1
001b36   f026
                                           ;	.line	299; /dvpt/pinguino/git/pinguino-ide/pinguino/p8/pinguino/core/stdio.c	return count + pprints(out, buffer, width, pad);
001b38   5008     movf    0x8, 0, 0        	MOVF	r0x08, W
001b3a   6ee5     movwf   0xe5, 0          	MOVWF	POSTDEC1
001b3c   5007     movf    0x7, 0, 0        	MOVF	r0x07, W
001b3e   6ee5     movwf   0xe5, 0          	MOVWF	POSTDEC1
001b40   0e80     movlw   0x80             	MOVLW	0x80
001b42   6ee5     movwf   0xe5, 0          	MOVWF	POSTDEC1
001b44   0e01     movlw   0x1              	MOVLW	HIGH(_pprintfl_buffer_1_161)
001b46   6ee5     movwf   0xe5, 0          	MOVWF	POSTDEC1
001b48   0e4c     movlw   0x4c             	MOVLW	LOW(_pprintfl_buffer_1_161)
001b4a   6ee5     movwf   0xe5, 0          	MOVWF	POSTDEC1
001b4c   5002     movf    0x2, 0, 0        	MOVF	r0x02, W
001b4e   6ee5     movwf   0xe5, 0          	MOVWF	POSTDEC1
001b50   5001     movf    0x1, 0, 0        	MOVF	r0x01, W
001b52   6ee5     movwf   0xe5, 0          	MOVWF	POSTDEC1
001b54   5000     movf    0, 0, 0          	MOVF	r0x00, W
001b56   6ee5     movwf   0xe5, 0          	MOVWF	POSTDEC1
001b58   ec4a     call    0x2c94, 0        	CALL	_pprints
001b5a   f016
001b5c   6e00     movwf   0, 0             	MOVWF	r0x00
001b5e   0e08     movlw   0x8              	MOVLW	0x08
001b60   26e1     addwf   0xe1, 0x1, 0     	ADDWF	FSR1L, F
001b62   5018     movf    0x18, 0, 0       	MOVF	r0x18, W
001b64   2600     addwf   0, 0x1, 0        	ADDWF	r0x00, F
001b66   5000     movf    0, 0, 0          	MOVF	r0x00, W
                                           _01070_DS_:
001b68   cfe4     movff   0xfe4, 0x20      	MOVFF	PREINC1, r0x20
001b6a   f020
001b6c   cfe4     movff   0xfe4, 0x1f      	MOVFF	PREINC1, r0x1f
001b6e   f01f
001b70   cfe4     movff   0xfe4, 0x1e      	MOVFF	PREINC1, r0x1e
001b72   f01e
001b74   cfe4     movff   0xfe4, 0x1d      	MOVFF	PREINC1, r0x1d
001b76   f01d
001b78   cfe4     movff   0xfe4, 0x1c      	MOVFF	PREINC1, r0x1c
001b7a   f01c
001b7c   cfe4     movff   0xfe4, 0x1b      	MOVFF	PREINC1, r0x1b
001b7e   f01b
001b80   cfe4     movff   0xfe4, 0x1a      	MOVFF	PREINC1, r0x1a
001b82   f01a
001b84   cfe4     movff   0xfe4, 0x19      	MOVFF	PREINC1, r0x19
001b86   f019
001b88   cfe4     movff   0xfe4, 0x18      	MOVFF	PREINC1, r0x18
001b8a   f018
001b8c   cfe4     movff   0xfe4, 0x17      	MOVFF	PREINC1, r0x17
001b8e   f017
001b90   cfe4     movff   0xfe4, 0x16      	MOVFF	PREINC1, r0x16
001b92   f016
001b94   cfe4     movff   0xfe4, 0x15      	MOVFF	PREINC1, r0x15
001b96   f015
001b98   cfe4     movff   0xfe4, 0x14      	MOVFF	PREINC1, r0x14
001b9a   f014
001b9c   cfe4     movff   0xfe4, 0x13      	MOVFF	PREINC1, r0x13
001b9e   f013
001ba0   cfe4     movff   0xfe4, 0x12      	MOVFF	PREINC1, r0x12
001ba2   f012
001ba4   cfe4     movff   0xfe4, 0x11      	MOVFF	PREINC1, r0x11
001ba6   f011
001ba8   cfe4     movff   0xfe4, 0x10      	MOVFF	PREINC1, r0x10
001baa   f010
001bac   cfe4     movff   0xfe4, 0xf       	MOVFF	PREINC1, r0x0f
001bae   f00f
001bb0   cfe4     movff   0xfe4, 0xe       	MOVFF	PREINC1, r0x0e
001bb2   f00e
001bb4   cfe4     movff   0xfe4, 0xd       	MOVFF	PREINC1, r0x0d
001bb6   f00d
001bb8   cfe4     movff   0xfe4, 0xc       	MOVFF	PREINC1, r0x0c
001bba   f00c
001bbc   cfe4     movff   0xfe4, 0xb       	MOVFF	PREINC1, r0x0b
001bbe   f00b
001bc0   cfe4     movff   0xfe4, 0xa       	MOVFF	PREINC1, r0x0a
001bc2   f00a
001bc4   cfe4     movff   0xfe4, 0x9       	MOVFF	PREINC1, r0x09
001bc6   f009
001bc8   cfe4     movff   0xfe4, 0x8       	MOVFF	PREINC1, r0x08
001bca   f008
001bcc   cfe4     movff   0xfe4, 0x7       	MOVFF	PREINC1, r0x07
001bce   f007
001bd0   cfe4     movff   0xfe4, 0x6       	MOVFF	PREINC1, r0x06
001bd2   f006
001bd4   cfe4     movff   0xfe4, 0x5       	MOVFF	PREINC1, r0x05
001bd6   f005
001bd8   cfe4     movff   0xfe4, 0x4       	MOVFF	PREINC1, r0x04
001bda   f004
001bdc   cfe4     movff   0xfe4, 0x3       	MOVFF	PREINC1, r0x03
001bde   f003
001be0   cfe4     movff   0xfe4, 0x2       	MOVFF	PREINC1, r0x02
001be2   f002
001be4   cfe4     movff   0xfe4, 0x1       	MOVFF	PREINC1, r0x01
001be6   f001
001be8   cfe4     movff   0xfe4, 0         	MOVFF	PREINC1, r0x00
001bea   f000
001bec   cfe4     movff   0xfe4, 0xfd9     	MOVFF	PREINC1, FSR2L
001bee   ffd9
001bf0   0012     return  0                	RETURN	
                                           
                                           ; ; Starting pCode block
                                           S_main__pprinti	code
                                           _pprinti:
                                           ;	.line	112; /dvpt/pinguino/git/pinguino-ide/pinguino/p8/pinguino/core/stdio.c	static u8 pprinti(u8 **out, u32 i, u8 islong, u8 base, u8 sign, u8 width, u8 pad, u8 separator, u8 letterbase)
001bf2   cfd9     movff   0xfd9, 0xfe5     	MOVFF	FSR2L, POSTDEC1
001bf4   ffe5
001bf6   cfe1     movff   0xfe1, 0xfd9     	MOVFF	FSR1L, FSR2L
001bf8   ffd9
001bfa   c000     movff   0, 0xfe5         	MOVFF	r0x00, POSTDEC1
001bfc   ffe5
001bfe   c001     movff   0x1, 0xfe5       	MOVFF	r0x01, POSTDEC1
001c00   ffe5
001c02   c002     movff   0x2, 0xfe5       	MOVFF	r0x02, POSTDEC1
001c04   ffe5
001c06   c003     movff   0x3, 0xfe5       	MOVFF	r0x03, POSTDEC1
001c08   ffe5
001c0a   c004     movff   0x4, 0xfe5       	MOVFF	r0x04, POSTDEC1
001c0c   ffe5
001c0e   c005     movff   0x5, 0xfe5       	MOVFF	r0x05, POSTDEC1
001c10   ffe5
001c12   c006     movff   0x6, 0xfe5       	MOVFF	r0x06, POSTDEC1
001c14   ffe5
001c16   c007     movff   0x7, 0xfe5       	MOVFF	r0x07, POSTDEC1
001c18   ffe5
001c1a   c008     movff   0x8, 0xfe5       	MOVFF	r0x08, POSTDEC1
001c1c   ffe5
001c1e   c009     movff   0x9, 0xfe5       	MOVFF	r0x09, POSTDEC1
001c20   ffe5
001c22   c00a     movff   0xa, 0xfe5       	MOVFF	r0x0a, POSTDEC1
001c24   ffe5
001c26   c00b     movff   0xb, 0xfe5       	MOVFF	r0x0b, POSTDEC1
001c28   ffe5
001c2a   c00c     movff   0xc, 0xfe5       	MOVFF	r0x0c, POSTDEC1
001c2c   ffe5
001c2e   c00d     movff   0xd, 0xfe5       	MOVFF	r0x0d, POSTDEC1
001c30   ffe5
001c32   c00e     movff   0xe, 0xfe5       	MOVFF	r0x0e, POSTDEC1
001c34   ffe5
001c36   c00f     movff   0xf, 0xfe5       	MOVFF	r0x0f, POSTDEC1
001c38   ffe5
001c3a   c010     movff   0x10, 0xfe5      	MOVFF	r0x10, POSTDEC1
001c3c   ffe5
001c3e   c011     movff   0x11, 0xfe5      	MOVFF	r0x11, POSTDEC1
001c40   ffe5
001c42   c012     movff   0x12, 0xfe5      	MOVFF	r0x12, POSTDEC1
001c44   ffe5
001c46   c013     movff   0x13, 0xfe5      	MOVFF	r0x13, POSTDEC1
001c48   ffe5
001c4a   c014     movff   0x14, 0xfe5      	MOVFF	r0x14, POSTDEC1
001c4c   ffe5
001c4e   c015     movff   0x15, 0xfe5      	MOVFF	r0x15, POSTDEC1
001c50   ffe5
001c52   c016     movff   0x16, 0xfe5      	MOVFF	r0x16, POSTDEC1
001c54   ffe5
001c56   c017     movff   0x17, 0xfe5      	MOVFF	r0x17, POSTDEC1
001c58   ffe5
001c5a   c018     movff   0x18, 0xfe5      	MOVFF	r0x18, POSTDEC1
001c5c   ffe5
001c5e   c019     movff   0x19, 0xfe5      	MOVFF	r0x19, POSTDEC1
001c60   ffe5
001c62   c01a     movff   0x1a, 0xfe5      	MOVFF	r0x1a, POSTDEC1
001c64   ffe5
001c66   c01b     movff   0x1b, 0xfe5      	MOVFF	r0x1b, POSTDEC1
001c68   ffe5
001c6a   0e02     movlw   0x2              	MOVLW	0x02
001c6c   cfdb     movff   0xfdb, 0         	MOVFF	PLUSW2, r0x00
001c6e   f000
001c70   0e03     movlw   0x3              	MOVLW	0x03
001c72   cfdb     movff   0xfdb, 0x1       	MOVFF	PLUSW2, r0x01
001c74   f001
001c76   0e04     movlw   0x4              	MOVLW	0x04
001c78   cfdb     movff   0xfdb, 0x2       	MOVFF	PLUSW2, r0x02
001c7a   f002
001c7c   0e05     movlw   0x5              	MOVLW	0x05
001c7e   cfdb     movff   0xfdb, 0x3       	MOVFF	PLUSW2, r0x03
001c80   f003
001c82   0e06     movlw   0x6              	MOVLW	0x06
001c84   cfdb     movff   0xfdb, 0x4       	MOVFF	PLUSW2, r0x04
001c86   f004
001c88   0e07     movlw   0x7              	MOVLW	0x07
001c8a   cfdb     movff   0xfdb, 0x5       	MOVFF	PLUSW2, r0x05
001c8c   f005
001c8e   0e08     movlw   0x8              	MOVLW	0x08
001c90   cfdb     movff   0xfdb, 0x6       	MOVFF	PLUSW2, r0x06
001c92   f006
001c94   0e09     movlw   0x9              	MOVLW	0x09
001c96   cfdb     movff   0xfdb, 0x7       	MOVFF	PLUSW2, r0x07
001c98   f007
001c9a   0e0a     movlw   0xa              	MOVLW	0x0a
001c9c   cfdb     movff   0xfdb, 0x8       	MOVFF	PLUSW2, r0x08
001c9e   f008
001ca0   0e0b     movlw   0xb              	MOVLW	0x0b
001ca2   cfdb     movff   0xfdb, 0x9       	MOVFF	PLUSW2, r0x09
001ca4   f009
001ca6   0e0c     movlw   0xc              	MOVLW	0x0c
001ca8   cfdb     movff   0xfdb, 0xa       	MOVFF	PLUSW2, r0x0a
001caa   f00a
001cac   0e0d     movlw   0xd              	MOVLW	0x0d
001cae   cfdb     movff   0xfdb, 0xb       	MOVFF	PLUSW2, r0x0b
001cb0   f00b
001cb2   0e0f     movlw   0xf              	MOVLW	0x0f
001cb4   cfdb     movff   0xfdb, 0xc       	MOVFF	PLUSW2, r0x0c
001cb6   f00c
                                           ;	.line	116; /dvpt/pinguino/git/pinguino-ide/pinguino/p8/pinguino/core/stdio.c	u8 neg = 0, pc = 0;
001cb8   6a0d     clrf    0xd, 0           	CLRF	r0x0d
001cba   6a0e     clrf    0xe, 0           	CLRF	r0x0e
                                           ;	.line	117; /dvpt/pinguino/git/pinguino-ide/pinguino/p8/pinguino/core/stdio.c	u32 t, uns32 = i;
001cbc   c003     movff   0x3, 0xf         	MOVFF	r0x03, r0x0f
001cbe   f00f
001cc0   c004     movff   0x4, 0x10        	MOVFF	r0x04, r0x10
001cc2   f010
001cc4   c005     movff   0x5, 0x11        	MOVFF	r0x05, r0x11
001cc6   f011
001cc8   c006     movff   0x6, 0x12        	MOVFF	r0x06, r0x12
001cca   f012
                                           ;	.line	119; /dvpt/pinguino/git/pinguino-ide/pinguino/p8/pinguino/core/stdio.c	if (i == 0)
001ccc   5003     movf    0x3, 0, 0        	MOVF	r0x03, W
001cce   1004     iorwf   0x4, 0, 0        	IORWF	r0x04, W
001cd0   1005     iorwf   0x5, 0, 0        	IORWF	r0x05, W
001cd2   1006     iorwf   0x6, 0, 0        	IORWF	r0x06, W
001cd4   e11b     bnz     0x1d0c           	BNZ	_00962_DS_
                                           ;	.line	121; /dvpt/pinguino/git/pinguino-ide/pinguino/p8/pinguino/core/stdio.c	buffer[0] = '0';
001cd6   0e30     movlw   0x30             	MOVLW	0x30
001cd8   0101     movlb   0x1              	BANKSEL	_pprinti_buffer_1_151
001cda   6f40     movwf   0x40, 0x1        	MOVWF	_pprinti_buffer_1_151, B
                                           ; removed redundant BANKSEL
                                           ;	.line	122; /dvpt/pinguino/git/pinguino-ide/pinguino/p8/pinguino/core/stdio.c	buffer[1] = '\0';
001cdc   6b41     clrf    0x41, 0x1        	CLRF	(_pprinti_buffer_1_151 + 1), B
                                           ;	.line	123; /dvpt/pinguino/git/pinguino-ide/pinguino/p8/pinguino/core/stdio.c	return pprints(out, buffer, width, pad);
001cde   500b     movf    0xb, 0, 0        	MOVF	r0x0b, W
001ce0   6ee5     movwf   0xe5, 0          	MOVWF	POSTDEC1
001ce2   500a     movf    0xa, 0, 0        	MOVF	r0x0a, W
001ce4   6ee5     movwf   0xe5, 0          	MOVWF	POSTDEC1
001ce6   0e80     movlw   0x80             	MOVLW	0x80
001ce8   6ee5     movwf   0xe5, 0          	MOVWF	POSTDEC1
001cea   0e01     movlw   0x1              	MOVLW	HIGH(_pprinti_buffer_1_151)
001cec   6ee5     movwf   0xe5, 0          	MOVWF	POSTDEC1
001cee   0e40     movlw   0x40             	MOVLW	LOW(_pprinti_buffer_1_151)
001cf0   6ee5     movwf   0xe5, 0          	MOVWF	POSTDEC1
001cf2   5002     movf    0x2, 0, 0        	MOVF	r0x02, W
001cf4   6ee5     movwf   0xe5, 0          	MOVWF	POSTDEC1
001cf6   5001     movf    0x1, 0, 0        	MOVF	r0x01, W
001cf8   6ee5     movwf   0xe5, 0          	MOVWF	POSTDEC1
001cfa   5000     movf    0, 0, 0          	MOVF	r0x00, W
001cfc   6ee5     movwf   0xe5, 0          	MOVWF	POSTDEC1
001cfe   ec4a     call    0x2c94, 0        	CALL	_pprints
001d00   f016
001d02   6e13     movwf   0x13, 0          	MOVWF	r0x13
001d04   0e08     movlw   0x8              	MOVLW	0x08
001d06   26e1     addwf   0xe1, 0x1, 0     	ADDWF	FSR1L, F
001d08   5013     movf    0x13, 0, 0       	MOVF	r0x13, W
001d0a   d0ec     bra     0x1ee4           	BRA	_00983_DS_
                                           _00962_DS_:
                                           ;	.line	127; /dvpt/pinguino/git/pinguino-ide/pinguino/p8/pinguino/core/stdio.c	if  ( (sign) && (base == 10) )          // decimal signed number ?
001d0c   5009     movf    0x9, 0, 0        	MOVF	r0x09, W
001d0e   e036     bz      0x1d7c           	BZ	_00970_DS_
001d10   5008     movf    0x8, 0, 0        	MOVF	r0x08, W
001d12   0a0a     xorlw   0xa              	XORLW	0x0a
001d14   e133     bnz     0x1d7c           	BNZ	_00970_DS_
                                           ;	.line	129; /dvpt/pinguino/git/pinguino-ide/pinguino/p8/pinguino/core/stdio.c	if ( (islong) && ((s32)i < 0) )     // negative 32-bit ?
001d16   5007     movf    0x7, 0, 0        	MOVF	r0x07, W
001d18   e01c     bz      0x1d52           	BZ	_00964_DS_
001d1a   5003     movf    0x3, 0, 0        	MOVF	r0x03, W
001d1c   6e09     movwf   0x9, 0           	MOVWF	r0x09
001d1e   5004     movf    0x4, 0, 0        	MOVF	r0x04, W
001d20   6e13     movwf   0x13, 0          	MOVWF	r0x13
001d22   5005     movf    0x5, 0, 0        	MOVF	r0x05, W
001d24   6e14     movwf   0x14, 0          	MOVWF	r0x14
001d26   5006     movf    0x6, 0, 0        	MOVF	r0x06, W
001d28   6e15     movwf   0x15, 0          	MOVWF	r0x15
001d2a   80d8     bsf     0xd8, 0, 0       	BSF	STATUS, 0
001d2c   ae15     btfss   0x15, 0x7, 0     	BTFSS	r0x15, 7
001d2e   90d8     bcf     0xd8, 0, 0       	BCF	STATUS, 0
001d30   e310     bnc     0x1d52           	BNC	_00964_DS_
                                           ;	.line	131; /dvpt/pinguino/git/pinguino-ide/pinguino/p8/pinguino/core/stdio.c	neg = 1;
001d32   0e01     movlw   0x1              	MOVLW	0x01
001d34   6e0d     movwf   0xd, 0           	MOVWF	r0x0d
                                           ;	.line	132; /dvpt/pinguino/git/pinguino-ide/pinguino/p8/pinguino/core/stdio.c	uns32 = - (s32)i;
001d36   1c15     comf    0x15, 0, 0       	COMF	r0x15, W
001d38   6e12     movwf   0x12, 0          	MOVWF	r0x12
001d3a   1c14     comf    0x14, 0, 0       	COMF	r0x14, W
001d3c   6e11     movwf   0x11, 0          	MOVWF	r0x11
001d3e   1c13     comf    0x13, 0, 0       	COMF	r0x13, W
001d40   6e10     movwf   0x10, 0          	MOVWF	r0x10
001d42   1c09     comf    0x9, 0, 0        	COMF	r0x09, W
001d44   6e0f     movwf   0xf, 0           	MOVWF	r0x0f
001d46   2a0f     incf    0xf, 0x1, 0      	INCF	r0x0f, F
001d48   e104     bnz     0x1d52           	BNZ	_00964_DS_
001d4a   2a10     incf    0x10, 0x1, 0     	INCF	r0x10, F
001d4c   e102     bnz     0x1d52           	BNZ	_00964_DS_
001d4e   4a11     infsnz  0x11, 0x1, 0     	INFSNZ	r0x11, F
001d50   2a12     incf    0x12, 0x1, 0     	INCF	r0x12, F
                                           _00964_DS_:
                                           ;	.line	134; /dvpt/pinguino/git/pinguino-ide/pinguino/p8/pinguino/core/stdio.c	if ( (!islong) && ((s16)i < 0) )    // negative 16-bit ?
001d52   5007     movf    0x7, 0, 0        	MOVF	r0x07, W
001d54   e113     bnz     0x1d7c           	BNZ	_00970_DS_
001d56   80d8     bsf     0xd8, 0, 0       	BSF	STATUS, 0
001d58   ae04     btfss   0x4, 0x7, 0      	BTFSS	r0x04, 7
001d5a   90d8     bcf     0xd8, 0, 0       	BCF	STATUS, 0
001d5c   e30f     bnc     0x1d7c           	BNC	_00970_DS_
                                           ;	.line	136; /dvpt/pinguino/git/pinguino-ide/pinguino/p8/pinguino/core/stdio.c	neg = 1;
001d5e   0e01     movlw   0x1              	MOVLW	0x01
001d60   6e0d     movwf   0xd, 0           	MOVWF	r0x0d
                                           ;	.line	137; /dvpt/pinguino/git/pinguino-ide/pinguino/p8/pinguino/core/stdio.c	uns32 = - (s16)i;
001d62   1e04     comf    0x4, 0x1, 0      	COMF	r0x04, F
001d64   6c03     negf    0x3, 0           	NEGF	r0x03
001d66   b4d8     btfsc   0xd8, 0x2, 0     	BTFSC	STATUS, 2
001d68   2a04     incf    0x4, 0x1, 0      	INCF	r0x04, F
001d6a   c003     movff   0x3, 0xf         	MOVFF	r0x03, r0x0f
001d6c   f00f
001d6e   c004     movff   0x4, 0x10        	MOVFF	r0x04, r0x10
001d70   f010
001d72   6ae8     clrf    0xe8, 0          	CLRF	WREG
001d74   be04     btfsc   0x4, 0x7, 0      	BTFSC	r0x04, 7
001d76   0eff     movlw   0xff             	MOVLW	0xff
001d78   6e11     movwf   0x11, 0          	MOVWF	r0x11
001d7a   6e12     movwf   0x12, 0          	MOVWF	r0x12
                                           _00970_DS_:
                                           ;	.line	142; /dvpt/pinguino/git/pinguino-ide/pinguino/p8/pinguino/core/stdio.c	string = buffer + PRINT_BUF_LEN - 1;
001d7c   0e01     movlw   0x1              	MOVLW	HIGH(_pprinti_buffer_1_151 + 11)
001d7e   6e04     movwf   0x4, 0           	MOVWF	r0x04
001d80   0e4b     movlw   0x4b             	MOVLW	LOW(_pprinti_buffer_1_151 + 11)
001d82   6e03     movwf   0x3, 0           	MOVWF	r0x03
001d84   0e80     movlw   0x80             	MOVLW	0x80
001d86   6e05     movwf   0x5, 0           	MOVWF	r0x05
                                           ;	.line	143; /dvpt/pinguino/git/pinguino-ide/pinguino/p8/pinguino/core/stdio.c	*string = '\0';
001d88   6ae5     clrf    0xe5, 0          	CLRF	POSTDEC1
001d8a   c003     movff   0x3, 0xfe9       	MOVFF	r0x03, FSR0L
001d8c   ffe9
001d8e   c004     movff   0x4, 0xff3       	MOVFF	r0x04, PRODL
001d90   fff3
001d92   ec78     call    0x4cf0, 0        	CALL	__gptrput1
001d94   f026
                                           ;	.line	145; /dvpt/pinguino/git/pinguino-ide/pinguino/p8/pinguino/core/stdio.c	while (uns32)
001d96   c003     movff   0x3, 0x6         	MOVFF	r0x03, r0x06
001d98   f006
001d9a   c004     movff   0x4, 0x7         	MOVFF	r0x04, r0x07
001d9c   f007
001d9e   c005     movff   0x5, 0x9         	MOVFF	r0x05, r0x09
001da0   f009
                                           _00974_DS_:
001da2   500f     movf    0xf, 0, 0        	MOVF	r0x0f, W
001da4   1010     iorwf   0x10, 0, 0       	IORWF	r0x10, W
001da6   1011     iorwf   0x11, 0, 0       	IORWF	r0x11, W
001da8   1012     iorwf   0x12, 0, 0       	IORWF	r0x12, W
001daa   b4d8     btfsc   0xd8, 0x2, 0     	BTFSC	STATUS, 2
001dac   d05a     bra     0x1e62           	BRA	_00998_DS_
                                           ;	.line	147; /dvpt/pinguino/git/pinguino-ide/pinguino/p8/pinguino/core/stdio.c	t = uns32 % base;
001dae   c008     movff   0x8, 0x13        	MOVFF	r0x08, r0x13
001db0   f013
001db2   6a14     clrf    0x14, 0          	CLRF	r0x14
001db4   6a15     clrf    0x15, 0          	CLRF	r0x15
001db6   6a16     clrf    0x16, 0          	CLRF	r0x16
001db8   6ae5     clrf    0xe5, 0          	CLRF	POSTDEC1
001dba   6ae5     clrf    0xe5, 0          	CLRF	POSTDEC1
001dbc   6ae5     clrf    0xe5, 0          	CLRF	POSTDEC1
001dbe   5013     movf    0x13, 0, 0       	MOVF	r0x13, W
001dc0   6ee5     movwf   0xe5, 0          	MOVWF	POSTDEC1
001dc2   5012     movf    0x12, 0, 0       	MOVF	r0x12, W
001dc4   6ee5     movwf   0xe5, 0          	MOVWF	POSTDEC1
001dc6   5011     movf    0x11, 0, 0       	MOVF	r0x11, W
001dc8   6ee5     movwf   0xe5, 0          	MOVWF	POSTDEC1
001dca   5010     movf    0x10, 0, 0       	MOVF	r0x10, W
001dcc   6ee5     movwf   0xe5, 0          	MOVWF	POSTDEC1
001dce   500f     movf    0xf, 0, 0        	MOVF	r0x0f, W
001dd0   6ee5     movwf   0xe5, 0          	MOVWF	POSTDEC1
001dd2   ecb7     call    0x336e, 0        	CALL	__modulong
001dd4   f019
001dd6   6e17     movwf   0x17, 0          	MOVWF	r0x17
001dd8   cff3     movff   0xff3, 0x18      	MOVFF	PRODL, r0x18
001dda   f018
001ddc   cff4     movff   0xff4, 0x19      	MOVFF	PRODH, r0x19
001dde   f019
001de0   cfe9     movff   0xfe9, 0x1a      	MOVFF	FSR0L, r0x1a
001de2   f01a
001de4   0e08     movlw   0x8              	MOVLW	0x08
001de6   26e1     addwf   0xe1, 0x1, 0     	ADDWF	FSR1L, F
                                           ;	.line	148; /dvpt/pinguino/git/pinguino-ide/pinguino/p8/pinguino/core/stdio.c	if ( t >= 10 )
001de8   0e00     movlw   0                	MOVLW	0x00
001dea   5c1a     subwf   0x1a, 0, 0       	SUBWF	r0x1a, W
001dec   e108     bnz     0x1dfe           	BNZ	_01029_DS_
001dee   0e00     movlw   0                	MOVLW	0x00
001df0   5c19     subwf   0x19, 0, 0       	SUBWF	r0x19, W
001df2   e105     bnz     0x1dfe           	BNZ	_01029_DS_
001df4   0e00     movlw   0                	MOVLW	0x00
001df6   5c18     subwf   0x18, 0, 0       	SUBWF	r0x18, W
001df8   e102     bnz     0x1dfe           	BNZ	_01029_DS_
001dfa   0e0a     movlw   0xa              	MOVLW	0x0a
001dfc   5c17     subwf   0x17, 0, 0       	SUBWF	r0x17, W
                                           _01029_DS_:
001dfe   e306     bnc     0x1e0c           	BNC	_00973_DS_
                                           ;	.line	149; /dvpt/pinguino/git/pinguino-ide/pinguino/p8/pinguino/core/stdio.c	t += letterbase - '0' - 10;
001e00   c00c     movff   0xc, 0x1b        	MOVFF	r0x0c, r0x1b
001e02   f01b
001e04   0ec6     movlw   0xc6             	MOVLW	0xc6
001e06   261b     addwf   0x1b, 0x1, 0     	ADDWF	r0x1b, F
001e08   501b     movf    0x1b, 0, 0       	MOVF	r0x1b, W
001e0a   2617     addwf   0x17, 0x1, 0     	ADDWF	r0x17, F
                                           _00973_DS_:
                                           ;	.line	150; /dvpt/pinguino/git/pinguino-ide/pinguino/p8/pinguino/core/stdio.c	*--string = t + '0';
001e0c   0eff     movlw   0xff             	MOVLW	0xff
001e0e   2606     addwf   0x6, 0x1, 0      	ADDWF	r0x06, F
001e10   2207     addwfc  0x7, 0x1, 0      	ADDWFC	r0x07, F
001e12   2209     addwfc  0x9, 0x1, 0      	ADDWFC	r0x09, F
001e14   0e30     movlw   0x30             	MOVLW	0x30
001e16   2617     addwf   0x17, 0x1, 0     	ADDWF	r0x17, F
001e18   c017     movff   0x17, 0xfe5      	MOVFF	r0x17, POSTDEC1
001e1a   ffe5
001e1c   c006     movff   0x6, 0xfe9       	MOVFF	r0x06, FSR0L
001e1e   ffe9
001e20   c007     movff   0x7, 0xff3       	MOVFF	r0x07, PRODL
001e22   fff3
001e24   5009     movf    0x9, 0, 0        	MOVF	r0x09, W
001e26   ec78     call    0x4cf0, 0        	CALL	__gptrput1
001e28   f026
                                           ;	.line	151; /dvpt/pinguino/git/pinguino-ide/pinguino/p8/pinguino/core/stdio.c	uns32 /= base;
001e2a   5016     movf    0x16, 0, 0       	MOVF	r0x16, W
001e2c   6ee5     movwf   0xe5, 0          	MOVWF	POSTDEC1
001e2e   5015     movf    0x15, 0, 0       	MOVF	r0x15, W
001e30   6ee5     movwf   0xe5, 0          	MOVWF	POSTDEC1
001e32   5014     movf    0x14, 0, 0       	MOVF	r0x14, W
001e34   6ee5     movwf   0xe5, 0          	MOVWF	POSTDEC1
001e36   5013     movf    0x13, 0, 0       	MOVF	r0x13, W
001e38   6ee5     movwf   0xe5, 0          	MOVWF	POSTDEC1
001e3a   5012     movf    0x12, 0, 0       	MOVF	r0x12, W
001e3c   6ee5     movwf   0xe5, 0          	MOVWF	POSTDEC1
001e3e   5011     movf    0x11, 0, 0       	MOVF	r0x11, W
001e40   6ee5     movwf   0xe5, 0          	MOVWF	POSTDEC1
001e42   5010     movf    0x10, 0, 0       	MOVF	r0x10, W
001e44   6ee5     movwf   0xe5, 0          	MOVWF	POSTDEC1
001e46   500f     movf    0xf, 0, 0        	MOVF	r0x0f, W
001e48   6ee5     movwf   0xe5, 0          	MOVWF	POSTDEC1
001e4a   ec67     call    0x36ce, 0        	CALL	__divulong
001e4c   f01b
001e4e   6e0f     movwf   0xf, 0           	MOVWF	r0x0f
001e50   cff3     movff   0xff3, 0x10      	MOVFF	PRODL, r0x10
001e52   f010
001e54   cff4     movff   0xff4, 0x11      	MOVFF	PRODH, r0x11
001e56   f011
001e58   cfe9     movff   0xfe9, 0x12      	MOVFF	FSR0L, r0x12
001e5a   f012
001e5c   0e08     movlw   0x8              	MOVLW	0x08
001e5e   26e1     addwf   0xe1, 0x1, 0     	ADDWF	FSR1L, F
001e60   d7a0     bra     0x1da2           	BRA	_00974_DS_
                                           _00998_DS_:
001e62   c006     movff   0x6, 0x3         	MOVFF	r0x06, r0x03
001e64   f003
001e66   c007     movff   0x7, 0x4         	MOVFF	r0x07, r0x04
001e68   f004
001e6a   c009     movff   0x9, 0x5         	MOVFF	r0x09, r0x05
001e6c   f005
                                           ;	.line	154; /dvpt/pinguino/git/pinguino-ide/pinguino/p8/pinguino/core/stdio.c	if (neg)
001e6e   500d     movf    0xd, 0, 0        	MOVF	r0x0d, W
001e70   e021     bz      0x1eb4           	BZ	_00982_DS_
                                           ;	.line	156; /dvpt/pinguino/git/pinguino-ide/pinguino/p8/pinguino/core/stdio.c	if (width && (pad & PAD_ZERO))
001e72   500a     movf    0xa, 0, 0        	MOVF	r0x0a, W
001e74   e012     bz      0x1e9a           	BZ	_00978_DS_
001e76   a20b     btfss   0xb, 0x1, 0      	BTFSS	r0x0b, 1
001e78   d010     bra     0x1e9a           	BRA	_00978_DS_
                                           ;	.line	158; /dvpt/pinguino/git/pinguino-ide/pinguino/p8/pinguino/core/stdio.c	pprintc(out, '-');
001e7a   0e2d     movlw   0x2d             	MOVLW	0x2d
001e7c   6ee5     movwf   0xe5, 0          	MOVWF	POSTDEC1
001e7e   5002     movf    0x2, 0, 0        	MOVF	r0x02, W
001e80   6ee5     movwf   0xe5, 0          	MOVWF	POSTDEC1
001e82   5001     movf    0x1, 0, 0        	MOVF	r0x01, W
001e84   6ee5     movwf   0xe5, 0          	MOVWF	POSTDEC1
001e86   5000     movf    0, 0, 0          	MOVF	r0x00, W
001e88   6ee5     movwf   0xe5, 0          	MOVWF	POSTDEC1
001e8a   ecfe     call    0x39fc, 0        	CALL	_pprintc
001e8c   f01c
001e8e   0e04     movlw   0x4              	MOVLW	0x04
001e90   26e1     addwf   0xe1, 0x1, 0     	ADDWF	FSR1L, F
                                           ;	.line	159; /dvpt/pinguino/git/pinguino-ide/pinguino/p8/pinguino/core/stdio.c	++pc;
001e92   0e01     movlw   0x1              	MOVLW	0x01
001e94   6e0e     movwf   0xe, 0           	MOVWF	r0x0e
                                           ;	.line	160; /dvpt/pinguino/git/pinguino-ide/pinguino/p8/pinguino/core/stdio.c	--width;
001e96   060a     decf    0xa, 0x1, 0      	DECF	r0x0a, F
001e98   d00d     bra     0x1eb4           	BRA	_00982_DS_
                                           _00978_DS_:
                                           ;	.line	164; /dvpt/pinguino/git/pinguino-ide/pinguino/p8/pinguino/core/stdio.c	*--string = '-';
001e9a   0eff     movlw   0xff             	MOVLW	0xff
001e9c   2603     addwf   0x3, 0x1, 0      	ADDWF	r0x03, F
001e9e   2204     addwfc  0x4, 0x1, 0      	ADDWFC	r0x04, F
001ea0   2205     addwfc  0x5, 0x1, 0      	ADDWFC	r0x05, F
001ea2   0e2d     movlw   0x2d             	MOVLW	0x2d
001ea4   6ee5     movwf   0xe5, 0          	MOVWF	POSTDEC1
001ea6   c003     movff   0x3, 0xfe9       	MOVFF	r0x03, FSR0L
001ea8   ffe9
001eaa   c004     movff   0x4, 0xff3       	MOVFF	r0x04, PRODL
001eac   fff3
001eae   5005     movf    0x5, 0, 0        	MOVF	r0x05, W
001eb0   ec78     call    0x4cf0, 0        	CALL	__gptrput1
001eb2   f026
                                           _00982_DS_:
                                           ;	.line	168; /dvpt/pinguino/git/pinguino-ide/pinguino/p8/pinguino/core/stdio.c	return pc + pprints(out, string, width, pad);
001eb4   500b     movf    0xb, 0, 0        	MOVF	r0x0b, W
001eb6   6ee5     movwf   0xe5, 0          	MOVWF	POSTDEC1
001eb8   500a     movf    0xa, 0, 0        	MOVF	r0x0a, W
001eba   6ee5     movwf   0xe5, 0          	MOVWF	POSTDEC1
001ebc   5005     movf    0x5, 0, 0        	MOVF	r0x05, W
001ebe   6ee5     movwf   0xe5, 0          	MOVWF	POSTDEC1
001ec0   5004     movf    0x4, 0, 0        	MOVF	r0x04, W
001ec2   6ee5     movwf   0xe5, 0          	MOVWF	POSTDEC1
001ec4   5003     movf    0x3, 0, 0        	MOVF	r0x03, W
001ec6   6ee5     movwf   0xe5, 0          	MOVWF	POSTDEC1
001ec8   5002     movf    0x2, 0, 0        	MOVF	r0x02, W
001eca   6ee5     movwf   0xe5, 0          	MOVWF	POSTDEC1
001ecc   5001     movf    0x1, 0, 0        	MOVF	r0x01, W
001ece   6ee5     movwf   0xe5, 0          	MOVWF	POSTDEC1
001ed0   5000     movf    0, 0, 0          	MOVF	r0x00, W
001ed2   6ee5     movwf   0xe5, 0          	MOVWF	POSTDEC1
001ed4   ec4a     call    0x2c94, 0        	CALL	_pprints
001ed6   f016
001ed8   6e00     movwf   0, 0             	MOVWF	r0x00
001eda   0e08     movlw   0x8              	MOVLW	0x08
001edc   26e1     addwf   0xe1, 0x1, 0     	ADDWF	FSR1L, F
001ede   500e     movf    0xe, 0, 0        	MOVF	r0x0e, W
001ee0   2600     addwf   0, 0x1, 0        	ADDWF	r0x00, F
001ee2   5000     movf    0, 0, 0          	MOVF	r0x00, W
                                           _00983_DS_:
001ee4   cfe4     movff   0xfe4, 0x1b      	MOVFF	PREINC1, r0x1b
001ee6   f01b
001ee8   cfe4     movff   0xfe4, 0x1a      	MOVFF	PREINC1, r0x1a
001eea   f01a
001eec   cfe4     movff   0xfe4, 0x19      	MOVFF	PREINC1, r0x19
001eee   f019
001ef0   cfe4     movff   0xfe4, 0x18      	MOVFF	PREINC1, r0x18
001ef2   f018
001ef4   cfe4     movff   0xfe4, 0x17      	MOVFF	PREINC1, r0x17
001ef6   f017
001ef8   cfe4     movff   0xfe4, 0x16      	MOVFF	PREINC1, r0x16
001efa   f016
001efc   cfe4     movff   0xfe4, 0x15      	MOVFF	PREINC1, r0x15
001efe   f015
001f00   cfe4     movff   0xfe4, 0x14      	MOVFF	PREINC1, r0x14
001f02   f014
001f04   cfe4     movff   0xfe4, 0x13      	MOVFF	PREINC1, r0x13
001f06   f013
001f08   cfe4     movff   0xfe4, 0x12      	MOVFF	PREINC1, r0x12
001f0a   f012
001f0c   cfe4     movff   0xfe4, 0x11      	MOVFF	PREINC1, r0x11
001f0e   f011
001f10   cfe4     movff   0xfe4, 0x10      	MOVFF	PREINC1, r0x10
001f12   f010
001f14   cfe4     movff   0xfe4, 0xf       	MOVFF	PREINC1, r0x0f
001f16   f00f
001f18   cfe4     movff   0xfe4, 0xe       	MOVFF	PREINC1, r0x0e
001f1a   f00e
001f1c   cfe4     movff   0xfe4, 0xd       	MOVFF	PREINC1, r0x0d
001f1e   f00d
001f20   cfe4     movff   0xfe4, 0xc       	MOVFF	PREINC1, r0x0c
001f22   f00c
001f24   cfe4     movff   0xfe4, 0xb       	MOVFF	PREINC1, r0x0b
001f26   f00b
001f28   cfe4     movff   0xfe4, 0xa       	MOVFF	PREINC1, r0x0a
001f2a   f00a
001f2c   cfe4     movff   0xfe4, 0x9       	MOVFF	PREINC1, r0x09
001f2e   f009
001f30   cfe4     movff   0xfe4, 0x8       	MOVFF	PREINC1, r0x08
001f32   f008
001f34   cfe4     movff   0xfe4, 0x7       	MOVFF	PREINC1, r0x07
001f36   f007
001f38   cfe4     movff   0xfe4, 0x6       	MOVFF	PREINC1, r0x06
001f3a   f006
001f3c   cfe4     movff   0xfe4, 0x5       	MOVFF	PREINC1, r0x05
001f3e   f005
001f40   cfe4     movff   0xfe4, 0x4       	MOVFF	PREINC1, r0x04
001f42   f004
001f44   cfe4     movff   0xfe4, 0x3       	MOVFF	PREINC1, r0x03
001f46   f003
001f48   cfe4     movff   0xfe4, 0x2       	MOVFF	PREINC1, r0x02
001f4a   f002
001f4c   cfe4     movff   0xfe4, 0x1       	MOVFF	PREINC1, r0x01
001f4e   f001
001f50   cfe4     movff   0xfe4, 0         	MOVFF	PREINC1, r0x00
001f52   f000
001f54   cfe4     movff   0xfe4, 0xfd9     	MOVFF	PREINC1, FSR2L
001f56   ffd9
001f58   0012     return  0                	RETURN	
                                           
                                           ; ; Starting pCode block
                                           S_main__pprints	code
                                           _pprints:
                                           ;	.line	62; /dvpt/pinguino/git/pinguino-ide/pinguino/p8/pinguino/core/stdio.c	static int pprints(u8 **out, const u8 *string, u8 width, u8 pad)
002c94   cfd9     movff   0xfd9, 0xfe5     	MOVFF	FSR2L, POSTDEC1
002c96   ffe5
002c98   cfe1     movff   0xfe1, 0xfd9     	MOVFF	FSR1L, FSR2L
002c9a   ffd9
002c9c   c000     movff   0, 0xfe5         	MOVFF	r0x00, POSTDEC1
002c9e   ffe5
002ca0   c001     movff   0x1, 0xfe5       	MOVFF	r0x01, POSTDEC1
002ca2   ffe5
002ca4   c002     movff   0x2, 0xfe5       	MOVFF	r0x02, POSTDEC1
002ca6   ffe5
002ca8   c003     movff   0x3, 0xfe5       	MOVFF	r0x03, POSTDEC1
002caa   ffe5
002cac   c004     movff   0x4, 0xfe5       	MOVFF	r0x04, POSTDEC1
002cae   ffe5
002cb0   c005     movff   0x5, 0xfe5       	MOVFF	r0x05, POSTDEC1
002cb2   ffe5
002cb4   c006     movff   0x6, 0xfe5       	MOVFF	r0x06, POSTDEC1
002cb6   ffe5
002cb8   c007     movff   0x7, 0xfe5       	MOVFF	r0x07, POSTDEC1
002cba   ffe5
002cbc   c008     movff   0x8, 0xfe5       	MOVFF	r0x08, POSTDEC1
002cbe   ffe5
002cc0   c009     movff   0x9, 0xfe5       	MOVFF	r0x09, POSTDEC1
002cc2   ffe5
002cc4   c00a     movff   0xa, 0xfe5       	MOVFF	r0x0a, POSTDEC1
002cc6   ffe5
002cc8   c00b     movff   0xb, 0xfe5       	MOVFF	r0x0b, POSTDEC1
002cca   ffe5
002ccc   c00c     movff   0xc, 0xfe5       	MOVFF	r0x0c, POSTDEC1
002cce   ffe5
002cd0   c00d     movff   0xd, 0xfe5       	MOVFF	r0x0d, POSTDEC1
002cd2   ffe5
002cd4   c00e     movff   0xe, 0xfe5       	MOVFF	r0x0e, POSTDEC1
002cd6   ffe5
002cd8   0e02     movlw   0x2              	MOVLW	0x02
002cda   cfdb     movff   0xfdb, 0         	MOVFF	PLUSW2, r0x00
002cdc   f000
002cde   0e03     movlw   0x3              	MOVLW	0x03
002ce0   cfdb     movff   0xfdb, 0x1       	MOVFF	PLUSW2, r0x01
002ce2   f001
002ce4   0e04     movlw   0x4              	MOVLW	0x04
002ce6   cfdb     movff   0xfdb, 0x2       	MOVFF	PLUSW2, r0x02
002ce8   f002
002cea   0e05     movlw   0x5              	MOVLW	0x05
002cec   cfdb     movff   0xfdb, 0x3       	MOVFF	PLUSW2, r0x03
002cee   f003
002cf0   0e06     movlw   0x6              	MOVLW	0x06
002cf2   cfdb     movff   0xfdb, 0x4       	MOVFF	PLUSW2, r0x04
002cf4   f004
002cf6   0e07     movlw   0x7              	MOVLW	0x07
002cf8   cfdb     movff   0xfdb, 0x5       	MOVFF	PLUSW2, r0x05
002cfa   f005
002cfc   0e08     movlw   0x8              	MOVLW	0x08
002cfe   cfdb     movff   0xfdb, 0x6       	MOVFF	PLUSW2, r0x06
002d00   f006
002d02   0e09     movlw   0x9              	MOVLW	0x09
002d04   cfdb     movff   0xfdb, 0x7       	MOVFF	PLUSW2, r0x07
002d06   f007
                                           ;	.line	64; /dvpt/pinguino/git/pinguino-ide/pinguino/p8/pinguino/core/stdio.c	register u8 pc = 0;
002d08   6a08     clrf    0x8, 0           	CLRF	r0x08
                                           ;	.line	65; /dvpt/pinguino/git/pinguino-ide/pinguino/p8/pinguino/core/stdio.c	u8 padchar = ' ';
002d0a   0e20     movlw   0x20             	MOVLW	0x20
002d0c   6e09     movwf   0x9, 0           	MOVWF	r0x09
                                           ;	.line	69; /dvpt/pinguino/git/pinguino-ide/pinguino/p8/pinguino/core/stdio.c	if (width > 0)
002d0e   5006     movf    0x6, 0, 0        	MOVF	r0x06, W
002d10   e022     bz      0x2d56           	BZ	_00889_DS_
                                           ;	.line	71; /dvpt/pinguino/git/pinguino-ide/pinguino/p8/pinguino/core/stdio.c	for (ptr = string; *ptr; ++ptr)
002d12   6a0a     clrf    0xa, 0           	CLRF	r0x0a
002d14   c003     movff   0x3, 0xb         	MOVFF	r0x03, r0x0b
002d16   f00b
002d18   c004     movff   0x4, 0xc         	MOVFF	r0x04, r0x0c
002d1a   f00c
002d1c   c005     movff   0x5, 0xd         	MOVFF	r0x05, r0x0d
002d1e   f00d
                                           _00896_DS_:
002d20   c00b     movff   0xb, 0xfe9       	MOVFF	r0x0b, FSR0L
002d22   ffe9
002d24   c00c     movff   0xc, 0xff3       	MOVFF	r0x0c, PRODL
002d26   fff3
002d28   500d     movf    0xd, 0, 0        	MOVF	r0x0d, W
002d2a   ec4b     call    0x4c96, 0        	CALL	__gptrget1
002d2c   f026
002d2e   6e0e     movwf   0xe, 0           	MOVWF	r0x0e
002d30   500e     movf    0xe, 0, 0        	MOVF	r0x0e, W
002d32   e006     bz      0x2d40           	BZ	_00882_DS_
                                           ;	.line	72; /dvpt/pinguino/git/pinguino-ide/pinguino/p8/pinguino/core/stdio.c	++len;
002d34   2a0a     incf    0xa, 0x1, 0      	INCF	r0x0a, F
                                           ;	.line	71; /dvpt/pinguino/git/pinguino-ide/pinguino/p8/pinguino/core/stdio.c	for (ptr = string; *ptr; ++ptr)
002d36   2a0b     incf    0xb, 0x1, 0      	INCF	r0x0b, F
002d38   e3f3     bnc     0x2d20           	BNC	_00896_DS_
002d3a   4a0c     infsnz  0xc, 0x1, 0      	INFSNZ	r0x0c, F
002d3c   2a0d     incf    0xd, 0x1, 0      	INCF	r0x0d, F
                                           _00952_DS_:
002d3e   d7f0     bra     0x2d20           	BRA	_00896_DS_
                                           _00882_DS_:
                                           ;	.line	73; /dvpt/pinguino/git/pinguino-ide/pinguino/p8/pinguino/core/stdio.c	if (len >= width)
002d40   5006     movf    0x6, 0, 0        	MOVF	r0x06, W
002d42   5c0a     subwf   0xa, 0, 0        	SUBWF	r0x0a, W
002d44   e302     bnc     0x2d4a           	BNC	_00884_DS_
                                           ;	.line	74; /dvpt/pinguino/git/pinguino-ide/pinguino/p8/pinguino/core/stdio.c	width = 0;
002d46   6a06     clrf    0x6, 0           	CLRF	r0x06
002d48   d002     bra     0x2d4e           	BRA	_00885_DS_
                                           _00884_DS_:
                                           ;	.line	76; /dvpt/pinguino/git/pinguino-ide/pinguino/p8/pinguino/core/stdio.c	width -= len;
002d4a   500a     movf    0xa, 0, 0        	MOVF	r0x0a, W
002d4c   5e06     subwf   0x6, 0x1, 0      	SUBWF	r0x06, F
                                           _00885_DS_:
                                           ;	.line	77; /dvpt/pinguino/git/pinguino-ide/pinguino/p8/pinguino/core/stdio.c	if (pad & PAD_ZERO) padchar = '0';
002d4e   a207     btfss   0x7, 0x1, 0      	BTFSS	r0x07, 1
002d50   d002     bra     0x2d56           	BRA	_00889_DS_
002d52   0e30     movlw   0x30             	MOVLW	0x30
002d54   6e09     movwf   0x9, 0           	MOVWF	r0x09
                                           _00889_DS_:
                                           ;	.line	79; /dvpt/pinguino/git/pinguino-ide/pinguino/p8/pinguino/core/stdio.c	if (!(pad & PAD_RIGHT))
002d56   b007     btfsc   0x7, 0, 0        	BTFSC	r0x07, 0
002d58   d019     bra     0x2d8c           	BRA	_00921_DS_
002d5a   6a07     clrf    0x7, 0           	CLRF	r0x07
002d5c   c006     movff   0x6, 0xa         	MOVFF	r0x06, r0x0a
002d5e   f00a
                                           _00899_DS_:
                                           ;	.line	81; /dvpt/pinguino/git/pinguino-ide/pinguino/p8/pinguino/core/stdio.c	for ( ; width > 0; --width)
002d60   500a     movf    0xa, 0, 0        	MOVF	r0x0a, W
002d62   e105     bnz     0x2d6e           	BNZ	_00898_DS_
002d64   c007     movff   0x7, 0x8         	MOVFF	r0x07, r0x08
002d66   f008
002d68   c00a     movff   0xa, 0x6         	MOVFF	r0x0a, r0x06
002d6a   f006
002d6c   d00f     bra     0x2d8c           	BRA	_00921_DS_
                                           _00898_DS_:
                                           ;	.line	83; /dvpt/pinguino/git/pinguino-ide/pinguino/p8/pinguino/core/stdio.c	pprintc(out, padchar);
002d6e   5009     movf    0x9, 0, 0        	MOVF	r0x09, W
002d70   6ee5     movwf   0xe5, 0          	MOVWF	POSTDEC1
002d72   5002     movf    0x2, 0, 0        	MOVF	r0x02, W
002d74   6ee5     movwf   0xe5, 0          	MOVWF	POSTDEC1
002d76   5001     movf    0x1, 0, 0        	MOVF	r0x01, W
002d78   6ee5     movwf   0xe5, 0          	MOVWF	POSTDEC1
002d7a   5000     movf    0, 0, 0          	MOVF	r0x00, W
002d7c   6ee5     movwf   0xe5, 0          	MOVWF	POSTDEC1
002d7e   ecfe     call    0x39fc, 0        	CALL	_pprintc
002d80   f01c
002d82   0e04     movlw   0x4              	MOVLW	0x04
002d84   26e1     addwf   0xe1, 0x1, 0     	ADDWF	FSR1L, F
                                           ;	.line	84; /dvpt/pinguino/git/pinguino-ide/pinguino/p8/pinguino/core/stdio.c	++pc;
002d86   2a07     incf    0x7, 0x1, 0      	INCF	r0x07, F
                                           ;	.line	81; /dvpt/pinguino/git/pinguino-ide/pinguino/p8/pinguino/core/stdio.c	for ( ; width > 0; --width)
002d88   060a     decf    0xa, 0x1, 0      	DECF	r0x0a, F
002d8a   d7ea     bra     0x2d60           	BRA	_00899_DS_
                                           _00921_DS_:
002d8c   c008     movff   0x8, 0x7         	MOVFF	r0x08, r0x07
002d8e   f007
                                           _00902_DS_:
                                           ;	.line	87; /dvpt/pinguino/git/pinguino-ide/pinguino/p8/pinguino/core/stdio.c	for ( ; *string ; ++string)
002d90   c003     movff   0x3, 0xfe9       	MOVFF	r0x03, FSR0L
002d92   ffe9
002d94   c004     movff   0x4, 0xff3       	MOVFF	r0x04, PRODL
002d96   fff3
002d98   5005     movf    0x5, 0, 0        	MOVF	r0x05, W
002d9a   ec4b     call    0x4c96, 0        	CALL	__gptrget1
002d9c   f026
002d9e   6e08     movwf   0x8, 0           	MOVWF	r0x08
002da0   5008     movf    0x8, 0, 0        	MOVF	r0x08, W
002da2   e012     bz      0x2dc8           	BZ	_00923_DS_
                                           ;	.line	89; /dvpt/pinguino/git/pinguino-ide/pinguino/p8/pinguino/core/stdio.c	pprintc(out, *string);
002da4   5008     movf    0x8, 0, 0        	MOVF	r0x08, W
002da6   6ee5     movwf   0xe5, 0          	MOVWF	POSTDEC1
002da8   5002     movf    0x2, 0, 0        	MOVF	r0x02, W
002daa   6ee5     movwf   0xe5, 0          	MOVWF	POSTDEC1
002dac   5001     movf    0x1, 0, 0        	MOVF	r0x01, W
002dae   6ee5     movwf   0xe5, 0          	MOVWF	POSTDEC1
002db0   5000     movf    0, 0, 0          	MOVF	r0x00, W
002db2   6ee5     movwf   0xe5, 0          	MOVWF	POSTDEC1
002db4   ecfe     call    0x39fc, 0        	CALL	_pprintc
002db6   f01c
002db8   0e04     movlw   0x4              	MOVLW	0x04
002dba   26e1     addwf   0xe1, 0x1, 0     	ADDWF	FSR1L, F
                                           ;	.line	90; /dvpt/pinguino/git/pinguino-ide/pinguino/p8/pinguino/core/stdio.c	++pc;
002dbc   2a07     incf    0x7, 0x1, 0      	INCF	r0x07, F
                                           ;	.line	87; /dvpt/pinguino/git/pinguino-ide/pinguino/p8/pinguino/core/stdio.c	for ( ; *string ; ++string)
002dbe   2a03     incf    0x3, 0x1, 0      	INCF	r0x03, F
002dc0   e3e7     bnc     0x2d90           	BNC	_00902_DS_
002dc2   4a04     infsnz  0x4, 0x1, 0      	INFSNZ	r0x04, F
002dc4   2a05     incf    0x5, 0x1, 0      	INCF	r0x05, F
                                           _00956_DS_:
002dc6   d7e4     bra     0x2d90           	BRA	_00902_DS_
                                           _00923_DS_:
002dc8   c007     movff   0x7, 0x3         	MOVFF	r0x07, r0x03
002dca   f003
002dcc   c006     movff   0x6, 0x4         	MOVFF	r0x06, r0x04
002dce   f004
                                           _00905_DS_:
                                           ;	.line	92; /dvpt/pinguino/git/pinguino-ide/pinguino/p8/pinguino/core/stdio.c	for ( ; width > 0; --width)
002dd0   5004     movf    0x4, 0, 0        	MOVF	r0x04, W
002dd2   e00f     bz      0x2df2           	BZ	_00894_DS_
                                           ;	.line	94; /dvpt/pinguino/git/pinguino-ide/pinguino/p8/pinguino/core/stdio.c	pprintc(out, padchar);
002dd4   5009     movf    0x9, 0, 0        	MOVF	r0x09, W
002dd6   6ee5     movwf   0xe5, 0          	MOVWF	POSTDEC1
002dd8   5002     movf    0x2, 0, 0        	MOVF	r0x02, W
002dda   6ee5     movwf   0xe5, 0          	MOVWF	POSTDEC1
002ddc   5001     movf    0x1, 0, 0        	MOVF	r0x01, W
002dde   6ee5     movwf   0xe5, 0          	MOVWF	POSTDEC1
002de0   5000     movf    0, 0, 0          	MOVF	r0x00, W
002de2   6ee5     movwf   0xe5, 0          	MOVWF	POSTDEC1
002de4   ecfe     call    0x39fc, 0        	CALL	_pprintc
002de6   f01c
002de8   0e04     movlw   0x4              	MOVLW	0x04
002dea   26e1     addwf   0xe1, 0x1, 0     	ADDWF	FSR1L, F
                                           ;	.line	95; /dvpt/pinguino/git/pinguino-ide/pinguino/p8/pinguino/core/stdio.c	++pc;
002dec   2a03     incf    0x3, 0x1, 0      	INCF	r0x03, F
                                           ;	.line	92; /dvpt/pinguino/git/pinguino-ide/pinguino/p8/pinguino/core/stdio.c	for ( ; width > 0; --width)
002dee   0604     decf    0x4, 0x1, 0      	DECF	r0x04, F
002df0   d7ef     bra     0x2dd0           	BRA	_00905_DS_
                                           ; =DF= MOVFF: replaced by CRLF/SETF
                                           _00894_DS_:
                                           ;	.line	98; /dvpt/pinguino/git/pinguino-ide/pinguino/p8/pinguino/core/stdio.c	return pc;
002df2   6af3     clrf    0xf3, 0          	CLRF	PRODL
002df4   5003     movf    0x3, 0, 0        	MOVF	r0x03, W
002df6   cfe4     movff   0xfe4, 0xe       	MOVFF	PREINC1, r0x0e
002df8   f00e
002dfa   cfe4     movff   0xfe4, 0xd       	MOVFF	PREINC1, r0x0d
002dfc   f00d
002dfe   cfe4     movff   0xfe4, 0xc       	MOVFF	PREINC1, r0x0c
002e00   f00c
002e02   cfe4     movff   0xfe4, 0xb       	MOVFF	PREINC1, r0x0b
002e04   f00b
002e06   cfe4     movff   0xfe4, 0xa       	MOVFF	PREINC1, r0x0a
002e08   f00a
002e0a   cfe4     movff   0xfe4, 0x9       	MOVFF	PREINC1, r0x09
002e0c   f009
002e0e   cfe4     movff   0xfe4, 0x8       	MOVFF	PREINC1, r0x08
002e10   f008
002e12   cfe4     movff   0xfe4, 0x7       	MOVFF	PREINC1, r0x07
002e14   f007
002e16   cfe4     movff   0xfe4, 0x6       	MOVFF	PREINC1, r0x06
002e18   f006
002e1a   cfe4     movff   0xfe4, 0x5       	MOVFF	PREINC1, r0x05
002e1c   f005
002e1e   cfe4     movff   0xfe4, 0x4       	MOVFF	PREINC1, r0x04
002e20   f004
002e22   cfe4     movff   0xfe4, 0x3       	MOVFF	PREINC1, r0x03
002e24   f003
002e26   cfe4     movff   0xfe4, 0x2       	MOVFF	PREINC1, r0x02
002e28   f002
002e2a   cfe4     movff   0xfe4, 0x1       	MOVFF	PREINC1, r0x01
002e2c   f001
002e2e   cfe4     movff   0xfe4, 0         	MOVFF	PREINC1, r0x00
002e30   f000
002e32   cfe4     movff   0xfe4, 0xfd9     	MOVFF	PREINC1, FSR2L
002e34   ffd9
002e36   0012     return  0                	RETURN	
                                           
                                           ; ; Starting pCode block
                                           S_main__pprintc	code
                                           _pprintc:
                                           ;	.line	42; /dvpt/pinguino/git/pinguino-ide/pinguino/p8/pinguino/core/stdio.c	static void pprintc(u8 **str, u8 c)
0039fc   cfd9     movff   0xfd9, 0xfe5     	MOVFF	FSR2L, POSTDEC1
0039fe   ffe5
003a00   cfe1     movff   0xfe1, 0xfd9     	MOVFF	FSR1L, FSR2L
003a02   ffd9
003a04   c000     movff   0, 0xfe5         	MOVFF	r0x00, POSTDEC1
003a06   ffe5
003a08   c001     movff   0x1, 0xfe5       	MOVFF	r0x01, POSTDEC1
003a0a   ffe5
003a0c   c002     movff   0x2, 0xfe5       	MOVFF	r0x02, POSTDEC1
003a0e   ffe5
003a10   c003     movff   0x3, 0xfe5       	MOVFF	r0x03, POSTDEC1
003a12   ffe5
003a14   c004     movff   0x4, 0xfe5       	MOVFF	r0x04, POSTDEC1
003a16   ffe5
003a18   c005     movff   0x5, 0xfe5       	MOVFF	r0x05, POSTDEC1
003a1a   ffe5
003a1c   c006     movff   0x6, 0xfe5       	MOVFF	r0x06, POSTDEC1
003a1e   ffe5
003a20   0e02     movlw   0x2              	MOVLW	0x02
003a22   cfdb     movff   0xfdb, 0         	MOVFF	PLUSW2, r0x00
003a24   f000
003a26   0e03     movlw   0x3              	MOVLW	0x03
003a28   cfdb     movff   0xfdb, 0x1       	MOVFF	PLUSW2, r0x01
003a2a   f001
003a2c   0e04     movlw   0x4              	MOVLW	0x04
003a2e   cfdb     movff   0xfdb, 0x2       	MOVFF	PLUSW2, r0x02
003a30   f002
003a32   0e05     movlw   0x5              	MOVLW	0x05
003a34   cfdb     movff   0xfdb, 0x3       	MOVFF	PLUSW2, r0x03
003a36   f003
                                           ;	.line	44; /dvpt/pinguino/git/pinguino-ide/pinguino/p8/pinguino/core/stdio.c	if (str)
003a38   5000     movf    0, 0, 0          	MOVF	r0x00, W
003a3a   1001     iorwf   0x1, 0, 0        	IORWF	r0x01, W
003a3c   1002     iorwf   0x2, 0, 0        	IORWF	r0x02, W
003a3e   e033     bz      0x3aa6           	BZ	_00869_DS_
                                           ;	.line	46; /dvpt/pinguino/git/pinguino-ide/pinguino/p8/pinguino/core/stdio.c	**str = c;
003a40   c000     movff   0, 0xfe9         	MOVFF	r0x00, FSR0L
003a42   ffe9
003a44   c001     movff   0x1, 0xff3       	MOVFF	r0x01, PRODL
003a46   fff3
003a48   5002     movf    0x2, 0, 0        	MOVF	r0x02, W
003a4a   ecfe     call    0x49fc, 0        	CALL	__gptrget3
003a4c   f024
003a4e   6e04     movwf   0x4, 0           	MOVWF	r0x04
003a50   cff3     movff   0xff3, 0x5       	MOVFF	PRODL, r0x05
003a52   f005
003a54   cff4     movff   0xff4, 0x6       	MOVFF	PRODH, r0x06
003a56   f006
003a58   c003     movff   0x3, 0xfe5       	MOVFF	r0x03, POSTDEC1
003a5a   ffe5
003a5c   c004     movff   0x4, 0xfe9       	MOVFF	r0x04, FSR0L
003a5e   ffe9
003a60   c005     movff   0x5, 0xff3       	MOVFF	r0x05, PRODL
003a62   fff3
003a64   5006     movf    0x6, 0, 0        	MOVF	r0x06, W
003a66   ec78     call    0x4cf0, 0        	CALL	__gptrput1
003a68   f026
                                           ;	.line	47; /dvpt/pinguino/git/pinguino-ide/pinguino/p8/pinguino/core/stdio.c	++(*str);
003a6a   c000     movff   0, 0xfe9         	MOVFF	r0x00, FSR0L
003a6c   ffe9
003a6e   c001     movff   0x1, 0xff3       	MOVFF	r0x01, PRODL
003a70   fff3
003a72   5002     movf    0x2, 0, 0        	MOVF	r0x02, W
003a74   ecfe     call    0x49fc, 0        	CALL	__gptrget3
003a76   f024
003a78   6e04     movwf   0x4, 0           	MOVWF	r0x04
003a7a   cff3     movff   0xff3, 0x5       	MOVFF	PRODL, r0x05
003a7c   f005
003a7e   cff4     movff   0xff4, 0x6       	MOVFF	PRODH, r0x06
003a80   f006
003a82   2a04     incf    0x4, 0x1, 0      	INCF	r0x04, F
003a84   e302     bnc     0x3a8a           	BNC	_00876_DS_
003a86   4a05     infsnz  0x5, 0x1, 0      	INFSNZ	r0x05, F
003a88   2a06     incf    0x6, 0x1, 0      	INCF	r0x06, F
                                           _00876_DS_:
003a8a   c004     movff   0x4, 0xfe5       	MOVFF	r0x04, POSTDEC1
003a8c   ffe5
003a8e   c005     movff   0x5, 0xff4       	MOVFF	r0x05, PRODH
003a90   fff4
003a92   c006     movff   0x6, 0xff6       	MOVFF	r0x06, TBLPTRL
003a94   fff6
003a96   c000     movff   0, 0xfe9         	MOVFF	r0x00, FSR0L
003a98   ffe9
003a9a   c001     movff   0x1, 0xff3       	MOVFF	r0x01, PRODL
003a9c   fff3
003a9e   5002     movf    0x2, 0, 0        	MOVF	r0x02, W
003aa0   ec5c     call    0x4cb8, 0        	CALL	__gptrput3
003aa2   f026
003aa4   d016     bra     0x3ad2           	BRA	_00871_DS_
                                           _00869_DS_:
                                           ;	.line	51; /dvpt/pinguino/git/pinguino-ide/pinguino/p8/pinguino/core/stdio.c	pputchar(c);
003aa6   5003     movf    0x3, 0, 0        	MOVF	r0x03, W
003aa8   6ee5     movwf   0xe5, 0          	MOVWF	POSTDEC1
003aaa   cff2     movff   0xff2, 0xfe5     	MOVFF	INTCON, POSTDEC1
003aac   ffe5
003aae   9ef2     bcf     0xf2, 0x7, 0     	BCF	INTCON, 7
003ab0   0005     push                     	PUSH	
003ab2   0ed0     movlw   0xd0             	MOVLW	LOW(_00877_DS_)
003ab4   6efd     movwf   0xfd, 0          	MOVWF	TOSL
003ab6   0e3a     movlw   0x3a             	MOVLW	HIGH(_00877_DS_)
003ab8   6efe     movwf   0xfe, 0          	MOVWF	TOSH
003aba   0e00     movlw   0                	MOVLW	UPPER(_00877_DS_)
003abc   6eff     movwf   0xff, 0          	MOVWF	TOSU
003abe   bee4     btfsc   0xe4, 0x7, 0     	BTFSC	PREINC1, 7
003ac0   8ef2     bsf     0xf2, 0x7, 0     	BSF	INTCON, 7
003ac2   c17e     movff   0x17e, 0xffb     	MOVFF	(_pputchar + 2), PCLATU
003ac4   fffb
003ac6   c17d     movff   0x17d, 0xffa     	MOVFF	(_pputchar + 1), PCLATH
003ac8   fffa
003aca   0101     movlb   0x1              	BANKSEL	_pputchar
003acc   517c     movf    0x7c, 0, 0x1     	MOVF	_pputchar, W, B
003ace   6ef9     movwf   0xf9, 0          	MOVWF	PCL
                                           _00877_DS_:
003ad0   52e6     movf    0xe6, 0x1, 0     	MOVF	POSTINC1, F
                                           _00871_DS_:
003ad2   cfe4     movff   0xfe4, 0x6       	MOVFF	PREINC1, r0x06
003ad4   f006
003ad6   cfe4     movff   0xfe4, 0x5       	MOVFF	PREINC1, r0x05
003ad8   f005
003ada   cfe4     movff   0xfe4, 0x4       	MOVFF	PREINC1, r0x04
003adc   f004
003ade   cfe4     movff   0xfe4, 0x3       	MOVFF	PREINC1, r0x03
003ae0   f003
003ae2   cfe4     movff   0xfe4, 0x2       	MOVFF	PREINC1, r0x02
003ae4   f002
003ae6   cfe4     movff   0xfe4, 0x1       	MOVFF	PREINC1, r0x01
003ae8   f001
003aea   cfe4     movff   0xfe4, 0         	MOVFF	PREINC1, r0x00
003aec   f000
003aee   cfe4     movff   0xfe4, 0xfd9     	MOVFF	PREINC1, FSR2L
003af0   ffd9
003af2   0012     return  0                	RETURN	
                                           
                                           ; ; Starting pCode block
                                           S_main__Delayus	code
                                           _Delayus:
                                           ;	.line	86; /dvpt/pinguino/git/pinguino-ide/pinguino/p8/pinguino/core/delay.c	void Delayus(unsigned int microseconds)
00481c   cfd9     movff   0xfd9, 0xfe5     	MOVFF	FSR2L, POSTDEC1
00481e   ffe5
004820   cfe1     movff   0xfe1, 0xfd9     	MOVFF	FSR1L, FSR2L
004822   ffd9
004824   c000     movff   0, 0xfe5         	MOVFF	r0x00, POSTDEC1
004826   ffe5
004828   c001     movff   0x1, 0xfe5       	MOVFF	r0x01, POSTDEC1
00482a   ffe5
00482c   c002     movff   0x2, 0xfe5       	MOVFF	r0x02, POSTDEC1
00482e   ffe5
004830   c003     movff   0x3, 0xfe5       	MOVFF	r0x03, POSTDEC1
004832   ffe5
004834   0e02     movlw   0x2              	MOVLW	0x02
004836   cfdb     movff   0xfdb, 0         	MOVFF	PLUSW2, r0x00
004838   f000
00483a   0e03     movlw   0x3              	MOVLW	0x03
00483c   cfdb     movff   0xfdb, 0x1       	MOVFF	PLUSW2, r0x01
00483e   f001
                                           ;	.line	90; /dvpt/pinguino/git/pinguino-ide/pinguino/p8/pinguino/core/delay.c	for (i=0; i<microseconds; i++)
004840   6a02     clrf    0x2, 0           	CLRF	r0x02
004842   6a03     clrf    0x3, 0           	CLRF	r0x03
                                           _00852_DS_:
004844   5001     movf    0x1, 0, 0        	MOVF	r0x01, W
004846   5c03     subwf   0x3, 0, 0        	SUBWF	r0x03, W
004848   e102     bnz     0x484e           	BNZ	_00863_DS_
00484a   5000     movf    0, 0, 0          	MOVF	r0x00, W
00484c   5c02     subwf   0x2, 0, 0        	SUBWF	r0x02, W
                                           _00863_DS_:
00484e   e203     bc      0x4856           	BC	_00854_DS_
004850   4a02     infsnz  0x2, 0x1, 0      	INFSNZ	r0x02, F
004852   2a03     incf    0x3, 0x1, 0      	INCF	r0x03, F
004854   d7f7     bra     0x4844           	BRA	_00852_DS_
                                           _00854_DS_:
004856   cfe4     movff   0xfe4, 0x3       	MOVFF	PREINC1, r0x03
004858   f003
00485a   cfe4     movff   0xfe4, 0x2       	MOVFF	PREINC1, r0x02
00485c   f002
00485e   cfe4     movff   0xfe4, 0x1       	MOVFF	PREINC1, r0x01
004860   f001
004862   cfe4     movff   0xfe4, 0         	MOVFF	PREINC1, r0x00
004864   f000
004866   cfe4     movff   0xfe4, 0xfd9     	MOVFF	PREINC1, FSR2L
004868   ffd9
00486a   0012     return  0                	RETURN	
                                           
                                           ; ; Starting pCode block
                                           S_main__Delayms	code
                                           _Delayms:
                                           ;	.line	78; /dvpt/pinguino/git/pinguino-ide/pinguino/p8/pinguino/core/delay.c	void Delayms(unsigned int milliseconds)
0047c6   cfd9     movff   0xfd9, 0xfe5     	MOVFF	FSR2L, POSTDEC1
0047c8   ffe5
0047ca   cfe1     movff   0xfe1, 0xfd9     	MOVFF	FSR1L, FSR2L
0047cc   ffd9
0047ce   c000     movff   0, 0xfe5         	MOVFF	r0x00, POSTDEC1
0047d0   ffe5
0047d2   c001     movff   0x1, 0xfe5       	MOVFF	r0x01, POSTDEC1
0047d4   ffe5
0047d6   c002     movff   0x2, 0xfe5       	MOVFF	r0x02, POSTDEC1
0047d8   ffe5
0047da   c003     movff   0x3, 0xfe5       	MOVFF	r0x03, POSTDEC1
0047dc   ffe5
0047de   0e02     movlw   0x2              	MOVLW	0x02
0047e0   cfdb     movff   0xfdb, 0         	MOVFF	PLUSW2, r0x00
0047e2   f000
0047e4   0e03     movlw   0x3              	MOVLW	0x03
0047e6   cfdb     movff   0xfdb, 0x1       	MOVFF	PLUSW2, r0x01
0047e8   f001
                                           ;	.line	82; /dvpt/pinguino/git/pinguino-ide/pinguino/p8/pinguino/core/delay.c	for (i=0; i<milliseconds; i++)
0047ea   6a02     clrf    0x2, 0           	CLRF	r0x02
0047ec   6a03     clrf    0x3, 0           	CLRF	r0x03
                                           _00834_DS_:
0047ee   5001     movf    0x1, 0, 0        	MOVF	r0x01, W
0047f0   5c03     subwf   0x3, 0, 0        	SUBWF	r0x03, W
0047f2   e102     bnz     0x47f8           	BNZ	_00845_DS_
0047f4   5000     movf    0, 0, 0          	MOVF	r0x00, W
0047f6   5c02     subwf   0x2, 0, 0        	SUBWF	r0x02, W
                                           _00845_DS_:
0047f8   e206     bc      0x4806           	BC	_00836_DS_
                                           ;	.line	83; /dvpt/pinguino/git/pinguino-ide/pinguino/p8/pinguino/core/delay.c	delay1ktcy(12);
0047fa   0e0c     movlw   0xc              	MOVLW	0x0c
0047fc   ec73     call    0x28e6, 0        	CALL	_delay1ktcy
0047fe   f014
                                           ;	.line	82; /dvpt/pinguino/git/pinguino-ide/pinguino/p8/pinguino/core/delay.c	for (i=0; i<milliseconds; i++)
004800   4a02     infsnz  0x2, 0x1, 0      	INFSNZ	r0x02, F
004802   2a03     incf    0x3, 0x1, 0      	INCF	r0x03, F
004804   d7f4     bra     0x47ee           	BRA	_00834_DS_
                                           _00836_DS_:
004806   cfe4     movff   0xfe4, 0x3       	MOVFF	PREINC1, r0x03
004808   f003
00480a   cfe4     movff   0xfe4, 0x2       	MOVFF	PREINC1, r0x02
00480c   f002
00480e   cfe4     movff   0xfe4, 0x1       	MOVFF	PREINC1, r0x01
004810   f001
004812   cfe4     movff   0xfe4, 0         	MOVFF	PREINC1, r0x00
004814   f000
004816   cfe4     movff   0xfe4, 0xfd9     	MOVFF	PREINC1, FSR2L
004818   ffd9
00481a   0012     return  0                	RETURN	
                                           
                                           ; ; Starting pCode block
                                           S_main__CDCInitEndpoint	code
                                           _CDCInitEndpoint:
004762   0101     movlb   0x1              	BANKSEL	_line_config
                                           ;	.line	195; /dvpt/pinguino/git/pinguino-ide/pinguino/p8/pinguino/libraries/usb/usb_cdc.c	line_config.dwDTERate = USB_CDC_BAUD_RATE;
004764   6b6c     clrf    0x6c, 0x1        	CLRF	_line_config, B
004766   0ec2     movlw   0xc2             	MOVLW	0xc2
                                           ; removed redundant BANKSEL
004768   6f6d     movwf   0x6d, 0x1        	MOVWF	(_line_config + 1), B
00476a   0e01     movlw   0x1              	MOVLW	0x01
                                           ; removed redundant BANKSEL
00476c   6f6e     movwf   0x6e, 0x1        	MOVWF	(_line_config + 2), B
                                           ; removed redundant BANKSEL
00476e   6b6f     clrf    0x6f, 0x1        	CLRF	(_line_config + 3), B
                                           ; removed redundant BANKSEL
                                           ;	.line	196; /dvpt/pinguino/git/pinguino-ide/pinguino/p8/pinguino/libraries/usb/usb_cdc.c	line_config.bCharFormat = USB_CDC_STOP_BITS;
004770   6b70     clrf    0x70, 0x1        	CLRF	(_line_config + 4), B
                                           ; removed redundant BANKSEL
                                           ;	.line	197; /dvpt/pinguino/git/pinguino-ide/pinguino/p8/pinguino/libraries/usb/usb_cdc.c	line_config.bParityType = USB_CDC_PARITY;
004772   6b71     clrf    0x71, 0x1        	CLRF	(_line_config + 5), B
                                           ;	.line	198; /dvpt/pinguino/git/pinguino-ide/pinguino/p8/pinguino/libraries/usb/usb_cdc.c	line_config.bDataBits = USB_CDC_DATA_BITS;
004774   0e08     movlw   0x8              	MOVLW	0x08
                                           ; removed redundant BANKSEL
004776   6f72     movwf   0x72, 0x1        	MOVWF	(_line_config + 6), B
004778   0101     movlb   0x1              	BANKSEL	_zlp
                                           ;	.line	199; /dvpt/pinguino/git/pinguino-ide/pinguino/p8/pinguino/libraries/usb/usb_cdc.c	zlp.wValue0=0;
00477a   6b64     clrf    0x64, 0x1        	CLRF	_zlp, B
                                           ; removed redundant BANKSEL
                                           ;	.line	200; /dvpt/pinguino/git/pinguino-ide/pinguino/p8/pinguino/libraries/usb/usb_cdc.c	zlp.wValue1=0;
00477c   6b65     clrf    0x65, 0x1        	CLRF	(_zlp + 1), B
                                           ; removed redundant BANKSEL
                                           ;	.line	201; /dvpt/pinguino/git/pinguino-ide/pinguino/p8/pinguino/libraries/usb/usb_cdc.c	zlp.wValue2=0;
00477e   6b66     clrf    0x66, 0x1        	CLRF	(_zlp + 2), B
                                           ; removed redundant BANKSEL
                                           ;	.line	202; /dvpt/pinguino/git/pinguino-ide/pinguino/p8/pinguino/libraries/usb/usb_cdc.c	zlp.wValue3=0;
004780   6b67     clrf    0x67, 0x1        	CLRF	(_zlp + 3), B
                                           ; removed redundant BANKSEL
                                           ;	.line	203; /dvpt/pinguino/git/pinguino-ide/pinguino/p8/pinguino/libraries/usb/usb_cdc.c	zlp.wValue4=0;
004782   6b68     clrf    0x68, 0x1        	CLRF	(_zlp + 4), B
                                           ; removed redundant BANKSEL
                                           ;	.line	204; /dvpt/pinguino/git/pinguino-ide/pinguino/p8/pinguino/libraries/usb/usb_cdc.c	zlp.wValue5=0;
004784   6b69     clrf    0x69, 0x1        	CLRF	(_zlp + 5), B
                                           ; removed redundant BANKSEL
                                           ;	.line	205; /dvpt/pinguino/git/pinguino-ide/pinguino/p8/pinguino/libraries/usb/usb_cdc.c	zlp.wValue6=0;
004786   6b6a     clrf    0x6a, 0x1        	CLRF	(_zlp + 6), B
                                           ; removed redundant BANKSEL
                                           ;	.line	206; /dvpt/pinguino/git/pinguino-ide/pinguino/p8/pinguino/libraries/usb/usb_cdc.c	zlp.wValue7=0;
004788   6b6b     clrf    0x6b, 0x1        	CLRF	(_zlp + 7), B
                                           ;	.line	211; /dvpt/pinguino/git/pinguino-ide/pinguino/p8/pinguino/libraries/usb/usb_cdc.c	USB_COMM_EP_UEP = EP_IN | HSHK_EN;
00478a   0e1a     movlw   0x1a             	MOVLW	0x1a
00478c   010f     movlb   0xf              	BANKSEL	_UEP2
00478e   6f28     movwf   0x28, 0x1        	MOVWF	_UEP2, B
                                           ;	.line	214; /dvpt/pinguino/git/pinguino-ide/pinguino/p8/pinguino/libraries/usb/usb_cdc.c	CDC_DATA_EP_UEP = EP_OUT_IN | HSHK_EN;
004790   0e1e     movlw   0x1e             	MOVLW	0x1e
004792   010f     movlb   0xf              	BANKSEL	_UEP3
004794   6f29     movwf   0x29, 0x1        	MOVWF	_UEP3, B
                                           ;	.line	218; /dvpt/pinguino/git/pinguino-ide/pinguino/p8/pinguino/libraries/usb/usb_cdc.c	EP_IN_BD(USB_COMM_EP_NUM).ADDR = PTR16(&CDCControlBuffer);
004796   0ef0     movlw   0xf0             	MOVLW	LOW(_CDCControlBuffer)
004798   010d     movlb   0xd              	BANKSEL	(_ep_bdt + 22)
00479a   6f16     movwf   0x16, 0x1        	MOVWF	(_ep_bdt + 22), B
00479c   0e00     movlw   0                	MOVLW	HIGH(_CDCControlBuffer)
                                           ; removed redundant BANKSEL
00479e   6f17     movwf   0x17, 0x1        	MOVWF	(_ep_bdt + 23), B
                                           ; #	MOVLW	0x40
                                           ; #	MOVWF	(_ep_bdt + 20), B
                                           ; #	MOVLW	0x40
                                           ;	.line	219; /dvpt/pinguino/git/pinguino-ide/pinguino/p8/pinguino/libraries/usb/usb_cdc.c	EP_IN_BD(USB_COMM_EP_NUM).Stat.uc = BDS_DAT1 | BDS_COWN;
0047a0   0e40     movlw   0x40             	MOVLW	0x40
                                           ; removed redundant BANKSEL
                                           ;	.line	222; /dvpt/pinguino/git/pinguino-ide/pinguino/p8/pinguino/libraries/usb/usb_cdc.c	EP_OUT_BD(CDC_DATA_EP_NUM).Cnt = sizeof(CDCRxBuffer);
0047a2   6f14     movwf   0x14, 0x1        	MOVWF	(_ep_bdt + 20), B
                                           ; removed redundant BANKSEL
0047a4   6f19     movwf   0x19, 0x1        	MOVWF	(_ep_bdt + 25), B
                                           ;	.line	223; /dvpt/pinguino/git/pinguino-ide/pinguino/p8/pinguino/libraries/usb/usb_cdc.c	EP_OUT_BD(CDC_DATA_EP_NUM).ADDR = PTR16(&CDCRxBuffer);
0047a6   0e80     movlw   0x80             	MOVLW	LOW(_CDCRxBuffer)
                                           ; removed redundant BANKSEL
0047a8   6f1a     movwf   0x1a, 0x1        	MOVWF	(_ep_bdt + 26), B
0047aa   0e05     movlw   0x5              	MOVLW	HIGH(_CDCRxBuffer)
                                           ; removed redundant BANKSEL
0047ac   6f1b     movwf   0x1b, 0x1        	MOVWF	(_ep_bdt + 27), B
                                           ;	.line	224; /dvpt/pinguino/git/pinguino-ide/pinguino/p8/pinguino/libraries/usb/usb_cdc.c	EP_OUT_BD(CDC_DATA_EP_NUM).Stat.uc = BDS_UOWN | BDS_DAT0 | BDS_DTSEN;
0047ae   0e88     movlw   0x88             	MOVLW	0x88
                                           ; removed redundant BANKSEL
0047b0   6f18     movwf   0x18, 0x1        	MOVWF	(_ep_bdt + 24), B
                                           ;	.line	226; /dvpt/pinguino/git/pinguino-ide/pinguino/p8/pinguino/libraries/usb/usb_cdc.c	EP_IN_BD(CDC_DATA_EP_NUM).ADDR = PTR16(&CDCTxBuffer); // +1 
0047b2   0ec0     movlw   0xc0             	MOVLW	LOW(_CDCTxBuffer)
                                           ; removed redundant BANKSEL
0047b4   6f1e     movwf   0x1e, 0x1        	MOVWF	(_ep_bdt + 30), B
0047b6   0e05     movlw   0x5              	MOVLW	HIGH(_CDCTxBuffer)
                                           ; removed redundant BANKSEL
0047b8   6f1f     movwf   0x1f, 0x1        	MOVWF	(_ep_bdt + 31), B
                                           ;	.line	227; /dvpt/pinguino/git/pinguino-ide/pinguino/p8/pinguino/libraries/usb/usb_cdc.c	EP_IN_BD(CDC_DATA_EP_NUM).Stat.uc = BDS_DAT1 | BDS_COWN; 
0047ba   0e40     movlw   0x40             	MOVLW	0x40
                                           ; removed redundant BANKSEL
0047bc   6f1c     movwf   0x1c, 0x1        	MOVWF	(_ep_bdt + 28), B
                                           ;	.line	228; /dvpt/pinguino/git/pinguino-ide/pinguino/p8/pinguino/libraries/usb/usb_cdc.c	deviceState=CONFIGURED; 
0047be   0e05     movlw   0x5              	MOVLW	0x05
0047c0   0101     movlb   0x1              	BANKSEL	_deviceState
0047c2   6f94     movwf   0x94, 0x1        	MOVWF	_deviceState, B
0047c4   0012     return  0                	RETURN	
                                           
                                           ; ; Starting pCode block
                                           S_main__CDCputs	code
                                           _CDCputs:
                                           ;	.line	153; /dvpt/pinguino/git/pinguino-ide/pinguino/p8/pinguino/libraries/usb/usb_cdc.c	u8 CDCputs(u8 *buffer, u8 length)
0035b2   cfd9     movff   0xfd9, 0xfe5     	MOVFF	FSR2L, POSTDEC1
0035b4   ffe5
0035b6   cfe1     movff   0xfe1, 0xfd9     	MOVFF	FSR1L, FSR2L
0035b8   ffd9
0035ba   c000     movff   0, 0xfe5         	MOVFF	r0x00, POSTDEC1
0035bc   ffe5
0035be   c001     movff   0x1, 0xfe5       	MOVFF	r0x01, POSTDEC1
0035c0   ffe5
0035c2   c002     movff   0x2, 0xfe5       	MOVFF	r0x02, POSTDEC1
0035c4   ffe5
0035c6   c003     movff   0x3, 0xfe5       	MOVFF	r0x03, POSTDEC1
0035c8   ffe5
0035ca   c004     movff   0x4, 0xfe5       	MOVFF	r0x04, POSTDEC1
0035cc   ffe5
0035ce   c005     movff   0x5, 0xfe5       	MOVFF	r0x05, POSTDEC1
0035d0   ffe5
0035d2   c006     movff   0x6, 0xfe5       	MOVFF	r0x06, POSTDEC1
0035d4   ffe5
0035d6   c007     movff   0x7, 0xfe5       	MOVFF	r0x07, POSTDEC1
0035d8   ffe5
0035da   c008     movff   0x8, 0xfe5       	MOVFF	r0x08, POSTDEC1
0035dc   ffe5
0035de   c009     movff   0x9, 0xfe5       	MOVFF	r0x09, POSTDEC1
0035e0   ffe5
0035e2   0e02     movlw   0x2              	MOVLW	0x02
0035e4   cfdb     movff   0xfdb, 0         	MOVFF	PLUSW2, r0x00
0035e6   f000
0035e8   0e03     movlw   0x3              	MOVLW	0x03
0035ea   cfdb     movff   0xfdb, 0x1       	MOVFF	PLUSW2, r0x01
0035ec   f001
0035ee   0e04     movlw   0x4              	MOVLW	0x04
0035f0   cfdb     movff   0xfdb, 0x2       	MOVFF	PLUSW2, r0x02
0035f2   f002
0035f4   0e05     movlw   0x5              	MOVLW	0x05
0035f6   cfdb     movff   0xfdb, 0x3       	MOVFF	PLUSW2, r0x03
0035f8   f003
                                           ;	.line	155; /dvpt/pinguino/git/pinguino-ide/pinguino/p8/pinguino/libraries/usb/usb_cdc.c	u8 i=0;
0035fa   6a04     clrf    0x4, 0           	CLRF	r0x04
0035fc   0101     movlb   0x1              	BANKSEL	_deviceState
                                           ;	.line	157; /dvpt/pinguino/git/pinguino-ide/pinguino/p8/pinguino/libraries/usb/usb_cdc.c	if (deviceState != CONFIGURED) return 0;
0035fe   5194     movf    0x94, 0, 0x1     	MOVF	_deviceState, W, B
003600   0a05     xorlw   0x5              	XORLW	0x05
003602   e002     bz      0x3608           	BZ	_00787_DS_
003604   6ae8     clrf    0xe8, 0          	CLRF	WREG
003606   d04c     bra     0x36a0           	BRA	_00798_DS_
                                           _00787_DS_:
003608   0101     movlb   0x1              	BANKSEL	_CONTROL_LINE
                                           ;	.line	158; /dvpt/pinguino/git/pinguino-ide/pinguino/p8/pinguino/libraries/usb/usb_cdc.c	if (!CONTROL_LINE) return 0;
00360a   5174     movf    0x74, 0, 0x1     	MOVF	_CONTROL_LINE, W, B
00360c   e102     bnz     0x3612           	BNZ	_00789_DS_
00360e   6ae8     clrf    0xe8, 0          	CLRF	WREG
003610   d047     bra     0x36a0           	BRA	_00798_DS_
                                           _00789_DS_:
003612   010d     movlb   0xd              	BANKSEL	(_ep_bdt + 28)
                                           ;	.line	159; /dvpt/pinguino/git/pinguino-ide/pinguino/p8/pinguino/libraries/usb/usb_cdc.c	if (!EP_IN_BD(CDC_DATA_EP_NUM).Stat.UOWN)
003614   bf1c     btfsc   0x1c, 0x7, 0x1   	BTFSC	(_ep_bdt + 28), 7, B
003616   d043     bra     0x369e           	BRA	_00794_DS_
                                           ;	.line	161; /dvpt/pinguino/git/pinguino-ide/pinguino/p8/pinguino/libraries/usb/usb_cdc.c	if (length > CDC_BULK_IN_SIZE) length = CDC_BULK_IN_SIZE;
003618   0e41     movlw   0x41             	MOVLW	0x41
00361a   5c03     subwf   0x3, 0, 0        	SUBWF	r0x03, W
00361c   e302     bnc     0x3622           	BNC	_00805_DS_
00361e   0e40     movlw   0x40             	MOVLW	0x40
003620   6e03     movwf   0x3, 0           	MOVWF	r0x03
                                           _00805_DS_:
                                           ;	.line	162; /dvpt/pinguino/git/pinguino-ide/pinguino/p8/pinguino/libraries/usb/usb_cdc.c	for (i=0; i < length; i++)
003622   6a05     clrf    0x5, 0           	CLRF	r0x05
                                           _00796_DS_:
003624   5003     movf    0x3, 0, 0        	MOVF	r0x03, W
003626   5c05     subwf   0x5, 0, 0        	SUBWF	r0x05, W
003628   e21d     bc      0x3664           	BC	_00806_DS_
                                           ;	.line	164; /dvpt/pinguino/git/pinguino-ide/pinguino/p8/pinguino/libraries/usb/usb_cdc.c	CDCTxBuffer[i] = buffer[i];
00362a   0ec0     movlw   0xc0             	MOVLW	LOW(_CDCTxBuffer)
00362c   2405     addwf   0x5, 0, 0        	ADDWF	r0x05, W
00362e   6e06     movwf   0x6, 0           	MOVWF	r0x06
003630   6a07     clrf    0x7, 0           	CLRF	r0x07
003632   0e05     movlw   0x5              	MOVLW	HIGH(_CDCTxBuffer)
003634   2207     addwfc  0x7, 0x1, 0      	ADDWFC	r0x07, F
003636   5005     movf    0x5, 0, 0        	MOVF	r0x05, W
003638   2400     addwf   0, 0, 0          	ADDWF	r0x00, W
00363a   6e08     movwf   0x8, 0           	MOVWF	r0x08
00363c   6ae8     clrf    0xe8, 0          	CLRF	WREG
00363e   2001     addwfc  0x1, 0, 0        	ADDWFC	r0x01, W
003640   6e09     movwf   0x9, 0           	MOVWF	r0x09
003642   6ae8     clrf    0xe8, 0          	CLRF	WREG
003644   2002     addwfc  0x2, 0, 0        	ADDWFC	r0x02, W
003646   c008     movff   0x8, 0xfe9       	MOVFF	r0x08, FSR0L
003648   ffe9
00364a   c009     movff   0x9, 0xff3       	MOVFF	r0x09, PRODL
00364c   fff3
00364e   ec4b     call    0x4c96, 0        	CALL	__gptrget1
003650   f026
003652   6e08     movwf   0x8, 0           	MOVWF	r0x08
003654   c006     movff   0x6, 0xfe9       	MOVFF	r0x06, FSR0L
003656   ffe9
003658   c007     movff   0x7, 0xfea       	MOVFF	r0x07, FSR0H
00365a   ffea
00365c   c008     movff   0x8, 0xfef       	MOVFF	r0x08, INDF0
00365e   ffef
                                           ;	.line	162; /dvpt/pinguino/git/pinguino-ide/pinguino/p8/pinguino/libraries/usb/usb_cdc.c	for (i=0; i < length; i++)
003660   2a05     incf    0x5, 0x1, 0      	INCF	r0x05, F
003662   d7e0     bra     0x3624           	BRA	_00796_DS_
                                           _00806_DS_:
003664   c005     movff   0x5, 0x4         	MOVFF	r0x05, r0x04
003666   f004
                                           ;	.line	176; /dvpt/pinguino/git/pinguino-ide/pinguino/p8/pinguino/libraries/usb/usb_cdc.c	EP_IN_BD(CDC_DATA_EP_NUM).Cnt = i;
003668   5005     movf    0x5, 0, 0        	MOVF	r0x05, W
00366a   010d     movlb   0xd              	BANKSEL	(_ep_bdt + 29)
00366c   6f1d     movwf   0x1d, 0x1        	MOVWF	(_ep_bdt + 29), B
                                           ;	.line	178; /dvpt/pinguino/git/pinguino-ide/pinguino/p8/pinguino/libraries/usb/usb_cdc.c	EP_IN_BD(CDC_DATA_EP_NUM).Stat.uc &= 0x40;
00366e   0e40     movlw   0x40             	MOVLW	0x40
                                           ; removed redundant BANKSEL
003670   151c     andwf   0x1c, 0, 0x1     	ANDWF	(_ep_bdt + 28), W, B
                                           ; #	MOVWF	r0x00
                                           ; #	MOVF	r0x00, W
003672   6f1c     movwf   0x1c, 0x1        	MOVWF	(_ep_bdt + 28), B
                                           ;	.line	179; /dvpt/pinguino/git/pinguino-ide/pinguino/p8/pinguino/libraries/usb/usb_cdc.c	EP_IN_BD(CDC_DATA_EP_NUM).Stat.DTS = !EP_IN_BD(CDC_DATA_EP_NUM).Stat.DTS;
003674   6a00     clrf    0, 0             	CLRF	r0x00
                                           ; removed redundant BANKSEL
003676   bd1c     btfsc   0x1c, 0x6, 0x1   	BTFSC	(_ep_bdt + 28), 6, B
003678   2a00     incf    0, 0x1, 0        	INCF	r0x00, F
00367a   5000     movf    0, 0, 0          	MOVF	r0x00, W
00367c   80d8     bsf     0xd8, 0, 0       	BSF	STATUS, 0
00367e   66e8     tstfsz  0xe8, 0          	TSTFSZ	WREG
003680   90d8     bcf     0xd8, 0, 0       	BCF	STATUS, 0
003682   6a00     clrf    0, 0             	CLRF	r0x00
003684   3600     rlcf    0, 0x1, 0        	RLCF	r0x00, F
003686   5000     movf    0, 0, 0          	MOVF	r0x00, W
003688   0b01     andlw   0x1              	ANDLW	0x01
00368a   40e8     rrncf   0xe8, 0, 0       	RRNCF	WREG, W
00368c   40e8     rrncf   0xe8, 0, 0       	RRNCF	WREG, W
00368e   6ef4     movwf   0xf4, 0          	MOVWF	PRODH
                                           ; removed redundant BANKSEL
003690   511c     movf    0x1c, 0, 0x1     	MOVF	(_ep_bdt + 28), W, B
003692   0bbf     andlw   0xbf             	ANDLW	0xbf
003694   10f4     iorwf   0xf4, 0, 0       	IORWF	PRODH, W
                                           ; removed redundant BANKSEL
003696   6f1c     movwf   0x1c, 0x1        	MOVWF	(_ep_bdt + 28), B
                                           ;	.line	181; /dvpt/pinguino/git/pinguino-ide/pinguino/p8/pinguino/libraries/usb/usb_cdc.c	EP_IN_BD(CDC_DATA_EP_NUM).Stat.uc |= BDS_UOWN | BDS_DTSEN;
003698   0e88     movlw   0x88             	MOVLW	0x88
                                           ; removed redundant BANKSEL
00369a   111c     iorwf   0x1c, 0, 0x1     	IORWF	(_ep_bdt + 28), W, B
                                           ; #	MOVWF	r0x00
                                           ; #	MOVF	r0x00, W
00369c   6f1c     movwf   0x1c, 0x1        	MOVWF	(_ep_bdt + 28), B
                                           _00794_DS_:
                                           ;	.line	183; /dvpt/pinguino/git/pinguino-ide/pinguino/p8/pinguino/libraries/usb/usb_cdc.c	return i;
00369e   5004     movf    0x4, 0, 0        	MOVF	r0x04, W
                                           _00798_DS_:
0036a0   cfe4     movff   0xfe4, 0x9       	MOVFF	PREINC1, r0x09
0036a2   f009
0036a4   cfe4     movff   0xfe4, 0x8       	MOVFF	PREINC1, r0x08
0036a6   f008
0036a8   cfe4     movff   0xfe4, 0x7       	MOVFF	PREINC1, r0x07
0036aa   f007
0036ac   cfe4     movff   0xfe4, 0x6       	MOVFF	PREINC1, r0x06
0036ae   f006
0036b0   cfe4     movff   0xfe4, 0x5       	MOVFF	PREINC1, r0x05
0036b2   f005
0036b4   cfe4     movff   0xfe4, 0x4       	MOVFF	PREINC1, r0x04
0036b6   f004
0036b8   cfe4     movff   0xfe4, 0x3       	MOVFF	PREINC1, r0x03
0036ba   f003
0036bc   cfe4     movff   0xfe4, 0x2       	MOVFF	PREINC1, r0x02
0036be   f002
0036c0   cfe4     movff   0xfe4, 0x1       	MOVFF	PREINC1, r0x01
0036c2   f001
0036c4   cfe4     movff   0xfe4, 0         	MOVFF	PREINC1, r0x00
0036c6   f000
0036c8   cfe4     movff   0xfe4, 0xfd9     	MOVFF	PREINC1, FSR2L
0036ca   ffd9
0036cc   0012     return  0                	RETURN	
                                           
                                           ; ; Starting pCode block
                                           S_main__CDCgets	code
                                           _CDCgets:
                                           ;	.line	106; /dvpt/pinguino/git/pinguino-ide/pinguino/p8/pinguino/libraries/usb/usb_cdc.c	u8 CDCgets(u8 *buffer)
003494   cfd9     movff   0xfd9, 0xfe5     	MOVFF	FSR2L, POSTDEC1
003496   ffe5
003498   cfe1     movff   0xfe1, 0xfd9     	MOVFF	FSR1L, FSR2L
00349a   ffd9
00349c   c000     movff   0, 0xfe5         	MOVFF	r0x00, POSTDEC1
00349e   ffe5
0034a0   c001     movff   0x1, 0xfe5       	MOVFF	r0x01, POSTDEC1
0034a2   ffe5
0034a4   c002     movff   0x2, 0xfe5       	MOVFF	r0x02, POSTDEC1
0034a6   ffe5
0034a8   c003     movff   0x3, 0xfe5       	MOVFF	r0x03, POSTDEC1
0034aa   ffe5
0034ac   c004     movff   0x4, 0xfe5       	MOVFF	r0x04, POSTDEC1
0034ae   ffe5
0034b0   c005     movff   0x5, 0xfe5       	MOVFF	r0x05, POSTDEC1
0034b2   ffe5
0034b4   c006     movff   0x6, 0xfe5       	MOVFF	r0x06, POSTDEC1
0034b6   ffe5
0034b8   c007     movff   0x7, 0xfe5       	MOVFF	r0x07, POSTDEC1
0034ba   ffe5
0034bc   c008     movff   0x8, 0xfe5       	MOVFF	r0x08, POSTDEC1
0034be   ffe5
0034c0   c009     movff   0x9, 0xfe5       	MOVFF	r0x09, POSTDEC1
0034c2   ffe5
0034c4   0e02     movlw   0x2              	MOVLW	0x02
0034c6   cfdb     movff   0xfdb, 0         	MOVFF	PLUSW2, r0x00
0034c8   f000
0034ca   0e03     movlw   0x3              	MOVLW	0x03
0034cc   cfdb     movff   0xfdb, 0x1       	MOVFF	PLUSW2, r0x01
0034ce   f001
0034d0   0e04     movlw   0x4              	MOVLW	0x04
0034d2   cfdb     movff   0xfdb, 0x2       	MOVFF	PLUSW2, r0x02
0034d4   f002
                                           ;	.line	108; /dvpt/pinguino/git/pinguino-ide/pinguino/p8/pinguino/libraries/usb/usb_cdc.c	u8 i=0;
0034d6   6a03     clrf    0x3, 0           	CLRF	r0x03
0034d8   0101     movlb   0x1              	BANKSEL	_deviceState
                                           ;	.line	111; /dvpt/pinguino/git/pinguino-ide/pinguino/p8/pinguino/libraries/usb/usb_cdc.c	if (deviceState != CONFIGURED)
0034da   5194     movf    0x94, 0, 0x1     	MOVF	_deviceState, W, B
0034dc   0a05     xorlw   0x5              	XORLW	0x05
0034de   e002     bz      0x34e4           	BZ	_00746_DS_
                                           ;	.line	112; /dvpt/pinguino/git/pinguino-ide/pinguino/p8/pinguino/libraries/usb/usb_cdc.c	return 0;
0034e0   6ae8     clrf    0xe8, 0          	CLRF	WREG
0034e2   d050     bra     0x3584           	BRA	_00757_DS_
                                           _00746_DS_:
0034e4   0101     movlb   0x1              	BANKSEL	_CONTROL_LINE
                                           ;	.line	115; /dvpt/pinguino/git/pinguino-ide/pinguino/p8/pinguino/libraries/usb/usb_cdc.c	if (!CONTROL_LINE)
0034e6   5174     movf    0x74, 0, 0x1     	MOVF	_CONTROL_LINE, W, B
0034e8   e102     bnz     0x34ee           	BNZ	_00748_DS_
                                           ;	.line	116; /dvpt/pinguino/git/pinguino-ide/pinguino/p8/pinguino/libraries/usb/usb_cdc.c	return 0;
0034ea   6ae8     clrf    0xe8, 0          	CLRF	WREG
0034ec   d04b     bra     0x3584           	BRA	_00757_DS_
                                           _00748_DS_:
0034ee   010d     movlb   0xd              	BANKSEL	(_ep_bdt + 24)
                                           ;	.line	119; /dvpt/pinguino/git/pinguino-ide/pinguino/p8/pinguino/libraries/usb/usb_cdc.c	if (!EP_OUT_BD(CDC_DATA_EP_NUM).Stat.UOWN)
0034f0   bf18     btfsc   0x18, 0x7, 0x1   	BTFSC	(_ep_bdt + 24), 7, B
0034f2   d047     bra     0x3582           	BRA	_00753_DS_
                                           ;	.line	126; /dvpt/pinguino/git/pinguino-ide/pinguino/p8/pinguino/libraries/usb/usb_cdc.c	if (length > EP_OUT_BD(CDC_DATA_EP_NUM).Cnt)
0034f4   0e40     movlw   0x40             	MOVLW	0x40
                                           ; #	SUBWF	(_ep_bdt + 25), W, B
                                           ; #	BTFSC	STATUS, 0
                                           ; #	GOTO	_00764_DS_
                                           ; #;;;!!! pic16_aopOp:1117 called for a spillLocation -- assigning WREG instead --- CHECK
                                           ; #	MOVFF	(_ep_bdt + 25), WREG
                                           ; #	CLRF	r0x04
                                           ; removed redundant BANKSEL
                                           ;	.line	127; /dvpt/pinguino/git/pinguino-ide/pinguino/p8/pinguino/libraries/usb/usb_cdc.c	length = EP_OUT_BD(CDC_DATA_EP_NUM).Cnt;
0034f6   5d19     subwf   0x19, 0, 0x1     	SUBWF	(_ep_bdt + 25), W, B
                                           ;	.line	129; /dvpt/pinguino/git/pinguino-ide/pinguino/p8/pinguino/libraries/usb/usb_cdc.c	for (i=0; i < EP_OUT_BD(CDC_DATA_EP_NUM).Cnt; i++)
0034f8   a0d8     btfss   0xd8, 0, 0       	BTFSS	STATUS, 0
0034fa   cd19     movff   0xd19, 0xfe8     	MOVFF	(_ep_bdt + 25), WREG
0034fc   ffe8
0034fe   6a04     clrf    0x4, 0           	CLRF	r0x04
                                           _00755_DS_:
003500   010d     movlb   0xd              	BANKSEL	(_ep_bdt + 25)
003502   5119     movf    0x19, 0, 0x1     	MOVF	(_ep_bdt + 25), W, B
003504   5c04     subwf   0x4, 0, 0        	SUBWF	r0x04, W
003506   e220     bc      0x3548           	BC	_00765_DS_
                                           ;	.line	131; /dvpt/pinguino/git/pinguino-ide/pinguino/p8/pinguino/libraries/usb/usb_cdc.c	buffer[i] = CDCRxBuffer[i];
003508   5004     movf    0x4, 0, 0        	MOVF	r0x04, W
00350a   2400     addwf   0, 0, 0          	ADDWF	r0x00, W
00350c   6e05     movwf   0x5, 0           	MOVWF	r0x05
00350e   6ae8     clrf    0xe8, 0          	CLRF	WREG
003510   2001     addwfc  0x1, 0, 0        	ADDWFC	r0x01, W
003512   6e06     movwf   0x6, 0           	MOVWF	r0x06
003514   6ae8     clrf    0xe8, 0          	CLRF	WREG
003516   2002     addwfc  0x2, 0, 0        	ADDWFC	r0x02, W
003518   6e07     movwf   0x7, 0           	MOVWF	r0x07
00351a   0e80     movlw   0x80             	MOVLW	LOW(_CDCRxBuffer)
00351c   2404     addwf   0x4, 0, 0        	ADDWF	r0x04, W
00351e   6e08     movwf   0x8, 0           	MOVWF	r0x08
003520   6a09     clrf    0x9, 0           	CLRF	r0x09
003522   0e05     movlw   0x5              	MOVLW	HIGH(_CDCRxBuffer)
003524   2209     addwfc  0x9, 0x1, 0      	ADDWFC	r0x09, F
003526   c008     movff   0x8, 0xfe9       	MOVFF	r0x08, FSR0L
003528   ffe9
00352a   c009     movff   0x9, 0xfea       	MOVFF	r0x09, FSR0H
00352c   ffea
00352e   cfef     movff   0xfef, 0x8       	MOVFF	INDF0, r0x08
003530   f008
003532   c008     movff   0x8, 0xfe5       	MOVFF	r0x08, POSTDEC1
003534   ffe5
003536   c005     movff   0x5, 0xfe9       	MOVFF	r0x05, FSR0L
003538   ffe9
00353a   c006     movff   0x6, 0xff3       	MOVFF	r0x06, PRODL
00353c   fff3
00353e   5007     movf    0x7, 0, 0        	MOVF	r0x07, W
003540   ec78     call    0x4cf0, 0        	CALL	__gptrput1
003542   f026
                                           ;	.line	129; /dvpt/pinguino/git/pinguino-ide/pinguino/p8/pinguino/libraries/usb/usb_cdc.c	for (i=0; i < EP_OUT_BD(CDC_DATA_EP_NUM).Cnt; i++)
003544   2a04     incf    0x4, 0x1, 0      	INCF	r0x04, F
003546   d7dc     bra     0x3500           	BRA	_00755_DS_
                                           _00765_DS_:
003548   c004     movff   0x4, 0x3         	MOVFF	r0x04, r0x03
00354a   f003
                                           ;	.line	143; /dvpt/pinguino/git/pinguino-ide/pinguino/p8/pinguino/libraries/usb/usb_cdc.c	EP_OUT_BD(CDC_DATA_EP_NUM).Stat.uc &= 0x40;
00354c   0e40     movlw   0x40             	MOVLW	0x40
00354e   010d     movlb   0xd              	BANKSEL	(_ep_bdt + 24)
003550   1518     andwf   0x18, 0, 0x1     	ANDWF	(_ep_bdt + 24), W, B
                                           ; #	MOVWF	r0x00
                                           ; #	MOVF	r0x00, W
003552   6f18     movwf   0x18, 0x1        	MOVWF	(_ep_bdt + 24), B
                                           ;	.line	144; /dvpt/pinguino/git/pinguino-ide/pinguino/p8/pinguino/libraries/usb/usb_cdc.c	EP_OUT_BD(CDC_DATA_EP_NUM).Stat.DTS = !EP_OUT_BD(CDC_DATA_EP_NUM).Stat.DTS;
003554   6a00     clrf    0, 0             	CLRF	r0x00
                                           ; removed redundant BANKSEL
003556   bd18     btfsc   0x18, 0x6, 0x1   	BTFSC	(_ep_bdt + 24), 6, B
003558   2a00     incf    0, 0x1, 0        	INCF	r0x00, F
00355a   5000     movf    0, 0, 0          	MOVF	r0x00, W
00355c   80d8     bsf     0xd8, 0, 0       	BSF	STATUS, 0
00355e   66e8     tstfsz  0xe8, 0          	TSTFSZ	WREG
003560   90d8     bcf     0xd8, 0, 0       	BCF	STATUS, 0
003562   6a00     clrf    0, 0             	CLRF	r0x00
003564   3600     rlcf    0, 0x1, 0        	RLCF	r0x00, F
003566   5000     movf    0, 0, 0          	MOVF	r0x00, W
003568   0b01     andlw   0x1              	ANDLW	0x01
00356a   40e8     rrncf   0xe8, 0, 0       	RRNCF	WREG, W
00356c   40e8     rrncf   0xe8, 0, 0       	RRNCF	WREG, W
00356e   6ef4     movwf   0xf4, 0          	MOVWF	PRODH
                                           ; removed redundant BANKSEL
003570   5118     movf    0x18, 0, 0x1     	MOVF	(_ep_bdt + 24), W, B
003572   0bbf     andlw   0xbf             	ANDLW	0xbf
003574   10f4     iorwf   0xf4, 0, 0       	IORWF	PRODH, W
                                           ; removed redundant BANKSEL
003576   6f18     movwf   0x18, 0x1        	MOVWF	(_ep_bdt + 24), B
                                           ;	.line	146; /dvpt/pinguino/git/pinguino-ide/pinguino/p8/pinguino/libraries/usb/usb_cdc.c	EP_OUT_BD(CDC_DATA_EP_NUM).Cnt = sizeof(CDCRxBuffer);
003578   0e40     movlw   0x40             	MOVLW	0x40
                                           ; removed redundant BANKSEL
00357a   6f19     movwf   0x19, 0x1        	MOVWF	(_ep_bdt + 25), B
                                           ;	.line	147; /dvpt/pinguino/git/pinguino-ide/pinguino/p8/pinguino/libraries/usb/usb_cdc.c	EP_OUT_BD(CDC_DATA_EP_NUM).Stat.uc |= BDS_UOWN | BDS_DTSEN;
00357c   0e88     movlw   0x88             	MOVLW	0x88
                                           ; removed redundant BANKSEL
00357e   1118     iorwf   0x18, 0, 0x1     	IORWF	(_ep_bdt + 24), W, B
                                           ; #	MOVWF	r0x00
                                           ; #	MOVF	r0x00, W
003580   6f18     movwf   0x18, 0x1        	MOVWF	(_ep_bdt + 24), B
                                           _00753_DS_:
                                           ;	.line	150; /dvpt/pinguino/git/pinguino-ide/pinguino/p8/pinguino/libraries/usb/usb_cdc.c	return i;
003582   5003     movf    0x3, 0, 0        	MOVF	r0x03, W
                                           _00757_DS_:
003584   cfe4     movff   0xfe4, 0x9       	MOVFF	PREINC1, r0x09
003586   f009
003588   cfe4     movff   0xfe4, 0x8       	MOVFF	PREINC1, r0x08
00358a   f008
00358c   cfe4     movff   0xfe4, 0x7       	MOVFF	PREINC1, r0x07
00358e   f007
003590   cfe4     movff   0xfe4, 0x6       	MOVFF	PREINC1, r0x06
003592   f006
003594   cfe4     movff   0xfe4, 0x5       	MOVFF	PREINC1, r0x05
003596   f005
003598   cfe4     movff   0xfe4, 0x4       	MOVFF	PREINC1, r0x04
00359a   f004
00359c   cfe4     movff   0xfe4, 0x3       	MOVFF	PREINC1, r0x03
00359e   f003
0035a0   cfe4     movff   0xfe4, 0x2       	MOVFF	PREINC1, r0x02
0035a2   f002
0035a4   cfe4     movff   0xfe4, 0x1       	MOVFF	PREINC1, r0x01
0035a6   f001
0035a8   cfe4     movff   0xfe4, 0         	MOVFF	PREINC1, r0x00
0035aa   f000
0035ac   cfe4     movff   0xfe4, 0xfd9     	MOVFF	PREINC1, FSR2L
0035ae   ffd9
0035b0   0012     return  0                	RETURN	
                                           
                                           ; ; Starting pCode block
                                           S_main__ProcessCDCRequest	code
                                           _ProcessCDCRequest:
                                           ;	.line	29; /dvpt/pinguino/git/pinguino-ide/pinguino/p8/pinguino/libraries/usb/usb_cdc.c	void ProcessCDCRequest(void)
003e16   c000     movff   0, 0xfe5         	MOVFF	r0x00, POSTDEC1
003e18   ffe5
                                           ;	.line	40; /dvpt/pinguino/git/pinguino-ide/pinguino/p8/pinguino/libraries/usb/usb_cdc.c	if ((SetupPacket.bmRequestType & USB_TYPE_MASK) != USB_TYPE_CLASS) return;
003e1a   0e60     movlw   0x60             	MOVLW	0x60
003e1c   0105     movlb   0x5              	BANKSEL	_SetupPacket
003e1e   1500     andwf   0, 0, 0x1        	ANDWF	_SetupPacket, W, B
                                           ; #	MOVWF	r0x00
                                           ; #	MOVF	r0x00, W
003e20   0a20     xorlw   0x20             	XORLW	0x20
003e22   e001     bz      0x3e26           	BZ	_00693_DS_
003e24   d049     bra     0x3eb8           	BRA	_00703_DS_
                                           _00693_DS_:
                                           ;	.line	46; /dvpt/pinguino/git/pinguino-ide/pinguino/p8/pinguino/libraries/usb/usb_cdc.c	switch(SetupPacket.bRequest)
003e26   c501     movff   0x501, 0         	MOVFF	(_SetupPacket + 1), r0x00
003e28   f000
003e2a   5000     movf    0, 0, 0          	MOVF	r0x00, W
003e2c   e101     bnz     0x3e30           	BNZ	_00730_DS_
003e2e   d044     bra     0x3eb8           	BRA	_00703_DS_
                                           _00730_DS_:
003e30   5000     movf    0, 0, 0          	MOVF	r0x00, W
003e32   0a01     xorlw   0x1              	XORLW	0x01
003e34   e101     bnz     0x3e38           	BNZ	_00732_DS_
003e36   d040     bra     0x3eb8           	BRA	_00703_DS_
                                           _00732_DS_:
003e38   5000     movf    0, 0, 0          	MOVF	r0x00, W
003e3a   0a20     xorlw   0x20             	XORLW	0x20
003e3c   e007     bz      0x3e4c           	BZ	_00696_DS_
003e3e   5000     movf    0, 0, 0          	MOVF	r0x00, W
003e40   0a21     xorlw   0x21             	XORLW	0x21
003e42   e013     bz      0x3e6a           	BZ	_00697_DS_
003e44   5000     movf    0, 0, 0          	MOVF	r0x00, W
003e46   0a22     xorlw   0x22             	XORLW	0x22
003e48   e01f     bz      0x3e88           	BZ	_00698_DS_
003e4a   d036     bra     0x3eb8           	BRA	_00703_DS_
                                           _00696_DS_:
                                           ;	.line	68; /dvpt/pinguino/git/pinguino-ide/pinguino/p8/pinguino/libraries/usb/usb_cdc.c	outPtr = (__data u8 *)&line_config;
003e4c   0e01     movlw   0x1              	MOVLW	HIGH(_line_config)
                                           ; #	MOVWF	r0x01
                                           ; #	MOVF	r0x01, W
003e4e   0101     movlb   0x1              	BANKSEL	(_outPtr + 1)
003e50   6f80     movwf   0x80, 0x1        	MOVWF	(_outPtr + 1), B
003e52   0e6c     movlw   0x6c             	MOVLW	LOW(_line_config)
                                           ; removed redundant BANKSEL
003e54   6f7f     movwf   0x7f, 0x1        	MOVWF	_outPtr, B
003e56   0e80     movlw   0x80             	MOVLW	0x80
                                           ; removed redundant BANKSEL
003e58   6f81     movwf   0x81, 0x1        	MOVWF	(_outPtr + 2), B
                                           ;	.line	69; /dvpt/pinguino/git/pinguino-ide/pinguino/p8/pinguino/libraries/usb/usb_cdc.c	wCount = sizeof(USB_CDC_Line_Coding) ;
003e5a   0e07     movlw   0x7              	MOVLW	0x07
003e5c   0101     movlb   0x1              	BANKSEL	_wCount
003e5e   6f88     movwf   0x88, 0x1        	MOVWF	_wCount, B
                                           ; removed redundant BANKSEL
003e60   6b89     clrf    0x89, 0x1        	CLRF	(_wCount + 1), B
                                           ;	.line	70; /dvpt/pinguino/git/pinguino-ide/pinguino/p8/pinguino/libraries/usb/usb_cdc.c	requestHandled = 1;				
003e62   0e01     movlw   0x1              	MOVLW	0x01
003e64   0101     movlb   0x1              	BANKSEL	_requestHandled
003e66   6f91     movwf   0x91, 0x1        	MOVWF	_requestHandled, B
                                           ;	.line	71; /dvpt/pinguino/git/pinguino-ide/pinguino/p8/pinguino/libraries/usb/usb_cdc.c	break;
003e68   d027     bra     0x3eb8           	BRA	_00703_DS_
                                           _00697_DS_:
                                           ;	.line	78; /dvpt/pinguino/git/pinguino-ide/pinguino/p8/pinguino/libraries/usb/usb_cdc.c	outPtr = (__data u8 *)&line_config;
003e6a   0e01     movlw   0x1              	MOVLW	HIGH(_line_config)
                                           ; #	MOVWF	r0x01
                                           ; #	MOVF	r0x01, W
003e6c   0101     movlb   0x1              	BANKSEL	(_outPtr + 1)
003e6e   6f80     movwf   0x80, 0x1        	MOVWF	(_outPtr + 1), B
003e70   0e6c     movlw   0x6c             	MOVLW	LOW(_line_config)
                                           ; removed redundant BANKSEL
003e72   6f7f     movwf   0x7f, 0x1        	MOVWF	_outPtr, B
003e74   0e80     movlw   0x80             	MOVLW	0x80
                                           ; removed redundant BANKSEL
003e76   6f81     movwf   0x81, 0x1        	MOVWF	(_outPtr + 2), B
                                           ;	.line	79; /dvpt/pinguino/git/pinguino-ide/pinguino/p8/pinguino/libraries/usb/usb_cdc.c	wCount = sizeof(USB_CDC_Line_Coding) ;
003e78   0e07     movlw   0x7              	MOVLW	0x07
003e7a   0101     movlb   0x1              	BANKSEL	_wCount
003e7c   6f88     movwf   0x88, 0x1        	MOVWF	_wCount, B
                                           ; removed redundant BANKSEL
003e7e   6b89     clrf    0x89, 0x1        	CLRF	(_wCount + 1), B
                                           ;	.line	80; /dvpt/pinguino/git/pinguino-ide/pinguino/p8/pinguino/libraries/usb/usb_cdc.c	requestHandled = 1;
003e80   0e01     movlw   0x1              	MOVLW	0x01
003e82   0101     movlb   0x1              	BANKSEL	_requestHandled
003e84   6f91     movwf   0x91, 0x1        	MOVWF	_requestHandled, B
                                           ;	.line	81; /dvpt/pinguino/git/pinguino-ide/pinguino/p8/pinguino/libraries/usb/usb_cdc.c	break;
003e86   d018     bra     0x3eb8           	BRA	_00703_DS_
                                           _00698_DS_:
003e88   0105     movlb   0x5              	BANKSEL	(_SetupPacket + 2)
                                           ;	.line	90; /dvpt/pinguino/git/pinguino-ide/pinguino/p8/pinguino/libraries/usb/usb_cdc.c	if (SetupPacket.wValue0==3) CONTROL_LINE=1;
003e8a   5102     movf    0x2, 0, 0x1      	MOVF	(_SetupPacket + 2), W, B
003e8c   0a03     xorlw   0x3              	XORLW	0x03
003e8e   e104     bnz     0x3e98           	BNZ	_00700_DS_
003e90   0e01     movlw   0x1              	MOVLW	0x01
003e92   0101     movlb   0x1              	BANKSEL	_CONTROL_LINE
003e94   6f74     movwf   0x74, 0x1        	MOVWF	_CONTROL_LINE, B
003e96   d002     bra     0x3e9c           	BRA	_00701_DS_
                                           _00700_DS_:
003e98   0101     movlb   0x1              	BANKSEL	_CONTROL_LINE
                                           ;	.line	91; /dvpt/pinguino/git/pinguino-ide/pinguino/p8/pinguino/libraries/usb/usb_cdc.c	else CONTROL_LINE=0;		
003e9a   6b74     clrf    0x74, 0x1        	CLRF	_CONTROL_LINE, B
                                           _00701_DS_:
                                           ;	.line	92; /dvpt/pinguino/git/pinguino-ide/pinguino/p8/pinguino/libraries/usb/usb_cdc.c	outPtr = (__data u8 *)&zlp;
003e9c   0e01     movlw   0x1              	MOVLW	HIGH(_zlp)
                                           ; #	MOVWF	r0x01
                                           ; #	MOVF	r0x01, W
003e9e   0101     movlb   0x1              	BANKSEL	(_outPtr + 1)
003ea0   6f80     movwf   0x80, 0x1        	MOVWF	(_outPtr + 1), B
003ea2   0e64     movlw   0x64             	MOVLW	LOW(_zlp)
                                           ; removed redundant BANKSEL
003ea4   6f7f     movwf   0x7f, 0x1        	MOVWF	_outPtr, B
003ea6   0e80     movlw   0x80             	MOVLW	0x80
                                           ; removed redundant BANKSEL
003ea8   6f81     movwf   0x81, 0x1        	MOVWF	(_outPtr + 2), B
                                           ;	.line	93; /dvpt/pinguino/git/pinguino-ide/pinguino/p8/pinguino/libraries/usb/usb_cdc.c	wCount = sizeof(Zero_Packet_Length) ;
003eaa   0e08     movlw   0x8              	MOVLW	0x08
003eac   0101     movlb   0x1              	BANKSEL	_wCount
003eae   6f88     movwf   0x88, 0x1        	MOVWF	_wCount, B
                                           ; removed redundant BANKSEL
003eb0   6b89     clrf    0x89, 0x1        	CLRF	(_wCount + 1), B
                                           ;	.line	94; /dvpt/pinguino/git/pinguino-ide/pinguino/p8/pinguino/libraries/usb/usb_cdc.c	requestHandled = 1;						
003eb2   0e01     movlw   0x1              	MOVLW	0x01
003eb4   0101     movlb   0x1              	BANKSEL	_requestHandled
003eb6   6f91     movwf   0x91, 0x1        	MOVWF	_requestHandled, B
                                           _00703_DS_:
                                           ;	.line	96; /dvpt/pinguino/git/pinguino-ide/pinguino/p8/pinguino/libraries/usb/usb_cdc.c	}
003eb8   cfe4     movff   0xfe4, 0         	MOVFF	PREINC1, r0x00
003eba   f000
003ebc   0012     return  0                	RETURN	
                                           
                                           ; ; Starting pCode block
                                           S_main__ProcessUSBTransactions	code
                                           _ProcessUSBTransactions:
                                           ;	.line	821; /dvpt/pinguino/git/pinguino-ide/pinguino/p8/pinguino/libraries/usb/picUSB.c	void ProcessUSBTransactions(void)
00451c   c000     movff   0, 0xfe5         	MOVFF	r0x00, POSTDEC1
00451e   ffe5
                                           ; #	MOVF	_deviceState, W, B
                                           ; #	BTFSS	STATUS, 2
                                           ; #	GOTO	_00606_DS_
                                           ; #	GOTO	_00632_DS_
                                           ; #	BTFSS	_UIRbits, 2
004520   0101     movlb   0x1              	BANKSEL	_deviceState
                                           ;	.line	824; /dvpt/pinguino/git/pinguino-ide/pinguino/p8/pinguino/libraries/usb/picUSB.c	if(deviceState == DETACHED)
004522   5194     movf    0x94, 0, 0x1     	MOVF	_deviceState, W, B
                                           ;	.line	825; /dvpt/pinguino/git/pinguino-ide/pinguino/p8/pinguino/libraries/usb/picUSB.c	return;
004524   b4d8     btfsc   0xd8, 0x2, 0     	BTFSC	STATUS, 2
                                           ;	.line	828; /dvpt/pinguino/git/pinguino-ide/pinguino/p8/pinguino/libraries/usb/picUSB.c	if(UIRbits.ACTVIF && UIEbits.ACTVIE)
004526   d035     bra     0x4592           	BRA	_00632_DS_
004528   a462     btfss   0x62, 0x2, 0     	BTFSS	_UIRbits, 2
                                           ; #	GOTO	_00608_DS_
                                           ; #	BTFSS	_UIEbits, 2, B
                                           ; #	GOTO	_00608_DS_
                                           ; #	CALL	_UnSuspend
                                           ; #	CLRF	r0x00
                                           ;	.line	829; /dvpt/pinguino/git/pinguino-ide/pinguino/p8/pinguino/libraries/usb/picUSB.c	UnSuspend();
00452a   d004     bra     0x4534           	BRA	_00608_DS_
00452c   010f     movlb   0xf              	BANKSEL	_UIEbits
                                           ;	.line	833; /dvpt/pinguino/git/pinguino-ide/pinguino/p8/pinguino/libraries/usb/picUSB.c	if(UCONbits.SUSPND == 1)
00452e   b536     btfsc   0x36, 0x2, 0x1   	BTFSC	_UIEbits, 2, B
004530   ec93     call    0x4d26, 0        	CALL	_UnSuspend
004532   f026
                                           _00608_DS_:
004534   6a00     clrf    0, 0             	CLRF	r0x00
004536   b265     btfsc   0x65, 0x1, 0     	BTFSC	_UCONbits, 1
004538   2a00     incf    0, 0x1, 0        	INCF	r0x00, F
00453a   5000     movf    0, 0, 0          	MOVF	r0x00, W
00453c   0a01     xorlw   0x1              	XORLW	0x01
                                           ;	.line	834; /dvpt/pinguino/git/pinguino-ide/pinguino/p8/pinguino/libraries/usb/picUSB.c	return;
00453e   e029     bz      0x4592           	BZ	_00632_DS_
                                           ;	.line	837; /dvpt/pinguino/git/pinguino-ide/pinguino/p8/pinguino/libraries/usb/picUSB.c	if (UIRbits.URSTIF && UIEbits.URSTIE)
004540   a062     btfss   0x62, 0, 0       	BTFSS	_UIRbits, 0
                                           ; #	GOTO	_00613_DS_
                                           ; #	BTFSS	_UIEbits, 0, B
                                           ; #	GOTO	_00613_DS_
                                           ; #	CALL	_BusReset
                                           ; #	BTFSS	_UIRbits, 4
                                           ;	.line	838; /dvpt/pinguino/git/pinguino-ide/pinguino/p8/pinguino/libraries/usb/picUSB.c	BusReset();
004542   d004     bra     0x454c           	BRA	_00613_DS_
004544   010f     movlb   0xf              	BANKSEL	_UIEbits
                                           ;	.line	841; /dvpt/pinguino/git/pinguino-ide/pinguino/p8/pinguino/libraries/usb/picUSB.c	if (UIRbits.IDLEIF && UIEbits.IDLEIE)
004546   b136     btfsc   0x36, 0, 0x1     	BTFSC	_UIEbits, 0, B
004548   ec36     call    0x486c, 0        	CALL	_BusReset
00454a   f024
                                           _00613_DS_:
00454c   a862     btfss   0x62, 0x4, 0     	BTFSS	_UIRbits, 4
                                           ; #	GOTO	_00616_DS_
                                           ; #	BTFSS	_UIEbits, 4, B
                                           ; #	GOTO	_00616_DS_
                                           ; #	CALL	_Suspend
                                           ; #	BTFSS	_UIRbits, 6
                                           ;	.line	842; /dvpt/pinguino/git/pinguino-ide/pinguino/p8/pinguino/libraries/usb/picUSB.c	Suspend();
00454e   d004     bra     0x4558           	BRA	_00616_DS_
004550   010f     movlb   0xf              	BANKSEL	_UIEbits
                                           ;	.line	845; /dvpt/pinguino/git/pinguino-ide/pinguino/p8/pinguino/libraries/usb/picUSB.c	if (UIRbits.SOFIF && UIEbits.SOFIE)
004552   b936     btfsc   0x36, 0x4, 0x1   	BTFSC	_UIEbits, 4, B
004554   ec28     call    0x4c50, 0        	CALL	_Suspend
004556   f026
                                           _00616_DS_:
004558   ac62     btfss   0x62, 0x6, 0     	BTFSS	_UIRbits, 6
                                           ; #	GOTO	_00619_DS_
                                           ; #	BTFSS	_UIEbits, 6, B
                                           ; #	GOTO	_00619_DS_
                                           ; #	CALL	_StartOfFrame
                                           ; #	BTFSS	_UIRbits, 5
                                           ;	.line	846; /dvpt/pinguino/git/pinguino-ide/pinguino/p8/pinguino/libraries/usb/picUSB.c	StartOfFrame();
00455a   d004     bra     0x4564           	BRA	_00619_DS_
00455c   010f     movlb   0xf              	BANKSEL	_UIEbits
                                           ;	.line	848; /dvpt/pinguino/git/pinguino-ide/pinguino/p8/pinguino/libraries/usb/picUSB.c	if (UIRbits.STALLIF && UIEbits.STALLIE)
00455e   bd36     btfsc   0x36, 0x6, 0x1   	BTFSC	_UIEbits, 6, B
004560   ec02     call    0xc04, 0         	CALL	_StartOfFrame
004562   f006
                                           _00619_DS_:
004564   aa62     btfss   0x62, 0x5, 0     	BTFSS	_UIRbits, 5
                                           ; #	GOTO	_00622_DS_
                                           ; #	BTFSS	_UIEbits, 5, B
                                           ; #	GOTO	_00622_DS_
                                           ; #	CALL	_Stall
                                           ; #	BTFSS	_UIRbits, 1
                                           ;	.line	849; /dvpt/pinguino/git/pinguino-ide/pinguino/p8/pinguino/libraries/usb/picUSB.c	Stall();
004566   d004     bra     0x4570           	BRA	_00622_DS_
004568   010f     movlb   0xf              	BANKSEL	_UIEbits
                                           ;	.line	853; /dvpt/pinguino/git/pinguino-ide/pinguino/p8/pinguino/libraries/usb/picUSB.c	if (UIRbits.UERRIF && UIEbits.UERRIE)
00456a   bb36     btfsc   0x36, 0x5, 0x1   	BTFSC	_UIEbits, 5, B
00456c   ec3a     call    0x4c74, 0        	CALL	_Stall
00456e   f026
                                           _00622_DS_:
004570   a262     btfss   0x62, 0x1, 0     	BTFSS	_UIRbits, 1
                                           ; #	GOTO	_00625_DS_
                                           ; #	BTFSS	_UIEbits, 1, B
                                           ; #	GOTO	_00625_DS_
                                           ; #	BCF	_UIRbits, 1
                                           ; #	MOVLW	0x03
                                           ;	.line	854; /dvpt/pinguino/git/pinguino-ide/pinguino/p8/pinguino/libraries/usb/picUSB.c	UIRbits.UERRIF = 0;
004572   d003     bra     0x457a           	BRA	_00625_DS_
004574   010f     movlb   0xf              	BANKSEL	_UIEbits
                                           ;	.line	857; /dvpt/pinguino/git/pinguino-ide/pinguino/p8/pinguino/libraries/usb/picUSB.c	if (deviceState < DEFAULT_STATUS)
004576   b336     btfsc   0x36, 0x1, 0x1   	BTFSC	_UIEbits, 1, B
004578   9262     bcf     0x62, 0x1, 0     	BCF	_UIRbits, 1
                                           _00625_DS_:
00457a   0e03     movlw   0x3              	MOVLW	0x03
                                           ; #	SUBWF	_deviceState, W, B
                                           ; #	BTFSC	STATUS, 0
                                           ; #	GOTO	_00628_DS_
                                           ; #	GOTO	_00632_DS_
                                           ; #	BTFSS	_UIRbits, 3
00457c   0101     movlb   0x1              	BANKSEL	_deviceState
                                           ;	.line	858; /dvpt/pinguino/git/pinguino-ide/pinguino/p8/pinguino/libraries/usb/picUSB.c	return;
00457e   5d94     subwf   0x94, 0, 0x1     	SUBWF	_deviceState, W, B
                                           ;	.line	861; /dvpt/pinguino/git/pinguino-ide/pinguino/p8/pinguino/libraries/usb/picUSB.c	if(UIRbits.TRNIF && UIEbits.TRNIE)
004580   e308     bnc     0x4592           	BNC	_00632_DS_
004582   a662     btfss   0x62, 0x3, 0     	BTFSS	_UIRbits, 3
004584   d006     bra     0x4592           	BRA	_00632_DS_
004586   010f     movlb   0xf              	BANKSEL	_UIEbits
004588   a736     btfss   0x36, 0x3, 0x1   	BTFSS	_UIEbits, 3, B
00458a   d003     bra     0x4592           	BRA	_00632_DS_
                                           ;	.line	863; /dvpt/pinguino/git/pinguino-ide/pinguino/p8/pinguino/libraries/usb/picUSB.c	ProcessControlTransfer();
00458c   ecb2     call    0x3f64, 0        	CALL	_ProcessControlTransfer
00458e   f01f
                                           ;	.line	865; /dvpt/pinguino/git/pinguino-ide/pinguino/p8/pinguino/libraries/usb/picUSB.c	UIRbits.TRNIF = 0;
004590   9662     bcf     0x62, 0x3, 0     	BCF	_UIRbits, 3
                                           _00632_DS_:
004592   cfe4     movff   0xfe4, 0         	MOVFF	PREINC1, r0x00
004594   f000
004596   0012     return  0                	RETURN	
                                           
                                           ; ; Starting pCode block
                                           S_main__BusReset	code
                                           _BusReset:
                                           ;	.line	793; /dvpt/pinguino/git/pinguino-ide/pinguino/p8/pinguino/libraries/usb/picUSB.c	void BusReset() {
00486c   c000     movff   0, 0xfe5         	MOVFF	r0x00, POSTDEC1
00486e   ffe5
                                           ;	.line	794; /dvpt/pinguino/git/pinguino-ide/pinguino/p8/pinguino/libraries/usb/picUSB.c	UEIR  = 0x00;
004870   6a63     clrf    0x63, 0          	CLRF	_UEIR
                                           ;	.line	795; /dvpt/pinguino/git/pinguino-ide/pinguino/p8/pinguino/libraries/usb/picUSB.c	UIR   = 0x00;
004872   6a62     clrf    0x62, 0          	CLRF	_UIR
                                           ;	.line	796; /dvpt/pinguino/git/pinguino-ide/pinguino/p8/pinguino/libraries/usb/picUSB.c	UEIE  = 0x9f;
004874   0e9f     movlw   0x9f             	MOVLW	0x9f
004876   010f     movlb   0xf              	BANKSEL	_UEIE
004878   6f37     movwf   0x37, 0x1        	MOVWF	_UEIE, B
                                           ;	.line	797; /dvpt/pinguino/git/pinguino-ide/pinguino/p8/pinguino/libraries/usb/picUSB.c	UIE   = 0x7b;
00487a   0e7b     movlw   0x7b             	MOVLW	0x7b
00487c   010f     movlb   0xf              	BANKSEL	_UIE
00487e   6f36     movwf   0x36, 0x1        	MOVWF	_UIE, B
004880   010f     movlb   0xf              	BANKSEL	_UADDR
                                           ;	.line	798; /dvpt/pinguino/git/pinguino-ide/pinguino/p8/pinguino/libraries/usb/picUSB.c	UADDR = 0x00;
004882   6b38     clrf    0x38, 0x1        	CLRF	_UADDR, B
                                           ;	.line	801; /dvpt/pinguino/git/pinguino-ide/pinguino/p8/pinguino/libraries/usb/picUSB.c	UEP0 = EP_CTRL | HSHK_EN;
004884   0e16     movlw   0x16             	MOVLW	0x16
004886   010f     movlb   0xf              	BANKSEL	_UEP0
004888   6f26     movwf   0x26, 0x1        	MOVWF	_UEP0, B
                                           _00588_DS_:
                                           ;	.line	804; /dvpt/pinguino/git/pinguino-ide/pinguino/p8/pinguino/libraries/usb/picUSB.c	while (UIRbits.TRNIF == 1)
00488a   6a00     clrf    0, 0             	CLRF	r0x00
00488c   b662     btfsc   0x62, 0x3, 0     	BTFSC	_UIRbits, 3
00488e   2a00     incf    0, 0x1, 0        	INCF	r0x00, F
004890   5000     movf    0, 0, 0          	MOVF	r0x00, W
004892   0a01     xorlw   0x1              	XORLW	0x01
004894   e102     bnz     0x489a           	BNZ	_00590_DS_
                                           ;	.line	805; /dvpt/pinguino/git/pinguino-ide/pinguino/p8/pinguino/libraries/usb/picUSB.c	UIRbits.TRNIF = 0;
004896   9662     bcf     0x62, 0x3, 0     	BCF	_UIRbits, 3
004898   d7f8     bra     0x488a           	BRA	_00588_DS_
                                           _00590_DS_:
                                           ;	.line	808; /dvpt/pinguino/git/pinguino-ide/pinguino/p8/pinguino/libraries/usb/picUSB.c	UCONbits.PKTDIS = 0;
00489a   9865     bcf     0x65, 0x4, 0     	BCF	_UCONbits, 4
                                           ;	.line	811; /dvpt/pinguino/git/pinguino-ide/pinguino/p8/pinguino/libraries/usb/picUSB.c	WaitForSetupStage();
00489c   ec6b     call    0x4cd6, 0        	CALL	_WaitForSetupStage
00489e   f026
0048a0   0101     movlb   0x1              	BANKSEL	_remoteWakeup
                                           ;	.line	813; /dvpt/pinguino/git/pinguino-ide/pinguino/p8/pinguino/libraries/usb/picUSB.c	remoteWakeup = 0;                     // Remote wakeup is off by default
0048a2   6b93     clrf    0x93, 0x1        	CLRF	_remoteWakeup, B
0048a4   0101     movlb   0x1              	BANKSEL	_selfPowered
                                           ;	.line	814; /dvpt/pinguino/git/pinguino-ide/pinguino/p8/pinguino/libraries/usb/picUSB.c	selfPowered = 0;                      // Self powered is off by default
0048a6   6b92     clrf    0x92, 0x1        	CLRF	_selfPowered, B
0048a8   0101     movlb   0x1              	BANKSEL	_currentConfiguration
                                           ;	.line	815; /dvpt/pinguino/git/pinguino-ide/pinguino/p8/pinguino/libraries/usb/picUSB.c	currentConfiguration = 0;             // Clear active configuration
0048aa   6b95     clrf    0x95, 0x1        	CLRF	_currentConfiguration, B
                                           ;	.line	816; /dvpt/pinguino/git/pinguino-ide/pinguino/p8/pinguino/libraries/usb/picUSB.c	deviceState = DEFAULT_STATUS;
0048ac   0e03     movlw   0x3              	MOVLW	0x03
0048ae   0101     movlb   0x1              	BANKSEL	_deviceState
0048b0   6f94     movwf   0x94, 0x1        	MOVWF	_deviceState, B
0048b2   cfe4     movff   0xfe4, 0         	MOVFF	PREINC1, r0x00
0048b4   f000
0048b6   0012     return  0                	RETURN	
                                           
                                           ; ; Starting pCode block
                                           S_main__Suspend	code
                                           _Suspend:
                                           ;	.line	720; /dvpt/pinguino/git/pinguino-ide/pinguino/p8/pinguino/libraries/usb/picUSB.c	void Suspend(void)
004c50   cfd9     movff   0xfd9, 0xfe5     	MOVFF	FSR2L, POSTDEC1
004c52   ffe5
004c54   cfe1     movff   0xfe1, 0xfd9     	MOVFF	FSR1L, FSR2L
004c56   ffd9
004c58   010f     movlb   0xf              	BANKSEL	_UIEbits
                                           ;	.line	726; /dvpt/pinguino/git/pinguino-ide/pinguino/p8/pinguino/libraries/usb/picUSB.c	UIEbits.ACTVIE = 1;
004c5a   8536     bsf     0x36, 0x2, 0x1   	BSF	_UIEbits, 2, B
                                           ;	.line	727; /dvpt/pinguino/git/pinguino-ide/pinguino/p8/pinguino/libraries/usb/picUSB.c	UIRbits.IDLEIF = 0;
004c5c   9862     bcf     0x62, 0x4, 0     	BCF	_UIRbits, 4
                                           ;	.line	728; /dvpt/pinguino/git/pinguino-ide/pinguino/p8/pinguino/libraries/usb/picUSB.c	UCONbits.SUSPND = 1;
004c5e   8265     bsf     0x65, 0x1, 0     	BSF	_UCONbits, 1
                                           ;	.line	733; /dvpt/pinguino/git/pinguino-ide/pinguino/p8/pinguino/libraries/usb/picUSB.c	PIR2bits.USBIF = 0;
004c60   98a1     bcf     0xa1, 0x4, 0     	BCF	_PIR2bits, 4
                                           ;	.line	739; /dvpt/pinguino/git/pinguino-ide/pinguino/p8/pinguino/libraries/usb/picUSB.c	INTCONbits.RBIF = 0;
004c62   90f2     bcf     0xf2, 0, 0       	BCF	_INTCONbits, 0
                                           ;	.line	745; /dvpt/pinguino/git/pinguino-ide/pinguino/p8/pinguino/libraries/usb/picUSB.c	PIE2bits.USBIE = 1;
004c64   88a0     bsf     0xa0, 0x4, 0     	BSF	_PIE2bits, 4
                                           ;	.line	751; /dvpt/pinguino/git/pinguino-ide/pinguino/p8/pinguino/libraries/usb/picUSB.c	INTCONbits.RBIE = 1;
004c66   86f2     bsf     0xf2, 0x3, 0     	BSF	_INTCONbits, 3
004c68   0003     sleep                    	sleep 
                                           ;	.line	781; /dvpt/pinguino/git/pinguino-ide/pinguino/p8/pinguino/libraries/usb/picUSB.c	PIE2bits.USBIE = 0;
004c6a   98a0     bcf     0xa0, 0x4, 0     	BCF	_PIE2bits, 4
                                           ;	.line	787; /dvpt/pinguino/git/pinguino-ide/pinguino/p8/pinguino/libraries/usb/picUSB.c	INTCONbits.RBIE = 0;
004c6c   96f2     bcf     0xf2, 0x3, 0     	BCF	_INTCONbits, 3
004c6e   cfe4     movff   0xfe4, 0xfd9     	MOVFF	PREINC1, FSR2L
004c70   ffd9
004c72   0012     return  0                	RETURN	
                                           
                                           ; ; Starting pCode block
                                           S_main__Stall	code
                                           _Stall:
                                           ;	.line	704; /dvpt/pinguino/git/pinguino-ide/pinguino/p8/pinguino/libraries/usb/picUSB.c	void Stall(void)
004c74   c000     movff   0, 0xfe5         	MOVFF	r0x00, POSTDEC1
004c76   ffe5
                                           ;	.line	709; /dvpt/pinguino/git/pinguino-ide/pinguino/p8/pinguino/libraries/usb/picUSB.c	if(UEP0bits.EPSTALL == 1)
004c78   6a00     clrf    0, 0             	CLRF	r0x00
004c7a   010f     movlb   0xf              	BANKSEL	_UEP0bits
004c7c   b126     btfsc   0x26, 0, 0x1     	BTFSC	_UEP0bits, 0, B
004c7e   2a00     incf    0, 0x1, 0        	INCF	r0x00, F
004c80   5000     movf    0, 0, 0          	MOVF	r0x00, W
004c82   0a01     xorlw   0x1              	XORLW	0x01
004c84   e104     bnz     0x4c8e           	BNZ	_00571_DS_
                                           ;	.line	712; /dvpt/pinguino/git/pinguino-ide/pinguino/p8/pinguino/libraries/usb/picUSB.c	WaitForSetupStage();
004c86   ec6b     call    0x4cd6, 0        	CALL	_WaitForSetupStage
004c88   f026
004c8a   010f     movlb   0xf              	BANKSEL	_UEP0bits
                                           ;	.line	713; /dvpt/pinguino/git/pinguino-ide/pinguino/p8/pinguino/libraries/usb/picUSB.c	UEP0bits.EPSTALL = 0;
004c8c   9126     bcf     0x26, 0, 0x1     	BCF	_UEP0bits, 0, B
                                           _00571_DS_:
                                           ;	.line	715; /dvpt/pinguino/git/pinguino-ide/pinguino/p8/pinguino/libraries/usb/picUSB.c	UIRbits.STALLIF = 0;
004c8e   9a62     bcf     0x62, 0x5, 0     	BCF	_UIRbits, 5
004c90   cfe4     movff   0xfe4, 0         	MOVFF	PREINC1, r0x00
004c92   f000
004c94   0012     return  0                	RETURN	
                                           
                                           ; ; Starting pCode block
                                           S_main__StartOfFrame	code
                                           _StartOfFrame:
                                           ;	.line	700; /dvpt/pinguino/git/pinguino-ide/pinguino/p8/pinguino/libraries/usb/picUSB.c	UIRbits.SOFIF = 0;
000c04   9c62     bcf     0x62, 0x6, 0     	BCF	_UIRbits, 6
000c06   0012     return  0                	RETURN	
                                           
                                           ; ; Starting pCode block
                                           S_main__UnSuspend	code
                                           _UnSuspend:
                                           ;	.line	689; /dvpt/pinguino/git/pinguino-ide/pinguino/p8/pinguino/libraries/usb/picUSB.c	UCONbits.SUSPND = 0;
004d26   9265     bcf     0x65, 0x1, 0     	BCF	_UCONbits, 1
004d28   010f     movlb   0xf              	BANKSEL	_UIEbits
                                           ;	.line	690; /dvpt/pinguino/git/pinguino-ide/pinguino/p8/pinguino/libraries/usb/picUSB.c	UIEbits.ACTVIE = 0;
004d2a   9536     bcf     0x36, 0x2, 0x1   	BCF	_UIEbits, 2, B
                                           ;	.line	691; /dvpt/pinguino/git/pinguino-ide/pinguino/p8/pinguino/libraries/usb/picUSB.c	UIRbits.ACTVIF = 0;
004d2c   9462     bcf     0x62, 0x2, 0     	BCF	_UIRbits, 2
004d2e   0012     return  0                	RETURN	
                                           
                                           ; ; Starting pCode block
                                           S_main__EnableUSBModule	code
                                           _EnableUSBModule:
                                           ;	.line	655; /dvpt/pinguino/git/pinguino-ide/pinguino/p8/pinguino/libraries/usb/picUSB.c	if(UCONbits.USBEN == 0)
004a66   b665     btfsc   0x65, 0x3, 0     	BTFSC	_UCONbits, 3
004a68   d007     bra     0x4a78           	BRA	_00539_DS_
                                           ;	.line	660; /dvpt/pinguino/git/pinguino-ide/pinguino/p8/pinguino/libraries/usb/picUSB.c	UCON = 0;
004a6a   6a65     clrf    0x65, 0          	CLRF	_UCON
004a6c   010f     movlb   0xf              	BANKSEL	_UIE
                                           ;	.line	661; /dvpt/pinguino/git/pinguino-ide/pinguino/p8/pinguino/libraries/usb/picUSB.c	UIE = 0;
004a6e   6b36     clrf    0x36, 0x1        	CLRF	_UIE, B
                                           ;	.line	662; /dvpt/pinguino/git/pinguino-ide/pinguino/p8/pinguino/libraries/usb/picUSB.c	UCONbits.USBEN = 1;
004a70   8665     bsf     0x65, 0x3, 0     	BSF	_UCONbits, 3
                                           ;	.line	663; /dvpt/pinguino/git/pinguino-ide/pinguino/p8/pinguino/libraries/usb/picUSB.c	deviceState = ATTACHED;
004a72   0e01     movlw   0x1              	MOVLW	0x01
004a74   0101     movlb   0x1              	BANKSEL	_deviceState
004a76   6f94     movwf   0x94, 0x1        	MOVWF	_deviceState, B
                                           _00539_DS_:
004a78   0101     movlb   0x1              	BANKSEL	_deviceState
                                           ;	.line	668; /dvpt/pinguino/git/pinguino-ide/pinguino/p8/pinguino/libraries/usb/picUSB.c	if ((deviceState == ATTACHED) && !UCONbits.SE0)
004a7a   5194     movf    0x94, 0, 0x1     	MOVF	_deviceState, W, B
004a7c   0a01     xorlw   0x1              	XORLW	0x01
004a7e   e10b     bnz     0x4a96           	BNZ	_00543_DS_
004a80   ba65     btfsc   0x65, 0x5, 0     	BTFSC	_UCONbits, 5
004a82   d009     bra     0x4a96           	BRA	_00543_DS_
                                           ;	.line	670; /dvpt/pinguino/git/pinguino-ide/pinguino/p8/pinguino/libraries/usb/picUSB.c	UIR = 0;
004a84   6a62     clrf    0x62, 0          	CLRF	_UIR
004a86   010f     movlb   0xf              	BANKSEL	_UIE
                                           ;	.line	671; /dvpt/pinguino/git/pinguino-ide/pinguino/p8/pinguino/libraries/usb/picUSB.c	UIE = 0;
004a88   6b36     clrf    0x36, 0x1        	CLRF	_UIE, B
004a8a   010f     movlb   0xf              	BANKSEL	_UIEbits
                                           ;	.line	672; /dvpt/pinguino/git/pinguino-ide/pinguino/p8/pinguino/libraries/usb/picUSB.c	UIEbits.URSTIE = 1;
004a8c   8136     bsf     0x36, 0, 0x1     	BSF	_UIEbits, 0, B
                                           ;	.line	673; /dvpt/pinguino/git/pinguino-ide/pinguino/p8/pinguino/libraries/usb/picUSB.c	UIEbits.IDLEIE = 1;
004a8e   8936     bsf     0x36, 0x4, 0x1   	BSF	_UIEbits, 4, B
                                           ;	.line	674; /dvpt/pinguino/git/pinguino-ide/pinguino/p8/pinguino/libraries/usb/picUSB.c	deviceState = POWERED;
004a90   0e02     movlw   0x2              	MOVLW	0x02
004a92   0101     movlb   0x1              	BANKSEL	_deviceState
004a94   6f94     movwf   0x94, 0x1        	MOVWF	_deviceState, B
                                           _00543_DS_:
004a96   0012     return  0                	RETURN	
                                           
                                           ; ; Starting pCode block
                                           S_main__ProcessControlTransfer	code
                                           _ProcessControlTransfer:
                                           ;	.line	563; /dvpt/pinguino/git/pinguino-ide/pinguino/p8/pinguino/libraries/usb/picUSB.c	void ProcessControlTransfer(void) {
003f64   c000     movff   0, 0xfe5         	MOVFF	r0x00, POSTDEC1
003f66   ffe5
                                           ;	.line	567; /dvpt/pinguino/git/pinguino-ide/pinguino/p8/pinguino/libraries/usb/picUSB.c	if (USTATbits.DIR == OUT) {
003f68   b464     btfsc   0x64, 0x2, 0     	BTFSC	_USTATbits, 2
003f6a   d022     bra     0x3fb0           	BRA	_00489_DS_
                                           ;	.line	570; /dvpt/pinguino/git/pinguino-ide/pinguino/p8/pinguino/libraries/usb/picUSB.c	u8 PID = (EP_OUT_BD(0).Stat.uc & 0x3C) >> 2;
003f6c   0e3c     movlw   0x3c             	MOVLW	0x3c
003f6e   010d     movlb   0xd              	BANKSEL	_ep_bdt
003f70   1500     andwf   0, 0, 0x1        	ANDWF	_ep_bdt, W, B
003f72   6e00     movwf   0, 0             	MOVWF	r0x00
003f74   4000     rrncf   0, 0, 0          	RRNCF	r0x00, W
003f76   40e8     rrncf   0xe8, 0, 0       	RRNCF	WREG, W
003f78   0b3f     andlw   0x3f             	ANDLW	0x3f
                                           ; #	MOVWF	r0x00
                                           ; #	MOVF	r0x00, W
                                           ;	.line	571; /dvpt/pinguino/git/pinguino-ide/pinguino/p8/pinguino/libraries/usb/picUSB.c	if (PID == 0x0D)
003f7a   0a0d     xorlw   0xd              	XORLW	0x0d
003f7c   e103     bnz     0x3f84           	BNZ	_00473_DS_
                                           ;	.line	573; /dvpt/pinguino/git/pinguino-ide/pinguino/p8/pinguino/libraries/usb/picUSB.c	SetupStage();
003f7e   ece7     call    0x3bce, 0        	CALL	_SetupStage
003f80   f01d
003f82   d040     bra     0x4004           	BRA	_00491_DS_
                                           _00473_DS_:
003f84   0101     movlb   0x1              	BANKSEL	_ctrlTransferStage
                                           ;	.line	574; /dvpt/pinguino/git/pinguino-ide/pinguino/p8/pinguino/libraries/usb/picUSB.c	else if (ctrlTransferStage == DATA_OUT_STAGE) {
003f86   5196     movf    0x96, 0, 0x1     	MOVF	_ctrlTransferStage, W, B
003f88   0a01     xorlw   0x1              	XORLW	0x01
003f8a   e10f     bnz     0x3faa           	BNZ	_00470_DS_
                                           ;	.line	577; /dvpt/pinguino/git/pinguino-ide/pinguino/p8/pinguino/libraries/usb/picUSB.c	OutDataStage(0);
003f8c   0e00     movlw   0                	MOVLW	0x00
003f8e   6ae5     clrf    0xe5, 0          	CLRF	POSTDEC1
003f90   ece7     call    0x2fce, 0        	CALL	_OutDataStage
003f92   f017
003f94   52e6     movf    0xe6, 0x1, 0     	MOVF	POSTINC1, F
003f96   010d     movlb   0xd              	BANKSEL	_ep_bdt
                                           ;	.line	601; /dvpt/pinguino/git/pinguino-ide/pinguino/p8/pinguino/libraries/usb/picUSB.c	if(EP_OUT_BD(0).Stat.DTS)
003f98   ad00     btfss   0, 0x6, 0x1      	BTFSS	_ep_bdt, 6, B
003f9a   d003     bra     0x3fa2           	BRA	_00467_DS_
                                           ;	.line	602; /dvpt/pinguino/git/pinguino-ide/pinguino/p8/pinguino/libraries/usb/picUSB.c	EP_OUT_BD(0).Stat.uc = BDS_UOWN | BDS_DTSEN;
003f9c   0e88     movlw   0x88             	MOVLW	0x88
                                           ; removed redundant BANKSEL
003f9e   6f00     movwf   0, 0x1           	MOVWF	_ep_bdt, B
003fa0   d031     bra     0x4004           	BRA	_00491_DS_
                                           _00467_DS_:
                                           ;	.line	604; /dvpt/pinguino/git/pinguino-ide/pinguino/p8/pinguino/libraries/usb/picUSB.c	EP_OUT_BD(0).Stat.uc = BDS_UOWN | BDS_DTS | BDS_DTSEN;
003fa2   0ec8     movlw   0xc8             	MOVLW	0xc8
003fa4   010d     movlb   0xd              	BANKSEL	_ep_bdt
003fa6   6f00     movwf   0, 0x1           	MOVWF	_ep_bdt, B
003fa8   d02d     bra     0x4004           	BRA	_00491_DS_
                                           _00470_DS_:
                                           ;	.line	608; /dvpt/pinguino/git/pinguino-ide/pinguino/p8/pinguino/libraries/usb/picUSB.c	WaitForSetupStage();
003faa   ec6b     call    0x4cd6, 0        	CALL	_WaitForSetupStage
003fac   f026
003fae   d02a     bra     0x4004           	BRA	_00491_DS_
                                           _00489_DS_:
                                           ;	.line	611; /dvpt/pinguino/git/pinguino-ide/pinguino/p8/pinguino/libraries/usb/picUSB.c	else if(USTATbits.DIR == IN) {
003fb0   6a00     clrf    0, 0             	CLRF	r0x00
003fb2   b464     btfsc   0x64, 0x2, 0     	BTFSC	_USTATbits, 2
003fb4   2a00     incf    0, 0x1, 0        	INCF	r0x00, F
003fb6   5000     movf    0, 0, 0          	MOVF	r0x00, W
003fb8   0a01     xorlw   0x1              	XORLW	0x01
003fba   e124     bnz     0x4004           	BNZ	_00491_DS_
                                           _00529_DS_:
003fbc   010f     movlb   0xf              	BANKSEL	_UADDR
                                           ;	.line	613; /dvpt/pinguino/git/pinguino-ide/pinguino/p8/pinguino/libraries/usb/picUSB.c	if ((UADDR == 0) && (deviceState == ADDRESS)) {
003fbe   5138     movf    0x38, 0, 0x1     	MOVF	_UADDR, W, B
003fc0   e10c     bnz     0x3fda           	BNZ	_00478_DS_
003fc2   0101     movlb   0x1              	BANKSEL	_deviceState
003fc4   5194     movf    0x94, 0, 0x1     	MOVF	_deviceState, W, B
003fc6   0a04     xorlw   0x4              	XORLW	0x04
003fc8   e108     bnz     0x3fda           	BNZ	_00478_DS_
                                           ;	.line	616; /dvpt/pinguino/git/pinguino-ide/pinguino/p8/pinguino/libraries/usb/picUSB.c	UADDR = SetupPacket.wValue0;
003fca   c502     movff   0x502, 0xf38     	MOVFF	(_SetupPacket + 2), _UADDR
003fcc   ff38
003fce   010f     movlb   0xf              	BANKSEL	_UADDR
                                           ;	.line	620; /dvpt/pinguino/git/pinguino-ide/pinguino/p8/pinguino/libraries/usb/picUSB.c	if(UADDR == 0)
003fd0   5138     movf    0x38, 0, 0x1     	MOVF	_UADDR, W, B
003fd2   e103     bnz     0x3fda           	BNZ	_00478_DS_
                                           ;	.line	623; /dvpt/pinguino/git/pinguino-ide/pinguino/p8/pinguino/libraries/usb/picUSB.c	deviceState = DEFAULT_STATUS;
003fd4   0e03     movlw   0x3              	MOVLW	0x03
003fd6   0101     movlb   0x1              	BANKSEL	_deviceState
003fd8   6f94     movwf   0x94, 0x1        	MOVWF	_deviceState, B
                                           _00478_DS_:
003fda   0101     movlb   0x1              	BANKSEL	_ctrlTransferStage
                                           ;	.line	626; /dvpt/pinguino/git/pinguino-ide/pinguino/p8/pinguino/libraries/usb/picUSB.c	if (ctrlTransferStage == DATA_IN_STAGE) {
003fdc   5196     movf    0x96, 0, 0x1     	MOVF	_ctrlTransferStage, W, B
003fde   0a02     xorlw   0x2              	XORLW	0x02
003fe0   e10f     bnz     0x4000           	BNZ	_00484_DS_
                                           ;	.line	628; /dvpt/pinguino/git/pinguino-ide/pinguino/p8/pinguino/libraries/usb/picUSB.c	InDataStage(0);
003fe2   0e00     movlw   0                	MOVLW	0x00
003fe4   6ae5     clrf    0xe5, 0          	CLRF	POSTDEC1
003fe6   ec92     call    0x2924, 0        	CALL	_InDataStage
003fe8   f014
003fea   52e6     movf    0xe6, 0x1, 0     	MOVF	POSTINC1, F
003fec   010d     movlb   0xd              	BANKSEL	(_ep_bdt + 4)
                                           ;	.line	631; /dvpt/pinguino/git/pinguino-ide/pinguino/p8/pinguino/libraries/usb/picUSB.c	if(EP_IN_BD(0).Stat.DTS)
003fee   ad04     btfss   0x4, 0x6, 0x1    	BTFSS	(_ep_bdt + 4), 6, B
003ff0   d003     bra     0x3ff8           	BRA	_00481_DS_
                                           ;	.line	632; /dvpt/pinguino/git/pinguino-ide/pinguino/p8/pinguino/libraries/usb/picUSB.c	EP_IN_BD(0).Stat.uc = BDS_UOWN | BDS_DTSEN;
003ff2   0e88     movlw   0x88             	MOVLW	0x88
                                           ; removed redundant BANKSEL
003ff4   6f04     movwf   0x4, 0x1         	MOVWF	(_ep_bdt + 4), B
003ff6   d006     bra     0x4004           	BRA	_00491_DS_
                                           _00481_DS_:
                                           ;	.line	634; /dvpt/pinguino/git/pinguino-ide/pinguino/p8/pinguino/libraries/usb/picUSB.c	EP_IN_BD(0).Stat.uc = BDS_UOWN | BDS_DTS | BDS_DTSEN;
003ff8   0ec8     movlw   0xc8             	MOVLW	0xc8
003ffa   010d     movlb   0xd              	BANKSEL	(_ep_bdt + 4)
003ffc   6f04     movwf   0x4, 0x1         	MOVWF	(_ep_bdt + 4), B
003ffe   d002     bra     0x4004           	BRA	_00491_DS_
                                           _00484_DS_:
                                           ;	.line	638; /dvpt/pinguino/git/pinguino-ide/pinguino/p8/pinguino/libraries/usb/picUSB.c	WaitForSetupStage();
004000   ec6b     call    0x4cd6, 0        	CALL	_WaitForSetupStage
004002   f026
                                           _00491_DS_:
004004   cfe4     movff   0xfe4, 0         	MOVFF	PREINC1, r0x00
004006   f000
004008   0012     return  0                	RETURN	
                                           
                                           ; ; Starting pCode block
                                           S_main__WaitForSetupStage	code
                                           _WaitForSetupStage:
004cd6   0101     movlb   0x1              	BANKSEL	_ctrlTransferStage
                                           ;	.line	550; /dvpt/pinguino/git/pinguino-ide/pinguino/p8/pinguino/libraries/usb/picUSB.c	ctrlTransferStage = SETUP_STAGE;
004cd8   6b96     clrf    0x96, 0x1        	CLRF	_ctrlTransferStage, B
                                           ;	.line	551; /dvpt/pinguino/git/pinguino-ide/pinguino/p8/pinguino/libraries/usb/picUSB.c	EP_OUT_BD(0).Cnt = EP0_BUFFER_SIZE;
004cda   0e40     movlw   0x40             	MOVLW	0x40
004cdc   010d     movlb   0xd              	BANKSEL	(_ep_bdt + 1)
004cde   6f01     movwf   0x1, 0x1         	MOVWF	(_ep_bdt + 1), B
                                           ;	.line	552; /dvpt/pinguino/git/pinguino-ide/pinguino/p8/pinguino/libraries/usb/picUSB.c	EP_OUT_BD(0).ADDR = PTR16(&SetupPacket);
004ce0   0e00     movlw   0                	MOVLW	LOW(_SetupPacket)
                                           ; removed redundant BANKSEL
004ce2   6f02     movwf   0x2, 0x1         	MOVWF	(_ep_bdt + 2), B
004ce4   0e05     movlw   0x5              	MOVLW	HIGH(_SetupPacket)
                                           ; removed redundant BANKSEL
004ce6   6f03     movwf   0x3, 0x1         	MOVWF	(_ep_bdt + 3), B
                                           ;	.line	554; /dvpt/pinguino/git/pinguino-ide/pinguino/p8/pinguino/libraries/usb/picUSB.c	EP_OUT_BD(0).Stat.uc = BDS_UOWN | BDS_DTSEN;
004ce8   0e88     movlw   0x88             	MOVLW	0x88
                                           ; removed redundant BANKSEL
004cea   6f00     movwf   0, 0x1           	MOVWF	_ep_bdt, B
                                           ; removed redundant BANKSEL
                                           ;	.line	555; /dvpt/pinguino/git/pinguino-ide/pinguino/p8/pinguino/libraries/usb/picUSB.c	EP_IN_BD(0).Stat.uc = 0x00;           // Give control to CPU
004cec   6b04     clrf    0x4, 0x1         	CLRF	(_ep_bdt + 4), B
004cee   0012     return  0                	RETURN	
                                           
                                           ; ; Starting pCode block
                                           S_main__SetupStage	code
                                           _SetupStage:
                                           ;	.line	477; /dvpt/pinguino/git/pinguino-ide/pinguino/p8/pinguino/libraries/usb/picUSB.c	void SetupStage(void) {
003bce   c000     movff   0, 0xfe5         	MOVFF	r0x00, POSTDEC1
003bd0   ffe5
003bd2   010d     movlb   0xd              	BANKSEL	(_ep_bdt + 4)
                                           ;	.line	480; /dvpt/pinguino/git/pinguino-ide/pinguino/p8/pinguino/libraries/usb/picUSB.c	EP_IN_BD(0).Stat.uc &= ~BDS_UOWN;
003bd4   5104     movf    0x4, 0, 0x1      	MOVF	(_ep_bdt + 4), W, B
003bd6   6e00     movwf   0, 0             	MOVWF	r0x00
003bd8   9e00     bcf     0, 0x7, 0        	BCF	r0x00, 7
003bda   5000     movf    0, 0, 0          	MOVF	r0x00, W
                                           ; removed redundant BANKSEL
003bdc   6f04     movwf   0x4, 0x1         	MOVWF	(_ep_bdt + 4), B
                                           ; removed redundant BANKSEL
                                           ;	.line	481; /dvpt/pinguino/git/pinguino-ide/pinguino/p8/pinguino/libraries/usb/picUSB.c	EP_OUT_BD(0).Stat.uc &= ~BDS_UOWN;
003bde   5100     movf    0, 0, 0x1        	MOVF	_ep_bdt, W, B
003be0   6e00     movwf   0, 0             	MOVWF	r0x00
003be2   9e00     bcf     0, 0x7, 0        	BCF	r0x00, 7
003be4   5000     movf    0, 0, 0          	MOVF	r0x00, W
                                           ; removed redundant BANKSEL
003be6   6f00     movwf   0, 0x1           	MOVWF	_ep_bdt, B
003be8   0101     movlb   0x1              	BANKSEL	_ctrlTransferStage
                                           ;	.line	484; /dvpt/pinguino/git/pinguino-ide/pinguino/p8/pinguino/libraries/usb/picUSB.c	ctrlTransferStage = SETUP_STAGE;
003bea   6b96     clrf    0x96, 0x1        	CLRF	_ctrlTransferStage, B
003bec   0101     movlb   0x1              	BANKSEL	_requestHandled
                                           ;	.line	485; /dvpt/pinguino/git/pinguino-ide/pinguino/p8/pinguino/libraries/usb/picUSB.c	requestHandled = 0;                   // Default is that request hasn't been handled
003bee   6b91     clrf    0x91, 0x1        	CLRF	_requestHandled, B
003bf0   0101     movlb   0x1              	BANKSEL	_HIDPostProcess
                                           ;	.line	486; /dvpt/pinguino/git/pinguino-ide/pinguino/p8/pinguino/libraries/usb/picUSB.c	HIDPostProcess = 0;                   // Assume standard request until know otherwise
003bf2   6b8d     clrf    0x8d, 0x1        	CLRF	_HIDPostProcess, B
003bf4   0101     movlb   0x1              	BANKSEL	_wCount
                                           ;	.line	487; /dvpt/pinguino/git/pinguino-ide/pinguino/p8/pinguino/libraries/usb/picUSB.c	wCount = 0;                           // No bytes transferred
003bf6   6b88     clrf    0x88, 0x1        	CLRF	_wCount, B
                                           ; removed redundant BANKSEL
003bf8   6b89     clrf    0x89, 0x1        	CLRF	(_wCount + 1), B
                                           ;	.line	490; /dvpt/pinguino/git/pinguino-ide/pinguino/p8/pinguino/libraries/usb/picUSB.c	ProcessStandardRequest();
003bfa   ec7a     call    0x3af4, 0        	CALL	_ProcessStandardRequest
003bfc   f01d
                                           ;	.line	500; /dvpt/pinguino/git/pinguino-ide/pinguino/p8/pinguino/libraries/usb/picUSB.c	if ((SetupPacket.bmRequestType & USB_RECIP_MASK) == USB_RECIP_INTERFACE)  
003bfe   0e1f     movlw   0x1f             	MOVLW	0x1f
003c00   0105     movlb   0x5              	BANKSEL	_SetupPacket
003c02   1500     andwf   0, 0, 0x1        	ANDWF	_SetupPacket, W, B
                                           ; #	MOVWF	r0x00
                                           ; #	MOVF	r0x00, W
003c04   0a01     xorlw   0x1              	XORLW	0x01
003c06   e102     bnz     0x3c0c           	BNZ	_00426_DS_
                                           ;	.line	501; /dvpt/pinguino/git/pinguino-ide/pinguino/p8/pinguino/libraries/usb/picUSB.c	ProcessCDCRequest();
003c08   ec0b     call    0x3e16, 0        	CALL	_ProcessCDCRequest
003c0a   f01f
                                           _00426_DS_:
003c0c   0101     movlb   0x1              	BANKSEL	_requestHandled
                                           ;	.line	504; /dvpt/pinguino/git/pinguino-ide/pinguino/p8/pinguino/libraries/usb/picUSB.c	if (!requestHandled) {
003c0e   5191     movf    0x91, 0, 0x1     	MOVF	_requestHandled, W, B
003c10   e10b     bnz     0x3c28           	BNZ	_00433_DS_
                                           ;	.line	506; /dvpt/pinguino/git/pinguino-ide/pinguino/p8/pinguino/libraries/usb/picUSB.c	EP_OUT_BD(0).Cnt = EP0_BUFFER_SIZE;
003c12   0e40     movlw   0x40             	MOVLW	0x40
003c14   010d     movlb   0xd              	BANKSEL	(_ep_bdt + 1)
003c16   6f01     movwf   0x1, 0x1         	MOVWF	(_ep_bdt + 1), B
                                           ;	.line	507; /dvpt/pinguino/git/pinguino-ide/pinguino/p8/pinguino/libraries/usb/picUSB.c	EP_OUT_BD(0).ADDR = PTR16(&SetupPacket);
003c18   0e00     movlw   0                	MOVLW	LOW(_SetupPacket)
                                           ; removed redundant BANKSEL
003c1a   6f02     movwf   0x2, 0x1         	MOVWF	(_ep_bdt + 2), B
003c1c   0e05     movlw   0x5              	MOVLW	HIGH(_SetupPacket)
                                           ; removed redundant BANKSEL
003c1e   6f03     movwf   0x3, 0x1         	MOVWF	(_ep_bdt + 3), B
                                           ; #	MOVLW	0x84
                                           ; #	MOVWF	_ep_bdt, B
                                           ; #	MOVLW	0x84
                                           ;	.line	508; /dvpt/pinguino/git/pinguino-ide/pinguino/p8/pinguino/libraries/usb/picUSB.c	EP_OUT_BD(0).Stat.uc = BDS_UOWN | BDS_BSTALL;
003c20   0e84     movlw   0x84             	MOVLW	0x84
                                           ; removed redundant BANKSEL
                                           ;	.line	509; /dvpt/pinguino/git/pinguino-ide/pinguino/p8/pinguino/libraries/usb/picUSB.c	EP_IN_BD(0).Stat.uc = BDS_UOWN | BDS_BSTALL;
003c22   6f00     movwf   0, 0x1           	MOVWF	_ep_bdt, B
                                           ; removed redundant BANKSEL
003c24   6f04     movwf   0x4, 0x1         	MOVWF	(_ep_bdt + 4), B
003c26   d038     bra     0x3c98           	BRA	_00434_DS_
                                           _00433_DS_:
003c28   0105     movlb   0x5              	BANKSEL	_SetupPacket
                                           ;	.line	511; /dvpt/pinguino/git/pinguino-ide/pinguino/p8/pinguino/libraries/usb/picUSB.c	else if (SetupPacket.bmRequestType & 0x80) {
003c2a   af00     btfss   0, 0x7, 0x1      	BTFSS	_SetupPacket, 7, B
003c2c   d026     bra     0x3c7a           	BRA	_00430_DS_
003c2e   0101     movlb   0x1              	BANKSEL	(_wCount + 1)
                                           ;	.line	513; /dvpt/pinguino/git/pinguino-ide/pinguino/p8/pinguino/libraries/usb/picUSB.c	if(SetupPacket.wLength < wCount)
003c30   5189     movf    0x89, 0, 0x1     	MOVF	(_wCount + 1), W, B
003c32   0105     movlb   0x5              	BANKSEL	(_SetupPacket + 7)
003c34   5d07     subwf   0x7, 0, 0x1      	SUBWF	(_SetupPacket + 7), W, B
003c36   e104     bnz     0x3c40           	BNZ	_00456_DS_
003c38   0101     movlb   0x1              	BANKSEL	_wCount
003c3a   5188     movf    0x88, 0, 0x1     	MOVF	_wCount, W, B
003c3c   0105     movlb   0x5              	BANKSEL	(_SetupPacket + 6)
003c3e   5d06     subwf   0x6, 0, 0x1      	SUBWF	(_SetupPacket + 6), W, B
                                           _00456_DS_:
003c40   e204     bc      0x3c4a           	BC	_00428_DS_
                                           ;	.line	514; /dvpt/pinguino/git/pinguino-ide/pinguino/p8/pinguino/libraries/usb/picUSB.c	wCount = SetupPacket.wLength;
003c42   c506     movff   0x506, 0x188     	MOVFF	(_SetupPacket + 6), _wCount
003c44   f188
003c46   c507     movff   0x507, 0x189     	MOVFF	(_SetupPacket + 7), (_wCount + 1)
003c48   f189
                                           _00428_DS_:
                                           ;	.line	515; /dvpt/pinguino/git/pinguino-ide/pinguino/p8/pinguino/libraries/usb/picUSB.c	InDataStage(0);
003c4a   0e00     movlw   0                	MOVLW	0x00
003c4c   6ae5     clrf    0xe5, 0          	CLRF	POSTDEC1
003c4e   ec92     call    0x2924, 0        	CALL	_InDataStage
003c50   f014
003c52   52e6     movf    0xe6, 0x1, 0     	MOVF	POSTINC1, F
                                           ;	.line	516; /dvpt/pinguino/git/pinguino-ide/pinguino/p8/pinguino/libraries/usb/picUSB.c	ctrlTransferStage = DATA_IN_STAGE;
003c54   0e02     movlw   0x2              	MOVLW	0x02
003c56   0101     movlb   0x1              	BANKSEL	_ctrlTransferStage
003c58   6f96     movwf   0x96, 0x1        	MOVWF	_ctrlTransferStage, B
                                           ;	.line	518; /dvpt/pinguino/git/pinguino-ide/pinguino/p8/pinguino/libraries/usb/picUSB.c	EP_OUT_BD(0).Cnt = EP0_BUFFER_SIZE;
003c5a   0e40     movlw   0x40             	MOVLW	0x40
003c5c   010d     movlb   0xd              	BANKSEL	(_ep_bdt + 1)
003c5e   6f01     movwf   0x1, 0x1         	MOVWF	(_ep_bdt + 1), B
                                           ;	.line	519; /dvpt/pinguino/git/pinguino-ide/pinguino/p8/pinguino/libraries/usb/picUSB.c	EP_OUT_BD(0).ADDR = PTR16(&SetupPacket);
003c60   0e00     movlw   0                	MOVLW	LOW(_SetupPacket)
                                           ; removed redundant BANKSEL
003c62   6f02     movwf   0x2, 0x1         	MOVWF	(_ep_bdt + 2), B
003c64   0e05     movlw   0x5              	MOVLW	HIGH(_SetupPacket)
                                           ; removed redundant BANKSEL
003c66   6f03     movwf   0x3, 0x1         	MOVWF	(_ep_bdt + 3), B
                                           ;	.line	520; /dvpt/pinguino/git/pinguino-ide/pinguino/p8/pinguino/libraries/usb/picUSB.c	EP_OUT_BD(0).Stat.uc = BDS_UOWN;
003c68   0e80     movlw   0x80             	MOVLW	0x80
                                           ; removed redundant BANKSEL
003c6a   6f00     movwf   0, 0x1           	MOVWF	_ep_bdt, B
                                           ;	.line	523; /dvpt/pinguino/git/pinguino-ide/pinguino/p8/pinguino/libraries/usb/picUSB.c	EP_IN_BD(0).ADDR = PTR16(&controlTransferBuffer);
003c6c   0e40     movlw   0x40             	MOVLW	LOW(_controlTransferBuffer)
                                           ; removed redundant BANKSEL
003c6e   6f06     movwf   0x6, 0x1         	MOVWF	(_ep_bdt + 6), B
003c70   0e05     movlw   0x5              	MOVLW	HIGH(_controlTransferBuffer)
                                           ; removed redundant BANKSEL
003c72   6f07     movwf   0x7, 0x1         	MOVWF	(_ep_bdt + 7), B
                                           ;	.line	525; /dvpt/pinguino/git/pinguino-ide/pinguino/p8/pinguino/libraries/usb/picUSB.c	EP_IN_BD(0).Stat.uc = BDS_UOWN | BDS_DTS | BDS_DTSEN;
003c74   0ec8     movlw   0xc8             	MOVLW	0xc8
                                           ; removed redundant BANKSEL
003c76   6f04     movwf   0x4, 0x1         	MOVWF	(_ep_bdt + 4), B
003c78   d00f     bra     0x3c98           	BRA	_00434_DS_
                                           _00430_DS_:
                                           ;	.line	529; /dvpt/pinguino/git/pinguino-ide/pinguino/p8/pinguino/libraries/usb/picUSB.c	ctrlTransferStage = DATA_OUT_STAGE;
003c7a   0e01     movlw   0x1              	MOVLW	0x01
003c7c   0101     movlb   0x1              	BANKSEL	_ctrlTransferStage
003c7e   6f96     movwf   0x96, 0x1        	MOVWF	_ctrlTransferStage, B
003c80   010d     movlb   0xd              	BANKSEL	(_ep_bdt + 5)
                                           ;	.line	532; /dvpt/pinguino/git/pinguino-ide/pinguino/p8/pinguino/libraries/usb/picUSB.c	EP_IN_BD(0).Cnt = 0;
003c82   6b05     clrf    0x5, 0x1         	CLRF	(_ep_bdt + 5), B
                                           ;	.line	533; /dvpt/pinguino/git/pinguino-ide/pinguino/p8/pinguino/libraries/usb/picUSB.c	EP_IN_BD(0).Stat.uc = BDS_UOWN | BDS_DTS | BDS_DTSEN;
003c84   0ec8     movlw   0xc8             	MOVLW	0xc8
                                           ; removed redundant BANKSEL
003c86   6f04     movwf   0x4, 0x1         	MOVWF	(_ep_bdt + 4), B
                                           ;	.line	536; /dvpt/pinguino/git/pinguino-ide/pinguino/p8/pinguino/libraries/usb/picUSB.c	EP_OUT_BD(0).Cnt = EP0_BUFFER_SIZE;
003c88   0e40     movlw   0x40             	MOVLW	0x40
                                           ; removed redundant BANKSEL
003c8a   6f01     movwf   0x1, 0x1         	MOVWF	(_ep_bdt + 1), B
                                           ;	.line	537; /dvpt/pinguino/git/pinguino-ide/pinguino/p8/pinguino/libraries/usb/picUSB.c	EP_OUT_BD(0).ADDR = PTR16(&controlTransferBuffer);
003c8c   0e40     movlw   0x40             	MOVLW	LOW(_controlTransferBuffer)
                                           ; removed redundant BANKSEL
003c8e   6f02     movwf   0x2, 0x1         	MOVWF	(_ep_bdt + 2), B
003c90   0e05     movlw   0x5              	MOVLW	HIGH(_controlTransferBuffer)
                                           ; removed redundant BANKSEL
003c92   6f03     movwf   0x3, 0x1         	MOVWF	(_ep_bdt + 3), B
                                           ;	.line	539; /dvpt/pinguino/git/pinguino-ide/pinguino/p8/pinguino/libraries/usb/picUSB.c	EP_OUT_BD(0).Stat.uc = BDS_UOWN | BDS_DTS | BDS_DTSEN;
003c94   0ec8     movlw   0xc8             	MOVLW	0xc8
                                           ; removed redundant BANKSEL
003c96   6f00     movwf   0, 0x1           	MOVWF	_ep_bdt, B
                                           _00434_DS_:
                                           ;	.line	543; /dvpt/pinguino/git/pinguino-ide/pinguino/p8/pinguino/libraries/usb/picUSB.c	UCONbits.PKTDIS = 0;
003c98   9865     bcf     0x65, 0x4, 0     	BCF	_UCONbits, 4
003c9a   cfe4     movff   0xfe4, 0         	MOVFF	PREINC1, r0x00
003c9c   f000
003c9e   0012     return  0                	RETURN	
                                           
                                           ; ; Starting pCode block
                                           S_main__OutDataStage	code
                                           _OutDataStage:
                                           ;	.line	441; /dvpt/pinguino/git/pinguino-ide/pinguino/p8/pinguino/libraries/usb/picUSB.c	void OutDataStage(unsigned char ep) {
002fce   cfd9     movff   0xfd9, 0xfe5     	MOVFF	FSR2L, POSTDEC1
002fd0   ffe5
002fd2   cfe1     movff   0xfe1, 0xfd9     	MOVFF	FSR1L, FSR2L
002fd4   ffd9
002fd6   c000     movff   0, 0xfe5         	MOVFF	r0x00, POSTDEC1
002fd8   ffe5
002fda   c001     movff   0x1, 0xfe5       	MOVFF	r0x01, POSTDEC1
002fdc   ffe5
002fde   c002     movff   0x2, 0xfe5       	MOVFF	r0x02, POSTDEC1
002fe0   ffe5
002fe2   c003     movff   0x3, 0xfe5       	MOVFF	r0x03, POSTDEC1
002fe4   ffe5
002fe6   c004     movff   0x4, 0xfe5       	MOVFF	r0x04, POSTDEC1
002fe8   ffe5
002fea   c005     movff   0x5, 0xfe5       	MOVFF	r0x05, POSTDEC1
002fec   ffe5
002fee   c006     movff   0x6, 0xfe5       	MOVFF	r0x06, POSTDEC1
002ff0   ffe5
002ff2   c007     movff   0x7, 0xfe5       	MOVFF	r0x07, POSTDEC1
002ff4   ffe5
002ff6   c008     movff   0x8, 0xfe5       	MOVFF	r0x08, POSTDEC1
002ff8   ffe5
002ffa   c009     movff   0x9, 0xfe5       	MOVFF	r0x09, POSTDEC1
002ffc   ffe5
002ffe   0e02     movlw   0x2              	MOVLW	0x02
003000   cfdb     movff   0xfdb, 0         	MOVFF	PLUSW2, r0x00
003002   f000
                                           ;	.line	444; /dvpt/pinguino/git/pinguino-ide/pinguino/p8/pinguino/libraries/usb/picUSB.c	bufferSize = ((0x03 & EP_OUT_BD(ep).Stat.uc) << 8) | EP_OUT_BD(ep).Cnt;
003004   4400     rlncf   0, 0, 0          	RLNCF	r0x00, W
003006   0bfe     andlw   0xfe             	ANDLW	0xfe
                                           ; #	MOVWF	r0x01
                                           ; #;;multiply lit val:0x04 by variable r0x01 and store in r0x00
                                           ; #	MOVF	r0x01, W
003008   0d04     mullw   0x4              	MULLW	0x04
00300a   50f4     movf    0xf4, 0, 0       	MOVF	PRODH, W
00300c   6e02     movwf   0x2, 0           	MOVWF	r0x02
00300e   cff3     movff   0xff3, 0         	MOVFF	PRODL, r0x00
003010   f000
003012   0e00     movlw   0                	MOVLW	LOW(_ep_bdt)
003014   2400     addwf   0, 0, 0          	ADDWF	r0x00, W
003016   6e01     movwf   0x1, 0           	MOVWF	r0x01
003018   0e0d     movlw   0xd              	MOVLW	HIGH(_ep_bdt)
00301a   2002     addwfc  0x2, 0, 0        	ADDWFC	r0x02, W
00301c   6e03     movwf   0x3, 0           	MOVWF	r0x03
00301e   c001     movff   0x1, 0xfe9       	MOVFF	r0x01, FSR0L
003020   ffe9
003022   c003     movff   0x3, 0xfea       	MOVFF	r0x03, FSR0H
003024   ffea
003026   cfef     movff   0xfef, 0x1       	MOVFF	INDF0, r0x01
003028   f001
00302a   0e03     movlw   0x3              	MOVLW	0x03
00302c   1601     andwf   0x1, 0x1, 0      	ANDWF	r0x01, F
00302e   5001     movf    0x1, 0, 0        	MOVF	r0x01, W
003030   6e05     movwf   0x5, 0           	MOVWF	r0x05
003032   6a04     clrf    0x4, 0           	CLRF	r0x04
003034   0e00     movlw   0                	MOVLW	LOW(_ep_bdt)
003036   2600     addwf   0, 0x1, 0        	ADDWF	r0x00, F
003038   0e0d     movlw   0xd              	MOVLW	HIGH(_ep_bdt)
00303a   2202     addwfc  0x2, 0x1, 0      	ADDWFC	r0x02, F
00303c   4a00     infsnz  0, 0x1, 0        	INFSNZ	r0x00, F
00303e   2a02     incf    0x2, 0x1, 0      	INCF	r0x02, F
003040   c000     movff   0, 0xfe9         	MOVFF	r0x00, FSR0L
003042   ffe9
003044   c002     movff   0x2, 0xfea       	MOVFF	r0x02, FSR0H
003046   ffea
003048   cfef     movff   0xfef, 0         	MOVFF	INDF0, r0x00
00304a   f000
00304c   6a01     clrf    0x1, 0           	CLRF	r0x01
00304e   5004     movf    0x4, 0, 0        	MOVF	r0x04, W
003050   1200     iorwf   0, 0x1, 0        	IORWF	r0x00, F
003052   5005     movf    0x5, 0, 0        	MOVF	r0x05, W
003054   1201     iorwf   0x1, 0x1, 0      	IORWF	r0x01, F
                                           ;	.line	451; /dvpt/pinguino/git/pinguino-ide/pinguino/p8/pinguino/libraries/usb/picUSB.c	wCount = wCount + bufferSize;
003056   5000     movf    0, 0, 0          	MOVF	r0x00, W
003058   0101     movlb   0x1              	BANKSEL	_wCount
00305a   2788     addwf   0x88, 0x1, 0x1   	ADDWF	_wCount, F, B
00305c   5001     movf    0x1, 0, 0        	MOVF	r0x01, W
                                           ; removed redundant BANKSEL
00305e   2389     addwfc  0x89, 0x1, 0x1   	ADDWFC	(_wCount + 1), F, B
                                           ;	.line	453; /dvpt/pinguino/git/pinguino-ide/pinguino/p8/pinguino/libraries/usb/picUSB.c	outPtr = (u8*)&controlTransferBuffer;
003060   0e05     movlw   0x5              	MOVLW	HIGH(_controlTransferBuffer)
003062   0101     movlb   0x1              	BANKSEL	(_outPtr + 1)
003064   6f80     movwf   0x80, 0x1        	MOVWF	(_outPtr + 1), B
003066   0e40     movlw   0x40             	MOVLW	LOW(_controlTransferBuffer)
                                           ; removed redundant BANKSEL
003068   6f7f     movwf   0x7f, 0x1        	MOVWF	_outPtr, B
00306a   0e80     movlw   0x80             	MOVLW	0x80
                                           ; removed redundant BANKSEL
00306c   6f81     movwf   0x81, 0x1        	MOVWF	(_outPtr + 2), B
                                           ;	.line	457; /dvpt/pinguino/git/pinguino-ide/pinguino/p8/pinguino/libraries/usb/picUSB.c	for (i=0;i<bufferSize;i++) {
00306e   6a02     clrf    0x2, 0           	CLRF	r0x02
003070   6a03     clrf    0x3, 0           	CLRF	r0x03
                                           _00405_DS_:
003072   5001     movf    0x1, 0, 0        	MOVF	r0x01, W
003074   5c03     subwf   0x3, 0, 0        	SUBWF	r0x03, W
003076   e102     bnz     0x307c           	BNZ	_00418_DS_
003078   5000     movf    0, 0, 0          	MOVF	r0x00, W
00307a   5c02     subwf   0x2, 0, 0        	SUBWF	r0x02, W
                                           _00418_DS_:
00307c   e22c     bc      0x30d6           	BC	_00407_DS_
                                           ;	.line	461; /dvpt/pinguino/git/pinguino-ide/pinguino/p8/pinguino/libraries/usb/picUSB.c	*inPtr++ = *outPtr++;
00307e   c182     movff   0x182, 0x4       	MOVFF	_inPtr, r0x04
003080   f004
003082   c183     movff   0x183, 0x5       	MOVFF	(_inPtr + 1), r0x05
003084   f005
003086   c184     movff   0x184, 0x6       	MOVFF	(_inPtr + 2), r0x06
003088   f006
00308a   c17f     movff   0x17f, 0x7       	MOVFF	_outPtr, r0x07
00308c   f007
00308e   c180     movff   0x180, 0x8       	MOVFF	(_outPtr + 1), r0x08
003090   f008
003092   c181     movff   0x181, 0x9       	MOVFF	(_outPtr + 2), r0x09
003094   f009
003096   c007     movff   0x7, 0xfe9       	MOVFF	r0x07, FSR0L
003098   ffe9
00309a   c008     movff   0x8, 0xff3       	MOVFF	r0x08, PRODL
00309c   fff3
00309e   5009     movf    0x9, 0, 0        	MOVF	r0x09, W
0030a0   ec4b     call    0x4c96, 0        	CALL	__gptrget1
0030a2   f026
0030a4   6e07     movwf   0x7, 0           	MOVWF	r0x07
0030a6   0101     movlb   0x1              	BANKSEL	_outPtr
0030a8   2b7f     incf    0x7f, 0x1, 0x1   	INCF	_outPtr, F, B
0030aa   e303     bnc     0x30b2           	BNC	_00419_DS_
                                           ; removed redundant BANKSEL
0030ac   3f80     incfsz  0x80, 0x1, 0x1   	INCFSZ	(_outPtr + 1), F, B
0030ae   d001     bra     0x30b2           	BRA	_11897_DS_
                                           ; removed redundant BANKSEL
0030b0   2b81     incf    0x81, 0x1, 0x1   	INCF	(_outPtr + 2), F, B
                                           _11897_DS_:
                                           _00419_DS_:
0030b2   c007     movff   0x7, 0xfe5       	MOVFF	r0x07, POSTDEC1
0030b4   ffe5
0030b6   c004     movff   0x4, 0xfe9       	MOVFF	r0x04, FSR0L
0030b8   ffe9
0030ba   c005     movff   0x5, 0xff3       	MOVFF	r0x05, PRODL
0030bc   fff3
0030be   5006     movf    0x6, 0, 0        	MOVF	r0x06, W
0030c0   ec78     call    0x4cf0, 0        	CALL	__gptrput1
0030c2   f026
0030c4   0101     movlb   0x1              	BANKSEL	_inPtr
0030c6   2b82     incf    0x82, 0x1, 0x1   	INCF	_inPtr, F, B
0030c8   e303     bnc     0x30d0           	BNC	_00420_DS_
                                           ; removed redundant BANKSEL
0030ca   3f83     incfsz  0x83, 0x1, 0x1   	INCFSZ	(_inPtr + 1), F, B
0030cc   d001     bra     0x30d0           	BRA	_21898_DS_
                                           ; removed redundant BANKSEL
0030ce   2b84     incf    0x84, 0x1, 0x1   	INCF	(_inPtr + 2), F, B
                                           _21898_DS_:
                                           _00420_DS_:
                                           ;	.line	457; /dvpt/pinguino/git/pinguino-ide/pinguino/p8/pinguino/libraries/usb/picUSB.c	for (i=0;i<bufferSize;i++) {
0030d0   4a02     infsnz  0x2, 0x1, 0      	INFSNZ	r0x02, F
0030d2   2a03     incf    0x3, 0x1, 0      	INCF	r0x03, F
0030d4   d7ce     bra     0x3072           	BRA	_00405_DS_
                                           _00407_DS_:
0030d6   cfe4     movff   0xfe4, 0x9       	MOVFF	PREINC1, r0x09
0030d8   f009
0030da   cfe4     movff   0xfe4, 0x8       	MOVFF	PREINC1, r0x08
0030dc   f008
0030de   cfe4     movff   0xfe4, 0x7       	MOVFF	PREINC1, r0x07
0030e0   f007
0030e2   cfe4     movff   0xfe4, 0x6       	MOVFF	PREINC1, r0x06
0030e4   f006
0030e6   cfe4     movff   0xfe4, 0x5       	MOVFF	PREINC1, r0x05
0030e8   f005
0030ea   cfe4     movff   0xfe4, 0x4       	MOVFF	PREINC1, r0x04
0030ec   f004
0030ee   cfe4     movff   0xfe4, 0x3       	MOVFF	PREINC1, r0x03
0030f0   f003
0030f2   cfe4     movff   0xfe4, 0x2       	MOVFF	PREINC1, r0x02
0030f4   f002
0030f6   cfe4     movff   0xfe4, 0x1       	MOVFF	PREINC1, r0x01
0030f8   f001
0030fa   cfe4     movff   0xfe4, 0         	MOVFF	PREINC1, r0x00
0030fc   f000
0030fe   cfe4     movff   0xfe4, 0xfd9     	MOVFF	PREINC1, FSR2L
003100   ffd9
003102   0012     return  0                	RETURN	
                                           
                                           ; ; Starting pCode block
                                           S_main__InDataStage	code
                                           _InDataStage:
                                           ;	.line	394; /dvpt/pinguino/git/pinguino-ide/pinguino/p8/pinguino/libraries/usb/picUSB.c	void InDataStage(unsigned char ep) {
002924   cfd9     movff   0xfd9, 0xfe5     	MOVFF	FSR2L, POSTDEC1
002926   ffe5
002928   cfe1     movff   0xfe1, 0xfd9     	MOVFF	FSR1L, FSR2L
00292a   ffd9
00292c   c000     movff   0, 0xfe5         	MOVFF	r0x00, POSTDEC1
00292e   ffe5
002930   c001     movff   0x1, 0xfe5       	MOVFF	r0x01, POSTDEC1
002932   ffe5
002934   c002     movff   0x2, 0xfe5       	MOVFF	r0x02, POSTDEC1
002936   ffe5
002938   c003     movff   0x3, 0xfe5       	MOVFF	r0x03, POSTDEC1
00293a   ffe5
00293c   c004     movff   0x4, 0xfe5       	MOVFF	r0x04, POSTDEC1
00293e   ffe5
002940   c005     movff   0x5, 0xfe5       	MOVFF	r0x05, POSTDEC1
002942   ffe5
002944   c006     movff   0x6, 0xfe5       	MOVFF	r0x06, POSTDEC1
002946   ffe5
002948   c007     movff   0x7, 0xfe5       	MOVFF	r0x07, POSTDEC1
00294a   ffe5
00294c   c008     movff   0x8, 0xfe5       	MOVFF	r0x08, POSTDEC1
00294e   ffe5
002950   0e02     movlw   0x2              	MOVLW	0x02
002952   cfdb     movff   0xfdb, 0         	MOVFF	PLUSW2, r0x00
002954   f000
                                           ;	.line	401; /dvpt/pinguino/git/pinguino-ide/pinguino/p8/pinguino/libraries/usb/picUSB.c	if(wCount < EP0_BUFFER_SIZE)
002956   0e00     movlw   0                	MOVLW	0x00
002958   0101     movlb   0x1              	BANKSEL	(_wCount + 1)
00295a   5d89     subwf   0x89, 0, 0x1     	SUBWF	(_wCount + 1), W, B
00295c   e102     bnz     0x2962           	BNZ	_00390_DS_
00295e   0e40     movlw   0x40             	MOVLW	0x40
                                           ; removed redundant BANKSEL
002960   5d88     subwf   0x88, 0, 0x1     	SUBWF	_wCount, W, B
                                           _00390_DS_:
002962   e205     bc      0x296e           	BC	_00372_DS_
                                           ;	.line	402; /dvpt/pinguino/git/pinguino-ide/pinguino/p8/pinguino/libraries/usb/picUSB.c	bufferSize = wCount;
002964   c188     movff   0x188, 0x1       	MOVFF	_wCount, r0x01
002966   f001
002968   c189     movff   0x189, 0x2       	MOVFF	(_wCount + 1), r0x02
00296a   f002
00296c   d003     bra     0x2974           	BRA	_00373_DS_
                                           _00372_DS_:
                                           ;	.line	404; /dvpt/pinguino/git/pinguino-ide/pinguino/p8/pinguino/libraries/usb/picUSB.c	bufferSize = EP0_BUFFER_SIZE;
00296e   0e40     movlw   0x40             	MOVLW	0x40
002970   6e01     movwf   0x1, 0           	MOVWF	r0x01
002972   6a02     clrf    0x2, 0           	CLRF	r0x02
                                           _00373_DS_:
                                           ;	.line	412; /dvpt/pinguino/git/pinguino-ide/pinguino/p8/pinguino/libraries/usb/picUSB.c	EP_IN_BD(ep).Stat.uc &= ~(BDS_BC8 | BDS_BC9);
002974   4400     rlncf   0, 0, 0          	RLNCF	r0x00, W
002976   0bfe     andlw   0xfe             	ANDLW	0xfe
002978   6e03     movwf   0x3, 0           	MOVWF	r0x03
00297a   2803     incf    0x3, 0, 0        	INCF	r0x03, W
                                           ; #	MOVWF	r0x00
                                           ; #;;multiply lit val:0x04 by variable r0x00 and store in r0x00
                                           ; #	MOVF	r0x00, W
00297c   0d04     mullw   0x4              	MULLW	0x04
00297e   50f4     movf    0xf4, 0, 0       	MOVF	PRODH, W
002980   6e03     movwf   0x3, 0           	MOVWF	r0x03
002982   cff3     movff   0xff3, 0         	MOVFF	PRODL, r0x00
002984   f000
002986   0e00     movlw   0                	MOVLW	LOW(_ep_bdt)
002988   2400     addwf   0, 0, 0          	ADDWF	r0x00, W
00298a   6e04     movwf   0x4, 0           	MOVWF	r0x04
00298c   0e0d     movlw   0xd              	MOVLW	HIGH(_ep_bdt)
00298e   2003     addwfc  0x3, 0, 0        	ADDWFC	r0x03, W
002990   6e05     movwf   0x5, 0           	MOVWF	r0x05
002992   0e00     movlw   0                	MOVLW	LOW(_ep_bdt)
002994   2400     addwf   0, 0, 0          	ADDWF	r0x00, W
002996   6e06     movwf   0x6, 0           	MOVWF	r0x06
002998   0e0d     movlw   0xd              	MOVLW	HIGH(_ep_bdt)
00299a   2003     addwfc  0x3, 0, 0        	ADDWFC	r0x03, W
00299c   6e07     movwf   0x7, 0           	MOVWF	r0x07
00299e   c006     movff   0x6, 0xfe9       	MOVFF	r0x06, FSR0L
0029a0   ffe9
0029a2   c007     movff   0x7, 0xfea       	MOVFF	r0x07, FSR0H
0029a4   ffea
0029a6   cfef     movff   0xfef, 0x6       	MOVFF	INDF0, r0x06
0029a8   f006
0029aa   0efc     movlw   0xfc             	MOVLW	0xfc
0029ac   1606     andwf   0x6, 0x1, 0      	ANDWF	r0x06, F
0029ae   c004     movff   0x4, 0xfe9       	MOVFF	r0x04, FSR0L
0029b0   ffe9
0029b2   c005     movff   0x5, 0xfea       	MOVFF	r0x05, FSR0H
0029b4   ffea
0029b6   c006     movff   0x6, 0xfef       	MOVFF	r0x06, INDF0
0029b8   ffef
                                           ;	.line	413; /dvpt/pinguino/git/pinguino-ide/pinguino/p8/pinguino/libraries/usb/picUSB.c	EP_IN_BD(ep).Stat.uc |= (u8)((bufferSize & 0x0300) >> 8);
0029ba   0e00     movlw   0                	MOVLW	LOW(_ep_bdt)
0029bc   2400     addwf   0, 0, 0          	ADDWF	r0x00, W
0029be   6e04     movwf   0x4, 0           	MOVWF	r0x04
0029c0   0e0d     movlw   0xd              	MOVLW	HIGH(_ep_bdt)
0029c2   2003     addwfc  0x3, 0, 0        	ADDWFC	r0x03, W
0029c4   6e05     movwf   0x5, 0           	MOVWF	r0x05
0029c6   0e00     movlw   0                	MOVLW	LOW(_ep_bdt)
0029c8   2400     addwf   0, 0, 0          	ADDWF	r0x00, W
0029ca   6e06     movwf   0x6, 0           	MOVWF	r0x06
0029cc   0e0d     movlw   0xd              	MOVLW	HIGH(_ep_bdt)
0029ce   2003     addwfc  0x3, 0, 0        	ADDWFC	r0x03, W
0029d0   6e07     movwf   0x7, 0           	MOVWF	r0x07
0029d2   c006     movff   0x6, 0xfe9       	MOVFF	r0x06, FSR0L
0029d4   ffe9
0029d6   c007     movff   0x7, 0xfea       	MOVFF	r0x07, FSR0H
0029d8   ffea
0029da   cfef     movff   0xfef, 0x6       	MOVFF	INDF0, r0x06
0029dc   f006
0029de   0e03     movlw   0x3              	MOVLW	0x03
0029e0   1402     andwf   0x2, 0, 0        	ANDWF	r0x02, W
                                           ; #	MOVWF	r0x08
                                           ; #	MOVF	r0x08, W
0029e2   1206     iorwf   0x6, 0x1, 0      	IORWF	r0x06, F
0029e4   c004     movff   0x4, 0xfe9       	MOVFF	r0x04, FSR0L
0029e6   ffe9
0029e8   c005     movff   0x5, 0xfea       	MOVFF	r0x05, FSR0H
0029ea   ffea
0029ec   c006     movff   0x6, 0xfef       	MOVFF	r0x06, INDF0
0029ee   ffef
                                           ;	.line	414; /dvpt/pinguino/git/pinguino-ide/pinguino/p8/pinguino/libraries/usb/picUSB.c	EP_IN_BD(ep).Cnt = (u8)(bufferSize & 0xFF);
0029f0   0e00     movlw   0                	MOVLW	LOW(_ep_bdt)
0029f2   2400     addwf   0, 0, 0          	ADDWF	r0x00, W
0029f4   6e04     movwf   0x4, 0           	MOVWF	r0x04
0029f6   0e0d     movlw   0xd              	MOVLW	HIGH(_ep_bdt)
0029f8   2003     addwfc  0x3, 0, 0        	ADDWFC	r0x03, W
0029fa   6e05     movwf   0x5, 0           	MOVWF	r0x05
0029fc   4a04     infsnz  0x4, 0x1, 0      	INFSNZ	r0x04, F
0029fe   2a05     incf    0x5, 0x1, 0      	INCF	r0x05, F
002a00   5001     movf    0x1, 0, 0        	MOVF	r0x01, W
002a02   6e06     movwf   0x6, 0           	MOVWF	r0x06
002a04   c004     movff   0x4, 0xfe9       	MOVFF	r0x04, FSR0L
002a06   ffe9
002a08   c005     movff   0x5, 0xfea       	MOVFF	r0x05, FSR0H
002a0a   ffea
002a0c   c006     movff   0x6, 0xfef       	MOVFF	r0x06, INDF0
002a0e   ffef
                                           ;	.line	415; /dvpt/pinguino/git/pinguino-ide/pinguino/p8/pinguino/libraries/usb/picUSB.c	EP_IN_BD(ep).ADDR = PTR16(&controlTransferBuffer);
002a10   0e00     movlw   0                	MOVLW	LOW(_ep_bdt)
002a12   2600     addwf   0, 0x1, 0        	ADDWF	r0x00, F
002a14   0e0d     movlw   0xd              	MOVLW	HIGH(_ep_bdt)
002a16   2203     addwfc  0x3, 0x1, 0      	ADDWFC	r0x03, F
002a18   0e02     movlw   0x2              	MOVLW	0x02
002a1a   2600     addwf   0, 0x1, 0        	ADDWF	r0x00, F
002a1c   b0d8     btfsc   0xd8, 0, 0       	BTFSC	STATUS, 0
002a1e   2a03     incf    0x3, 0x1, 0      	INCF	r0x03, F
002a20   0e40     movlw   0x40             	MOVLW	LOW(_controlTransferBuffer)
002a22   6e04     movwf   0x4, 0           	MOVWF	r0x04
002a24   0e05     movlw   0x5              	MOVLW	HIGH(_controlTransferBuffer)
002a26   6e05     movwf   0x5, 0           	MOVWF	r0x05
002a28   c000     movff   0, 0xfe9         	MOVFF	r0x00, FSR0L
002a2a   ffe9
002a2c   c003     movff   0x3, 0xfea       	MOVFF	r0x03, FSR0H
002a2e   ffea
002a30   c004     movff   0x4, 0xfee       	MOVFF	r0x04, POSTINC0
002a32   ffee
002a34   c005     movff   0x5, 0xfef       	MOVFF	r0x05, INDF0
002a36   ffef
                                           ;	.line	420; /dvpt/pinguino/git/pinguino-ide/pinguino/p8/pinguino/libraries/usb/picUSB.c	wCount = wCount - bufferSize;
002a38   5001     movf    0x1, 0, 0        	MOVF	r0x01, W
002a3a   0101     movlb   0x1              	BANKSEL	_wCount
002a3c   5f88     subwf   0x88, 0x1, 0x1   	SUBWF	_wCount, F, B
002a3e   5002     movf    0x2, 0, 0        	MOVF	r0x02, W
                                           ; removed redundant BANKSEL
002a40   5b89     subwfb  0x89, 0x1, 0x1   	SUBWFB	(_wCount + 1), F, B
                                           ;	.line	423; /dvpt/pinguino/git/pinguino-ide/pinguino/p8/pinguino/libraries/usb/picUSB.c	inPtr = (u8 *)&controlTransferBuffer;
002a42   0e05     movlw   0x5              	MOVLW	HIGH(_controlTransferBuffer)
002a44   0101     movlb   0x1              	BANKSEL	(_inPtr + 1)
002a46   6f83     movwf   0x83, 0x1        	MOVWF	(_inPtr + 1), B
002a48   0e40     movlw   0x40             	MOVLW	LOW(_controlTransferBuffer)
                                           ; removed redundant BANKSEL
002a4a   6f82     movwf   0x82, 0x1        	MOVWF	_inPtr, B
002a4c   0e80     movlw   0x80             	MOVLW	0x80
                                           ; removed redundant BANKSEL
002a4e   6f84     movwf   0x84, 0x1        	MOVWF	(_inPtr + 2), B
                                           ;	.line	428; /dvpt/pinguino/git/pinguino-ide/pinguino/p8/pinguino/libraries/usb/picUSB.c	for (i=0;i<bufferSize;i++) {
002a50   6a00     clrf    0, 0             	CLRF	r0x00
                                           _00376_DS_:
002a52   c000     movff   0, 0x3           	MOVFF	r0x00, r0x03
002a54   f003
002a56   6a04     clrf    0x4, 0           	CLRF	r0x04
002a58   5002     movf    0x2, 0, 0        	MOVF	r0x02, W
002a5a   5c04     subwf   0x4, 0, 0        	SUBWF	r0x04, W
002a5c   e102     bnz     0x2a62           	BNZ	_00396_DS_
002a5e   5001     movf    0x1, 0, 0        	MOVF	r0x01, W
002a60   5c03     subwf   0x3, 0, 0        	SUBWF	r0x03, W
                                           _00396_DS_:
002a62   e22b     bc      0x2aba           	BC	_00378_DS_
                                           ;	.line	432; /dvpt/pinguino/git/pinguino-ide/pinguino/p8/pinguino/libraries/usb/picUSB.c	*inPtr++ = *outPtr++;
002a64   c182     movff   0x182, 0x3       	MOVFF	_inPtr, r0x03
002a66   f003
002a68   c183     movff   0x183, 0x4       	MOVFF	(_inPtr + 1), r0x04
002a6a   f004
002a6c   c184     movff   0x184, 0x5       	MOVFF	(_inPtr + 2), r0x05
002a6e   f005
002a70   c17f     movff   0x17f, 0x6       	MOVFF	_outPtr, r0x06
002a72   f006
002a74   c180     movff   0x180, 0x7       	MOVFF	(_outPtr + 1), r0x07
002a76   f007
002a78   c181     movff   0x181, 0x8       	MOVFF	(_outPtr + 2), r0x08
002a7a   f008
002a7c   c006     movff   0x6, 0xfe9       	MOVFF	r0x06, FSR0L
002a7e   ffe9
002a80   c007     movff   0x7, 0xff3       	MOVFF	r0x07, PRODL
002a82   fff3
002a84   5008     movf    0x8, 0, 0        	MOVF	r0x08, W
002a86   ec4b     call    0x4c96, 0        	CALL	__gptrget1
002a88   f026
002a8a   6e06     movwf   0x6, 0           	MOVWF	r0x06
002a8c   0101     movlb   0x1              	BANKSEL	_outPtr
002a8e   2b7f     incf    0x7f, 0x1, 0x1   	INCF	_outPtr, F, B
002a90   e303     bnc     0x2a98           	BNC	_00397_DS_
                                           ; removed redundant BANKSEL
002a92   3f80     incfsz  0x80, 0x1, 0x1   	INCFSZ	(_outPtr + 1), F, B
002a94   d001     bra     0x2a98           	BRA	_31899_DS_
                                           ; removed redundant BANKSEL
002a96   2b81     incf    0x81, 0x1, 0x1   	INCF	(_outPtr + 2), F, B
                                           _31899_DS_:
                                           _00397_DS_:
002a98   c006     movff   0x6, 0xfe5       	MOVFF	r0x06, POSTDEC1
002a9a   ffe5
002a9c   c003     movff   0x3, 0xfe9       	MOVFF	r0x03, FSR0L
002a9e   ffe9
002aa0   c004     movff   0x4, 0xff3       	MOVFF	r0x04, PRODL
002aa2   fff3
002aa4   5005     movf    0x5, 0, 0        	MOVF	r0x05, W
002aa6   ec78     call    0x4cf0, 0        	CALL	__gptrput1
002aa8   f026
002aaa   0101     movlb   0x1              	BANKSEL	_inPtr
002aac   2b82     incf    0x82, 0x1, 0x1   	INCF	_inPtr, F, B
002aae   e303     bnc     0x2ab6           	BNC	_00398_DS_
                                           ; removed redundant BANKSEL
002ab0   3f83     incfsz  0x83, 0x1, 0x1   	INCFSZ	(_inPtr + 1), F, B
002ab2   d001     bra     0x2ab6           	BRA	_41900_DS_
                                           ; removed redundant BANKSEL
002ab4   2b84     incf    0x84, 0x1, 0x1   	INCF	(_inPtr + 2), F, B
                                           _41900_DS_:
                                           _00398_DS_:
                                           ;	.line	428; /dvpt/pinguino/git/pinguino-ide/pinguino/p8/pinguino/libraries/usb/picUSB.c	for (i=0;i<bufferSize;i++) {
002ab6   2a00     incf    0, 0x1, 0        	INCF	r0x00, F
002ab8   d7cc     bra     0x2a52           	BRA	_00376_DS_
                                           _00378_DS_:
002aba   cfe4     movff   0xfe4, 0x8       	MOVFF	PREINC1, r0x08
002abc   f008
002abe   cfe4     movff   0xfe4, 0x7       	MOVFF	PREINC1, r0x07
002ac0   f007
002ac2   cfe4     movff   0xfe4, 0x6       	MOVFF	PREINC1, r0x06
002ac4   f006
002ac6   cfe4     movff   0xfe4, 0x5       	MOVFF	PREINC1, r0x05
002ac8   f005
002aca   cfe4     movff   0xfe4, 0x4       	MOVFF	PREINC1, r0x04
002acc   f004
002ace   cfe4     movff   0xfe4, 0x3       	MOVFF	PREINC1, r0x03
002ad0   f003
002ad2   cfe4     movff   0xfe4, 0x2       	MOVFF	PREINC1, r0x02
002ad4   f002
002ad6   cfe4     movff   0xfe4, 0x1       	MOVFF	PREINC1, r0x01
002ad8   f001
002ada   cfe4     movff   0xfe4, 0         	MOVFF	PREINC1, r0x00
002adc   f000
002ade   cfe4     movff   0xfe4, 0xfd9     	MOVFF	PREINC1, FSR2L
002ae0   ffd9
002ae2   0012     return  0                	RETURN	
                                           
                                           ; ; Starting pCode block
                                           S_main__ProcessStandardRequest	code
                                           _ProcessStandardRequest:
                                           ;	.line	283; /dvpt/pinguino/git/pinguino-ide/pinguino/p8/pinguino/libraries/usb/picUSB.c	void ProcessStandardRequest(void) {
003af4   c000     movff   0, 0xfe5         	MOVFF	r0x00, POSTDEC1
003af6   ffe5
                                           ;	.line	284; /dvpt/pinguino/git/pinguino-ide/pinguino/p8/pinguino/libraries/usb/picUSB.c	u8 request = SetupPacket.bRequest;
003af8   c501     movff   0x501, 0         	MOVFF	(_SetupPacket + 1), r0x00
003afa   f000
003afc   0105     movlb   0x5              	BANKSEL	_SetupPacket
                                           ;	.line	286; /dvpt/pinguino/git/pinguino-ide/pinguino/p8/pinguino/libraries/usb/picUSB.c	if((SetupPacket.bmRequestType & 0x60) != 0x00)
003afe   5100     movf    0, 0, 0x1        	MOVF	_SetupPacket, W, B
                                           ; #	ANDLW	0x60
                                           ; #	BTFSC	STATUS, 2
                                           ; #	GOTO	_00285_DS_
                                           ; #	GOTO	_00317_DS_
                                           ; #	MOVF	r0x00, W
                                           ;	.line	289; /dvpt/pinguino/git/pinguino-ide/pinguino/p8/pinguino/libraries/usb/picUSB.c	return;
003b00   0b60     andlw   0x60             	ANDLW	0x60
                                           ;	.line	291; /dvpt/pinguino/git/pinguino-ide/pinguino/p8/pinguino/libraries/usb/picUSB.c	if (request == SET_ADDRESS) {
003b02   a4d8     btfss   0xd8, 0x2, 0     	BTFSS	STATUS, 2
003b04   d061     bra     0x3bc8           	BRA	_00317_DS_
003b06   5000     movf    0, 0, 0          	MOVF	r0x00, W
003b08   0a05     xorlw   0x5              	XORLW	0x05
003b0a   e109     bnz     0x3b1e           	BNZ	_00315_DS_
                                           ;	.line	299; /dvpt/pinguino/git/pinguino-ide/pinguino/p8/pinguino/libraries/usb/picUSB.c	requestHandled = 1;
003b0c   0e01     movlw   0x1              	MOVLW	0x01
003b0e   0101     movlb   0x1              	BANKSEL	_requestHandled
003b10   6f91     movwf   0x91, 0x1        	MOVWF	_requestHandled, B
                                           ;	.line	300; /dvpt/pinguino/git/pinguino-ide/pinguino/p8/pinguino/libraries/usb/picUSB.c	deviceState = ADDRESS;
003b12   0e04     movlw   0x4              	MOVLW	0x04
003b14   0101     movlb   0x1              	BANKSEL	_deviceState
003b16   6f94     movwf   0x94, 0x1        	MOVWF	_deviceState, B
                                           ;	.line	301; /dvpt/pinguino/git/pinguino-ide/pinguino/p8/pinguino/libraries/usb/picUSB.c	deviceAddress = SetupPacket.wValue0;
003b18   c502     movff   0x502, 0x18c     	MOVFF	(_SetupPacket + 2), _deviceAddress
003b1a   f18c
003b1c   d055     bra     0x3bc8           	BRA	_00317_DS_
                                           _00315_DS_:
                                           ;	.line	303; /dvpt/pinguino/git/pinguino-ide/pinguino/p8/pinguino/libraries/usb/picUSB.c	else if (request == GET_DESCRIPTOR) {
003b1e   5000     movf    0, 0, 0          	MOVF	r0x00, W
003b20   0a06     xorlw   0x6              	XORLW	0x06
003b22   e103     bnz     0x3b2a           	BNZ	_00312_DS_
                                           ;	.line	304; /dvpt/pinguino/git/pinguino-ide/pinguino/p8/pinguino/libraries/usb/picUSB.c	GetDescriptor();
003b24   ec7d     call    0x38fa, 0        	CALL	_GetDescriptor
003b26   f01c
003b28   d04f     bra     0x3bc8           	BRA	_00317_DS_
                                           _00312_DS_:
                                           ;	.line	306; /dvpt/pinguino/git/pinguino-ide/pinguino/p8/pinguino/libraries/usb/picUSB.c	else if (request == SET_CONFIGURATION) {
003b2a   5000     movf    0, 0, 0          	MOVF	r0x00, W
003b2c   0a09     xorlw   0x9              	XORLW	0x09
003b2e   e112     bnz     0x3b54           	BNZ	_00309_DS_
                                           ;	.line	310; /dvpt/pinguino/git/pinguino-ide/pinguino/p8/pinguino/libraries/usb/picUSB.c	requestHandled = 1;
003b30   0e01     movlw   0x1              	MOVLW	0x01
003b32   0101     movlb   0x1              	BANKSEL	_requestHandled
003b34   6f91     movwf   0x91, 0x1        	MOVWF	_requestHandled, B
                                           ;	.line	311; /dvpt/pinguino/git/pinguino-ide/pinguino/p8/pinguino/libraries/usb/picUSB.c	currentConfiguration = SetupPacket.wValue0;
003b36   c502     movff   0x502, 0x195     	MOVFF	(_SetupPacket + 2), _currentConfiguration
003b38   f195
003b3a   0101     movlb   0x1              	BANKSEL	_currentConfiguration
                                           ;	.line	314; /dvpt/pinguino/git/pinguino-ide/pinguino/p8/pinguino/libraries/usb/picUSB.c	if (currentConfiguration == 0)
003b3c   5195     movf    0x95, 0, 0x1     	MOVF	_currentConfiguration, W, B
003b3e   e104     bnz     0x3b48           	BNZ	_00287_DS_
                                           ;	.line	317; /dvpt/pinguino/git/pinguino-ide/pinguino/p8/pinguino/libraries/usb/picUSB.c	deviceState = ADDRESS;
003b40   0e04     movlw   0x4              	MOVLW	0x04
003b42   0101     movlb   0x1              	BANKSEL	_deviceState
003b44   6f94     movwf   0x94, 0x1        	MOVWF	_deviceState, B
003b46   d040     bra     0x3bc8           	BRA	_00317_DS_
                                           _00287_DS_:
                                           ;	.line	320; /dvpt/pinguino/git/pinguino-ide/pinguino/p8/pinguino/libraries/usb/picUSB.c	deviceState = CONFIGURED;
003b48   0e05     movlw   0x5              	MOVLW	0x05
003b4a   0101     movlb   0x1              	BANKSEL	_deviceState
003b4c   6f94     movwf   0x94, 0x1        	MOVWF	_deviceState, B
                                           ;	.line	330; /dvpt/pinguino/git/pinguino-ide/pinguino/p8/pinguino/libraries/usb/picUSB.c	CDCInitEndpoint();
003b4e   ecb1     call    0x4762, 0        	CALL	_CDCInitEndpoint
003b50   f023
003b52   d03a     bra     0x3bc8           	BRA	_00317_DS_
                                           _00309_DS_:
                                           ;	.line	340; /dvpt/pinguino/git/pinguino-ide/pinguino/p8/pinguino/libraries/usb/picUSB.c	else if (request == GET_CONFIGURATION) {
003b54   5000     movf    0, 0, 0          	MOVF	r0x00, W
003b56   0a08     xorlw   0x8              	XORLW	0x08
003b58   e10f     bnz     0x3b78           	BNZ	_00306_DS_
                                           ;	.line	344; /dvpt/pinguino/git/pinguino-ide/pinguino/p8/pinguino/libraries/usb/picUSB.c	requestHandled = 1;
003b5a   0e01     movlw   0x1              	MOVLW	0x01
003b5c   0101     movlb   0x1              	BANKSEL	_requestHandled
003b5e   6f91     movwf   0x91, 0x1        	MOVWF	_requestHandled, B
                                           ;	.line	345; /dvpt/pinguino/git/pinguino-ide/pinguino/p8/pinguino/libraries/usb/picUSB.c	outPtr = (u8*)&currentConfiguration;
003b60   0e01     movlw   0x1              	MOVLW	HIGH(_currentConfiguration)
003b62   0101     movlb   0x1              	BANKSEL	(_outPtr + 1)
003b64   6f80     movwf   0x80, 0x1        	MOVWF	(_outPtr + 1), B
003b66   0e95     movlw   0x95             	MOVLW	LOW(_currentConfiguration)
                                           ; removed redundant BANKSEL
003b68   6f7f     movwf   0x7f, 0x1        	MOVWF	_outPtr, B
003b6a   0e80     movlw   0x80             	MOVLW	0x80
                                           ; removed redundant BANKSEL
003b6c   6f81     movwf   0x81, 0x1        	MOVWF	(_outPtr + 2), B
                                           ;	.line	346; /dvpt/pinguino/git/pinguino-ide/pinguino/p8/pinguino/libraries/usb/picUSB.c	wCount = 1;
003b6e   0e01     movlw   0x1              	MOVLW	0x01
003b70   0101     movlb   0x1              	BANKSEL	_wCount
003b72   6f88     movwf   0x88, 0x1        	MOVWF	_wCount, B
                                           ; removed redundant BANKSEL
003b74   6b89     clrf    0x89, 0x1        	CLRF	(_wCount + 1), B
003b76   d028     bra     0x3bc8           	BRA	_00317_DS_
                                           _00306_DS_:
                                           ;	.line	348; /dvpt/pinguino/git/pinguino-ide/pinguino/p8/pinguino/libraries/usb/picUSB.c	else if (request == GET_STATUS) {
003b78   5000     movf    0, 0, 0          	MOVF	r0x00, W
003b7a   e103     bnz     0x3b82           	BNZ	_00303_DS_
                                           ;	.line	349; /dvpt/pinguino/git/pinguino-ide/pinguino/p8/pinguino/libraries/usb/picUSB.c	GetStatus();
003b7c   ecf3     call    0x37e6, 0        	CALL	_GetStatus
003b7e   f01b
003b80   d023     bra     0x3bc8           	BRA	_00317_DS_
                                           _00303_DS_:
                                           ;	.line	351; /dvpt/pinguino/git/pinguino-ide/pinguino/p8/pinguino/libraries/usb/picUSB.c	else if ((request == CLEAR_FEATURE) ||
003b82   5000     movf    0, 0, 0          	MOVF	r0x00, W
003b84   0a01     xorlw   0x1              	XORLW	0x01
003b86   e003     bz      0x3b8e           	BZ	_00298_DS_
                                           ;	.line	352; /dvpt/pinguino/git/pinguino-ide/pinguino/p8/pinguino/libraries/usb/picUSB.c	(request == SET_FEATURE)) {
003b88   5000     movf    0, 0, 0          	MOVF	r0x00, W
003b8a   0a03     xorlw   0x3              	XORLW	0x03
003b8c   e103     bnz     0x3b94           	BNZ	_00299_DS_
                                           _00298_DS_:
                                           ;	.line	353; /dvpt/pinguino/git/pinguino-ide/pinguino/p8/pinguino/libraries/usb/picUSB.c	SetFeature();
003b8e   ec82     call    0x3104, 0        	CALL	_SetFeature
003b90   f018
003b92   d01a     bra     0x3bc8           	BRA	_00317_DS_
                                           _00299_DS_:
                                           ;	.line	355; /dvpt/pinguino/git/pinguino-ide/pinguino/p8/pinguino/libraries/usb/picUSB.c	else if (request == GET_INTERFACE) {
003b94   5000     movf    0, 0, 0          	MOVF	r0x00, W
003b96   0a0a     xorlw   0xa              	XORLW	0x0a
003b98   e111     bnz     0x3bbc           	BNZ	_00296_DS_
                                           ;	.line	361; /dvpt/pinguino/git/pinguino-ide/pinguino/p8/pinguino/libraries/usb/picUSB.c	requestHandled = 1;
003b9a   0e01     movlw   0x1              	MOVLW	0x01
003b9c   0101     movlb   0x1              	BANKSEL	_requestHandled
003b9e   6f91     movwf   0x91, 0x1        	MOVWF	_requestHandled, B
003ba0   0105     movlb   0x5              	BANKSEL	_controlTransferBuffer
                                           ;	.line	362; /dvpt/pinguino/git/pinguino-ide/pinguino/p8/pinguino/libraries/usb/picUSB.c	controlTransferBuffer[0] = 0;
003ba2   6b40     clrf    0x40, 0x1        	CLRF	_controlTransferBuffer, B
                                           ;	.line	363; /dvpt/pinguino/git/pinguino-ide/pinguino/p8/pinguino/libraries/usb/picUSB.c	outPtr = (u8 *)&controlTransferBuffer;
003ba4   0e05     movlw   0x5              	MOVLW	HIGH(_controlTransferBuffer)
003ba6   0101     movlb   0x1              	BANKSEL	(_outPtr + 1)
003ba8   6f80     movwf   0x80, 0x1        	MOVWF	(_outPtr + 1), B
003baa   0e40     movlw   0x40             	MOVLW	LOW(_controlTransferBuffer)
                                           ; removed redundant BANKSEL
003bac   6f7f     movwf   0x7f, 0x1        	MOVWF	_outPtr, B
003bae   0e80     movlw   0x80             	MOVLW	0x80
                                           ; removed redundant BANKSEL
003bb0   6f81     movwf   0x81, 0x1        	MOVWF	(_outPtr + 2), B
                                           ;	.line	364; /dvpt/pinguino/git/pinguino-ide/pinguino/p8/pinguino/libraries/usb/picUSB.c	wCount = 1;
003bb2   0e01     movlw   0x1              	MOVLW	0x01
003bb4   0101     movlb   0x1              	BANKSEL	_wCount
003bb6   6f88     movwf   0x88, 0x1        	MOVWF	_wCount, B
                                           ; removed redundant BANKSEL
003bb8   6b89     clrf    0x89, 0x1        	CLRF	(_wCount + 1), B
003bba   d006     bra     0x3bc8           	BRA	_00317_DS_
                                           _00296_DS_:
                                           ;	.line	366; /dvpt/pinguino/git/pinguino-ide/pinguino/p8/pinguino/libraries/usb/picUSB.c	else if (request == SET_INTERFACE) {
003bbc   5000     movf    0, 0, 0          	MOVF	r0x00, W
003bbe   0a0b     xorlw   0xb              	XORLW	0x0b
003bc0   e103     bnz     0x3bc8           	BNZ	_00317_DS_
                                           ;	.line	371; /dvpt/pinguino/git/pinguino-ide/pinguino/p8/pinguino/libraries/usb/picUSB.c	requestHandled = 1;
003bc2   0e01     movlw   0x1              	MOVLW	0x01
003bc4   0101     movlb   0x1              	BANKSEL	_requestHandled
003bc6   6f91     movwf   0x91, 0x1        	MOVWF	_requestHandled, B
                                           _00317_DS_:
                                           ;	.line	378; /dvpt/pinguino/git/pinguino-ide/pinguino/p8/pinguino/libraries/usb/picUSB.c	else if (request == SYNCH_FRAME) {
003bc8   cfe4     movff   0xfe4, 0         	MOVFF	PREINC1, r0x00
003bca   f000
003bcc   0012     return  0                	RETURN	
                                           
                                           ; ; Starting pCode block
                                           S_main__SetFeature	code
                                           _SetFeature:
                                           ;	.line	239; /dvpt/pinguino/git/pinguino-ide/pinguino/p8/pinguino/libraries/usb/picUSB.c	static void SetFeature(void) {
003104   c000     movff   0, 0xfe5         	MOVFF	r0x00, POSTDEC1
003106   ffe5
003108   c001     movff   0x1, 0xfe5       	MOVFF	r0x01, POSTDEC1
00310a   ffe5
00310c   c002     movff   0x2, 0xfe5       	MOVFF	r0x02, POSTDEC1
00310e   ffe5
003110   c003     movff   0x3, 0xfe5       	MOVFF	r0x03, POSTDEC1
003112   ffe5
003114   c004     movff   0x4, 0xfe5       	MOVFF	r0x04, POSTDEC1
003116   ffe5
003118   c005     movff   0x5, 0xfe5       	MOVFF	r0x05, POSTDEC1
00311a   ffe5
                                           ;	.line	240; /dvpt/pinguino/git/pinguino-ide/pinguino/p8/pinguino/libraries/usb/picUSB.c	u8 recipient = SetupPacket.bmRequestType & 0x1F;
00311c   0e1f     movlw   0x1f             	MOVLW	0x1f
00311e   0105     movlb   0x5              	BANKSEL	_SetupPacket
003120   1500     andwf   0, 0, 0x1        	ANDWF	_SetupPacket, W, B
003122   6e00     movwf   0, 0             	MOVWF	r0x00
                                           ;	.line	241; /dvpt/pinguino/git/pinguino-ide/pinguino/p8/pinguino/libraries/usb/picUSB.c	u8 feature = SetupPacket.wValue0;
003124   c502     movff   0x502, 0x1       	MOVFF	(_SetupPacket + 2), r0x01
003126   f001
                                           ;	.line	246; /dvpt/pinguino/git/pinguino-ide/pinguino/p8/pinguino/libraries/usb/picUSB.c	if (recipient == 0x00) {
003128   5000     movf    0, 0, 0          	MOVF	r0x00, W
00312a   e112     bnz     0x3150           	BNZ	_00236_DS_
                                           ;	.line	248; /dvpt/pinguino/git/pinguino-ide/pinguino/p8/pinguino/libraries/usb/picUSB.c	if (feature == DEVICE_REMOTE_WAKEUP) {
00312c   5001     movf    0x1, 0, 0        	MOVF	r0x01, W
00312e   0a01     xorlw   0x1              	XORLW	0x01
003130   e001     bz      0x3134           	BZ	_00269_DS_
003132   d076     bra     0x3220           	BRA	_00238_DS_
                                           _00269_DS_:
                                           ;	.line	249; /dvpt/pinguino/git/pinguino-ide/pinguino/p8/pinguino/libraries/usb/picUSB.c	requestHandled = 1;
003134   0e01     movlw   0x1              	MOVLW	0x01
003136   0101     movlb   0x1              	BANKSEL	_requestHandled
003138   6f91     movwf   0x91, 0x1        	MOVWF	_requestHandled, B
00313a   0105     movlb   0x5              	BANKSEL	(_SetupPacket + 1)
                                           ;	.line	250; /dvpt/pinguino/git/pinguino-ide/pinguino/p8/pinguino/libraries/usb/picUSB.c	if (SetupPacket.bRequest == SET_FEATURE)
00313c   5101     movf    0x1, 0, 0x1      	MOVF	(_SetupPacket + 1), W, B
00313e   0a03     xorlw   0x3              	XORLW	0x03
003140   e104     bnz     0x314a           	BNZ	_00218_DS_
                                           ;	.line	251; /dvpt/pinguino/git/pinguino-ide/pinguino/p8/pinguino/libraries/usb/picUSB.c	remoteWakeup = 1;
003142   0e01     movlw   0x1              	MOVLW	0x01
003144   0101     movlb   0x1              	BANKSEL	_remoteWakeup
003146   6f93     movwf   0x93, 0x1        	MOVWF	_remoteWakeup, B
003148   d06b     bra     0x3220           	BRA	_00238_DS_
                                           _00218_DS_:
00314a   0101     movlb   0x1              	BANKSEL	_remoteWakeup
                                           ;	.line	253; /dvpt/pinguino/git/pinguino-ide/pinguino/p8/pinguino/libraries/usb/picUSB.c	remoteWakeup = 0;
00314c   6b93     clrf    0x93, 0x1        	CLRF	_remoteWakeup, B
00314e   d068     bra     0x3220           	BRA	_00238_DS_
                                           _00236_DS_:
                                           ;	.line	257; /dvpt/pinguino/git/pinguino-ide/pinguino/p8/pinguino/libraries/usb/picUSB.c	else if (recipient == 0x02) {
003150   5000     movf    0, 0, 0          	MOVF	r0x00, W
003152   0a02     xorlw   0x2              	XORLW	0x02
003154   e001     bz      0x3158           	BZ	_00273_DS_
003156   d064     bra     0x3220           	BRA	_00238_DS_
                                           _00273_DS_:
                                           ;	.line	259; /dvpt/pinguino/git/pinguino-ide/pinguino/p8/pinguino/libraries/usb/picUSB.c	u8 endpointNum = SetupPacket.wIndex0 & 0x0F;
003158   0e0f     movlw   0xf              	MOVLW	0x0f
00315a   0105     movlb   0x5              	BANKSEL	(_SetupPacket + 4)
00315c   1504     andwf   0x4, 0, 0x1      	ANDWF	(_SetupPacket + 4), W, B
00315e   6e00     movwf   0, 0             	MOVWF	r0x00
                                           ;	.line	260; /dvpt/pinguino/git/pinguino-ide/pinguino/p8/pinguino/libraries/usb/picUSB.c	u8 endpointDir = SetupPacket.wIndex0 & 0x80;
003160   0e80     movlw   0x80             	MOVLW	0x80
                                           ; removed redundant BANKSEL
003162   1504     andwf   0x4, 0, 0x1      	ANDWF	(_SetupPacket + 4), W, B
003164   6e02     movwf   0x2, 0           	MOVWF	r0x02
                                           ;	.line	261; /dvpt/pinguino/git/pinguino-ide/pinguino/p8/pinguino/libraries/usb/picUSB.c	if ((feature == ENDPOINT_HALT) && (endpointNum != 0)) {
003166   5001     movf    0x1, 0, 0        	MOVF	r0x01, W
003168   a4d8     btfss   0xd8, 0x2, 0     	BTFSS	STATUS, 2
00316a   d05a     bra     0x3220           	BRA	_00238_DS_
00316c   5000     movf    0, 0, 0          	MOVF	r0x00, W
00316e   b4d8     btfsc   0xd8, 0x2, 0     	BTFSC	STATUS, 2
003170   d057     bra     0x3220           	BRA	_00238_DS_
                                           ;	.line	263; /dvpt/pinguino/git/pinguino-ide/pinguino/p8/pinguino/libraries/usb/picUSB.c	requestHandled = 1;
003172   0e01     movlw   0x1              	MOVLW	0x01
003174   0101     movlb   0x1              	BANKSEL	_requestHandled
003176   6f91     movwf   0x91, 0x1        	MOVWF	_requestHandled, B
                                           ;	.line	266; /dvpt/pinguino/git/pinguino-ide/pinguino/p8/pinguino/libraries/usb/picUSB.c	inPtr = (u8 *)&EP_OUT_BD(0) + (endpointNum * 8);
003178   0e0d     movlw   0xd              	MOVLW	HIGH(_ep_bdt)
00317a   6e03     movwf   0x3, 0           	MOVWF	r0x03
00317c   0e00     movlw   0                	MOVLW	LOW(_ep_bdt)
00317e   6e01     movwf   0x1, 0           	MOVWF	r0x01
003180   0e80     movlw   0x80             	MOVLW	0x80
003182   6e04     movwf   0x4, 0           	MOVWF	r0x04
                                           ; ;multiply lit val:0x08 by variable r0x00 and store in r0x00
003184   5000     movf    0, 0, 0          	MOVF	r0x00, W
003186   0d08     mullw   0x8              	MULLW	0x08
003188   50f4     movf    0xf4, 0, 0       	MOVF	PRODH, W
00318a   6e05     movwf   0x5, 0           	MOVWF	r0x05
00318c   cff3     movff   0xff3, 0         	MOVFF	PRODL, r0x00
00318e   f000
003190   5000     movf    0, 0, 0          	MOVF	r0x00, W
003192   2401     addwf   0x1, 0, 0        	ADDWF	r0x01, W
003194   0101     movlb   0x1              	BANKSEL	_inPtr
003196   6f82     movwf   0x82, 0x1        	MOVWF	_inPtr, B
003198   5005     movf    0x5, 0, 0        	MOVF	r0x05, W
00319a   2003     addwfc  0x3, 0, 0        	ADDWFC	r0x03, W
                                           ; removed redundant BANKSEL
00319c   6f83     movwf   0x83, 0x1        	MOVWF	(_inPtr + 1), B
00319e   6ae8     clrf    0xe8, 0          	CLRF	WREG
0031a0   be05     btfsc   0x5, 0x7, 0      	BTFSC	r0x05, 7
0031a2   68e8     setf    0xe8, 0          	SETF	WREG
0031a4   2004     addwfc  0x4, 0, 0        	ADDWFC	r0x04, W
                                           ; removed redundant BANKSEL
0031a6   6f84     movwf   0x84, 0x1        	MOVWF	(_inPtr + 2), B
                                           ;	.line	267; /dvpt/pinguino/git/pinguino-ide/pinguino/p8/pinguino/libraries/usb/picUSB.c	if (endpointDir)
0031a8   5002     movf    0x2, 0, 0        	MOVF	r0x02, W
0031aa   e005     bz      0x31b6           	BZ	_00223_DS_
                                           ;	.line	268; /dvpt/pinguino/git/pinguino-ide/pinguino/p8/pinguino/libraries/usb/picUSB.c	inPtr += 4;
0031ac   0e04     movlw   0x4              	MOVLW	0x04
                                           ; removed redundant BANKSEL
0031ae   2782     addwf   0x82, 0x1, 0x1   	ADDWF	_inPtr, F, B
0031b0   0e00     movlw   0                	MOVLW	0x00
                                           ; removed redundant BANKSEL
0031b2   2383     addwfc  0x83, 0x1, 0x1   	ADDWFC	(_inPtr + 1), F, B
                                           ; removed redundant BANKSEL
0031b4   2384     addwfc  0x84, 0x1, 0x1   	ADDWFC	(_inPtr + 2), F, B
                                           _00223_DS_:
0031b6   0105     movlb   0x5              	BANKSEL	(_SetupPacket + 1)
                                           ;	.line	270; /dvpt/pinguino/git/pinguino-ide/pinguino/p8/pinguino/libraries/usb/picUSB.c	if(SetupPacket.bRequest == SET_FEATURE)
0031b8   5101     movf    0x1, 0, 0x1      	MOVF	(_SetupPacket + 1), W, B
0031ba   0a03     xorlw   0x3              	XORLW	0x03
0031bc   e110     bnz     0x31de           	BNZ	_00228_DS_
                                           ;	.line	271; /dvpt/pinguino/git/pinguino-ide/pinguino/p8/pinguino/libraries/usb/picUSB.c	*inPtr = 0x84;
0031be   c182     movff   0x182, 0         	MOVFF	_inPtr, r0x00
0031c0   f000
0031c2   c183     movff   0x183, 0x1       	MOVFF	(_inPtr + 1), r0x01
0031c4   f001
0031c6   c184     movff   0x184, 0x3       	MOVFF	(_inPtr + 2), r0x03
0031c8   f003
0031ca   0e84     movlw   0x84             	MOVLW	0x84
0031cc   6ee5     movwf   0xe5, 0          	MOVWF	POSTDEC1
0031ce   c000     movff   0, 0xfe9         	MOVFF	r0x00, FSR0L
0031d0   ffe9
0031d2   c001     movff   0x1, 0xff3       	MOVFF	r0x01, PRODL
0031d4   fff3
0031d6   5003     movf    0x3, 0, 0        	MOVF	r0x03, W
0031d8   ec78     call    0x4cf0, 0        	CALL	__gptrput1
0031da   f026
0031dc   d021     bra     0x3220           	BRA	_00238_DS_
                                           _00228_DS_:
                                           ;	.line	273; /dvpt/pinguino/git/pinguino-ide/pinguino/p8/pinguino/libraries/usb/picUSB.c	if(endpointDir == 1)
0031de   5002     movf    0x2, 0, 0        	MOVF	r0x02, W
0031e0   0a01     xorlw   0x1              	XORLW	0x01
0031e2   e10f     bnz     0x3202           	BNZ	_00225_DS_
                                           ;	.line	274; /dvpt/pinguino/git/pinguino-ide/pinguino/p8/pinguino/libraries/usb/picUSB.c	*inPtr = 0x00;
0031e4   c182     movff   0x182, 0         	MOVFF	_inPtr, r0x00
0031e6   f000
0031e8   c183     movff   0x183, 0x1       	MOVFF	(_inPtr + 1), r0x01
0031ea   f001
0031ec   c184     movff   0x184, 0x2       	MOVFF	(_inPtr + 2), r0x02
0031ee   f002
0031f0   6ae5     clrf    0xe5, 0          	CLRF	POSTDEC1
0031f2   c000     movff   0, 0xfe9         	MOVFF	r0x00, FSR0L
0031f4   ffe9
0031f6   c001     movff   0x1, 0xff3       	MOVFF	r0x01, PRODL
0031f8   fff3
0031fa   5002     movf    0x2, 0, 0        	MOVF	r0x02, W
0031fc   ec78     call    0x4cf0, 0        	CALL	__gptrput1
0031fe   f026
003200   d00f     bra     0x3220           	BRA	_00238_DS_
                                           _00225_DS_:
                                           ;	.line	276; /dvpt/pinguino/git/pinguino-ide/pinguino/p8/pinguino/libraries/usb/picUSB.c	*inPtr = 0x88;
003202   c182     movff   0x182, 0         	MOVFF	_inPtr, r0x00
003204   f000
003206   c183     movff   0x183, 0x1       	MOVFF	(_inPtr + 1), r0x01
003208   f001
00320a   c184     movff   0x184, 0x2       	MOVFF	(_inPtr + 2), r0x02
00320c   f002
00320e   0e88     movlw   0x88             	MOVLW	0x88
003210   6ee5     movwf   0xe5, 0          	MOVWF	POSTDEC1
003212   c000     movff   0, 0xfe9         	MOVFF	r0x00, FSR0L
003214   ffe9
003216   c001     movff   0x1, 0xff3       	MOVFF	r0x01, PRODL
003218   fff3
00321a   5002     movf    0x2, 0, 0        	MOVF	r0x02, W
00321c   ec78     call    0x4cf0, 0        	CALL	__gptrput1
00321e   f026
                                           _00238_DS_:
003220   cfe4     movff   0xfe4, 0x5       	MOVFF	PREINC1, r0x05
003222   f005
003224   cfe4     movff   0xfe4, 0x4       	MOVFF	PREINC1, r0x04
003226   f004
003228   cfe4     movff   0xfe4, 0x3       	MOVFF	PREINC1, r0x03
00322a   f003
00322c   cfe4     movff   0xfe4, 0x2       	MOVFF	PREINC1, r0x02
00322e   f002
003230   cfe4     movff   0xfe4, 0x1       	MOVFF	PREINC1, r0x01
003232   f001
003234   cfe4     movff   0xfe4, 0         	MOVFF	PREINC1, r0x00
003236   f000
003238   0012     return  0                	RETURN	
                                           
                                           ; ; Starting pCode block
                                           S_main__GetStatus	code
                                           _GetStatus:
                                           ;	.line	194; /dvpt/pinguino/git/pinguino-ide/pinguino/p8/pinguino/libraries/usb/picUSB.c	static void GetStatus(void) {
0037e6   c000     movff   0, 0xfe5         	MOVFF	r0x00, POSTDEC1
0037e8   ffe5
0037ea   c001     movff   0x1, 0xfe5       	MOVFF	r0x01, POSTDEC1
0037ec   ffe5
0037ee   c002     movff   0x2, 0xfe5       	MOVFF	r0x02, POSTDEC1
0037f0   ffe5
0037f2   c003     movff   0x3, 0xfe5       	MOVFF	r0x03, POSTDEC1
0037f4   ffe5
0037f6   c004     movff   0x4, 0xfe5       	MOVFF	r0x04, POSTDEC1
0037f8   ffe5
0037fa   c005     movff   0x5, 0xfe5       	MOVFF	r0x05, POSTDEC1
0037fc   ffe5
                                           ;	.line	196; /dvpt/pinguino/git/pinguino-ide/pinguino/p8/pinguino/libraries/usb/picUSB.c	u8 recipient = SetupPacket.bmRequestType & 0x1F;
0037fe   0e1f     movlw   0x1f             	MOVLW	0x1f
003800   0105     movlb   0x5              	BANKSEL	_SetupPacket
003802   1500     andwf   0, 0, 0x1        	ANDWF	_SetupPacket, W, B
003804   6e00     movwf   0, 0             	MOVWF	r0x00
003806   0105     movlb   0x5              	BANKSEL	_controlTransferBuffer
                                           ;	.line	200; /dvpt/pinguino/git/pinguino-ide/pinguino/p8/pinguino/libraries/usb/picUSB.c	controlTransferBuffer[0] = 0;
003808   6b40     clrf    0x40, 0x1        	CLRF	_controlTransferBuffer, B
                                           ; removed redundant BANKSEL
                                           ;	.line	201; /dvpt/pinguino/git/pinguino-ide/pinguino/p8/pinguino/libraries/usb/picUSB.c	controlTransferBuffer[1] = 0;
00380a   6b41     clrf    0x41, 0x1        	CLRF	(_controlTransferBuffer + 1), B
                                           ;	.line	204; /dvpt/pinguino/git/pinguino-ide/pinguino/p8/pinguino/libraries/usb/picUSB.c	if (recipient == 0x00) {
00380c   5000     movf    0, 0, 0          	MOVF	r0x00, W
00380e   e113     bnz     0x3836           	BNZ	_00173_DS_
                                           ;	.line	206; /dvpt/pinguino/git/pinguino-ide/pinguino/p8/pinguino/libraries/usb/picUSB.c	requestHandled = 1;
003810   0e01     movlw   0x1              	MOVLW	0x01
003812   0101     movlb   0x1              	BANKSEL	_requestHandled
003814   6f91     movwf   0x91, 0x1        	MOVWF	_requestHandled, B
003816   0101     movlb   0x1              	BANKSEL	_selfPowered
                                           ;	.line	208; /dvpt/pinguino/git/pinguino-ide/pinguino/p8/pinguino/libraries/usb/picUSB.c	if (selfPowered)
003818   5192     movf    0x92, 0, 0x1     	MOVF	_selfPowered, W, B
00381a   e004     bz      0x3824           	BZ	_00160_DS_
                                           ;	.line	209; /dvpt/pinguino/git/pinguino-ide/pinguino/p8/pinguino/libraries/usb/picUSB.c	controlTransferBuffer[0] |= 0x01;
00381c   0e01     movlw   0x1              	MOVLW	0x01
00381e   0105     movlb   0x5              	BANKSEL	_controlTransferBuffer
003820   1140     iorwf   0x40, 0, 0x1     	IORWF	_controlTransferBuffer, W, B
                                           ; #	MOVWF	r0x01
                                           ; #	MOVF	r0x01, W
003822   6f40     movwf   0x40, 0x1        	MOVWF	_controlTransferBuffer, B
                                           _00160_DS_:
003824   0101     movlb   0x1              	BANKSEL	_remoteWakeup
                                           ;	.line	210; /dvpt/pinguino/git/pinguino-ide/pinguino/p8/pinguino/libraries/usb/picUSB.c	if (remoteWakeup)
003826   5193     movf    0x93, 0, 0x1     	MOVF	_remoteWakeup, W, B
003828   b4d8     btfsc   0xd8, 0x2, 0     	BTFSC	STATUS, 2
00382a   d04c     bra     0x38c4           	BRA	_00174_DS_
                                           ;	.line	211; /dvpt/pinguino/git/pinguino-ide/pinguino/p8/pinguino/libraries/usb/picUSB.c	controlTransferBuffer[0] |= 0x02;
00382c   0e02     movlw   0x2              	MOVLW	0x02
00382e   0105     movlb   0x5              	BANKSEL	_controlTransferBuffer
003830   1140     iorwf   0x40, 0, 0x1     	IORWF	_controlTransferBuffer, W, B
                                           ; #	MOVWF	r0x01
                                           ; #	MOVF	r0x01, W
003832   6f40     movwf   0x40, 0x1        	MOVWF	_controlTransferBuffer, B
003834   d047     bra     0x38c4           	BRA	_00174_DS_
                                           _00173_DS_:
                                           ;	.line	213; /dvpt/pinguino/git/pinguino-ide/pinguino/p8/pinguino/libraries/usb/picUSB.c	else if (recipient == 0x01) {
003836   5000     movf    0, 0, 0          	MOVF	r0x00, W
003838   0a01     xorlw   0x1              	XORLW	0x01
00383a   e104     bnz     0x3844           	BNZ	_00170_DS_
                                           ;	.line	215; /dvpt/pinguino/git/pinguino-ide/pinguino/p8/pinguino/libraries/usb/picUSB.c	requestHandled = 1;
00383c   0e01     movlw   0x1              	MOVLW	0x01
00383e   0101     movlb   0x1              	BANKSEL	_requestHandled
003840   6f91     movwf   0x91, 0x1        	MOVWF	_requestHandled, B
003842   d040     bra     0x38c4           	BRA	_00174_DS_
                                           _00170_DS_:
                                           ;	.line	217; /dvpt/pinguino/git/pinguino-ide/pinguino/p8/pinguino/libraries/usb/picUSB.c	else if (recipient == 0x02) {
003844   5000     movf    0, 0, 0          	MOVF	r0x00, W
003846   0a02     xorlw   0x2              	XORLW	0x02
003848   e001     bz      0x384c           	BZ	_00209_DS_
00384a   d03c     bra     0x38c4           	BRA	_00174_DS_
                                           _00209_DS_:
                                           ;	.line	219; /dvpt/pinguino/git/pinguino-ide/pinguino/p8/pinguino/libraries/usb/picUSB.c	u8 endpointNum = SetupPacket.wIndex0 & 0x0F;
00384c   0e0f     movlw   0xf              	MOVLW	0x0f
00384e   0105     movlb   0x5              	BANKSEL	(_SetupPacket + 4)
003850   1504     andwf   0x4, 0, 0x1      	ANDWF	(_SetupPacket + 4), W, B
003852   6e00     movwf   0, 0             	MOVWF	r0x00
                                           ;	.line	220; /dvpt/pinguino/git/pinguino-ide/pinguino/p8/pinguino/libraries/usb/picUSB.c	u8 endpointDir = SetupPacket.wIndex0 & 0x80;
003854   0e80     movlw   0x80             	MOVLW	0x80
                                           ; removed redundant BANKSEL
003856   1504     andwf   0x4, 0, 0x1      	ANDWF	(_SetupPacket + 4), W, B
003858   6e01     movwf   0x1, 0           	MOVWF	r0x01
                                           ;	.line	221; /dvpt/pinguino/git/pinguino-ide/pinguino/p8/pinguino/libraries/usb/picUSB.c	requestHandled = 1;
00385a   0e01     movlw   0x1              	MOVLW	0x01
00385c   0101     movlb   0x1              	BANKSEL	_requestHandled
00385e   6f91     movwf   0x91, 0x1        	MOVWF	_requestHandled, B
                                           ;	.line	224; /dvpt/pinguino/git/pinguino-ide/pinguino/p8/pinguino/libraries/usb/picUSB.c	inPtr = (u8 *)&EP_OUT_BD(0) + (endpointNum * 8);
003860   0e0d     movlw   0xd              	MOVLW	HIGH(_ep_bdt)
003862   6e03     movwf   0x3, 0           	MOVWF	r0x03
003864   0e00     movlw   0                	MOVLW	LOW(_ep_bdt)
003866   6e02     movwf   0x2, 0           	MOVWF	r0x02
003868   0e80     movlw   0x80             	MOVLW	0x80
00386a   6e04     movwf   0x4, 0           	MOVWF	r0x04
                                           ; ;multiply lit val:0x08 by variable r0x00 and store in r0x00
00386c   5000     movf    0, 0, 0          	MOVF	r0x00, W
00386e   0d08     mullw   0x8              	MULLW	0x08
003870   50f4     movf    0xf4, 0, 0       	MOVF	PRODH, W
003872   6e05     movwf   0x5, 0           	MOVWF	r0x05
003874   cff3     movff   0xff3, 0         	MOVFF	PRODL, r0x00
003876   f000
003878   5000     movf    0, 0, 0          	MOVF	r0x00, W
00387a   2402     addwf   0x2, 0, 0        	ADDWF	r0x02, W
00387c   0101     movlb   0x1              	BANKSEL	_inPtr
00387e   6f82     movwf   0x82, 0x1        	MOVWF	_inPtr, B
003880   5005     movf    0x5, 0, 0        	MOVF	r0x05, W
003882   2003     addwfc  0x3, 0, 0        	ADDWFC	r0x03, W
                                           ; removed redundant BANKSEL
003884   6f83     movwf   0x83, 0x1        	MOVWF	(_inPtr + 1), B
003886   6ae8     clrf    0xe8, 0          	CLRF	WREG
003888   be05     btfsc   0x5, 0x7, 0      	BTFSC	r0x05, 7
00388a   68e8     setf    0xe8, 0          	SETF	WREG
00388c   2004     addwfc  0x4, 0, 0        	ADDWFC	r0x04, W
                                           ; removed redundant BANKSEL
00388e   6f84     movwf   0x84, 0x1        	MOVWF	(_inPtr + 2), B
                                           ;	.line	225; /dvpt/pinguino/git/pinguino-ide/pinguino/p8/pinguino/libraries/usb/picUSB.c	if (endpointDir)
003890   5001     movf    0x1, 0, 0        	MOVF	r0x01, W
003892   e005     bz      0x389e           	BZ	_00164_DS_
                                           ;	.line	226; /dvpt/pinguino/git/pinguino-ide/pinguino/p8/pinguino/libraries/usb/picUSB.c	inPtr += 4;
003894   0e04     movlw   0x4              	MOVLW	0x04
                                           ; removed redundant BANKSEL
003896   2782     addwf   0x82, 0x1, 0x1   	ADDWF	_inPtr, F, B
003898   0e00     movlw   0                	MOVLW	0x00
                                           ; removed redundant BANKSEL
00389a   2383     addwfc  0x83, 0x1, 0x1   	ADDWFC	(_inPtr + 1), F, B
                                           ; removed redundant BANKSEL
00389c   2384     addwfc  0x84, 0x1, 0x1   	ADDWFC	(_inPtr + 2), F, B
                                           _00164_DS_:
                                           ;	.line	227; /dvpt/pinguino/git/pinguino-ide/pinguino/p8/pinguino/libraries/usb/picUSB.c	if(*inPtr & BDS_BSTALL)
00389e   c182     movff   0x182, 0         	MOVFF	_inPtr, r0x00
0038a0   f000
0038a2   c183     movff   0x183, 0x1       	MOVFF	(_inPtr + 1), r0x01
0038a4   f001
0038a6   c184     movff   0x184, 0x2       	MOVFF	(_inPtr + 2), r0x02
0038a8   f002
0038aa   c000     movff   0, 0xfe9         	MOVFF	r0x00, FSR0L
0038ac   ffe9
0038ae   c001     movff   0x1, 0xff3       	MOVFF	r0x01, PRODL
0038b0   fff3
0038b2   5002     movf    0x2, 0, 0        	MOVF	r0x02, W
0038b4   ec4b     call    0x4c96, 0        	CALL	__gptrget1
0038b6   f026
0038b8   6e00     movwf   0, 0             	MOVWF	r0x00
0038ba   a400     btfss   0, 0x2, 0        	BTFSS	r0x00, 2
0038bc   d003     bra     0x38c4           	BRA	_00174_DS_
                                           ;	.line	228; /dvpt/pinguino/git/pinguino-ide/pinguino/p8/pinguino/libraries/usb/picUSB.c	controlTransferBuffer[0] = 0x01;
0038be   0e01     movlw   0x1              	MOVLW	0x01
0038c0   0105     movlb   0x5              	BANKSEL	_controlTransferBuffer
0038c2   6f40     movwf   0x40, 0x1        	MOVWF	_controlTransferBuffer, B
                                           _00174_DS_:
0038c4   0101     movlb   0x1              	BANKSEL	_requestHandled
                                           ;	.line	231; /dvpt/pinguino/git/pinguino-ide/pinguino/p8/pinguino/libraries/usb/picUSB.c	if (requestHandled) {
0038c6   5191     movf    0x91, 0, 0x1     	MOVF	_requestHandled, W, B
0038c8   e00b     bz      0x38e0           	BZ	_00177_DS_
                                           ;	.line	232; /dvpt/pinguino/git/pinguino-ide/pinguino/p8/pinguino/libraries/usb/picUSB.c	outPtr = (u8 *)&controlTransferBuffer;
0038ca   0e05     movlw   0x5              	MOVLW	HIGH(_controlTransferBuffer)
0038cc   0101     movlb   0x1              	BANKSEL	(_outPtr + 1)
0038ce   6f80     movwf   0x80, 0x1        	MOVWF	(_outPtr + 1), B
0038d0   0e40     movlw   0x40             	MOVLW	LOW(_controlTransferBuffer)
                                           ; removed redundant BANKSEL
0038d2   6f7f     movwf   0x7f, 0x1        	MOVWF	_outPtr, B
0038d4   0e80     movlw   0x80             	MOVLW	0x80
                                           ; removed redundant BANKSEL
0038d6   6f81     movwf   0x81, 0x1        	MOVWF	(_outPtr + 2), B
                                           ;	.line	233; /dvpt/pinguino/git/pinguino-ide/pinguino/p8/pinguino/libraries/usb/picUSB.c	wCount = 2;
0038d8   0e02     movlw   0x2              	MOVLW	0x02
0038da   0101     movlb   0x1              	BANKSEL	_wCount
0038dc   6f88     movwf   0x88, 0x1        	MOVWF	_wCount, B
                                           ; removed redundant BANKSEL
0038de   6b89     clrf    0x89, 0x1        	CLRF	(_wCount + 1), B
                                           _00177_DS_:
0038e0   cfe4     movff   0xfe4, 0x5       	MOVFF	PREINC1, r0x05
0038e2   f005
0038e4   cfe4     movff   0xfe4, 0x4       	MOVFF	PREINC1, r0x04
0038e6   f004
0038e8   cfe4     movff   0xfe4, 0x3       	MOVFF	PREINC1, r0x03
0038ea   f003
0038ec   cfe4     movff   0xfe4, 0x2       	MOVFF	PREINC1, r0x02
0038ee   f002
0038f0   cfe4     movff   0xfe4, 0x1       	MOVFF	PREINC1, r0x01
0038f2   f001
0038f4   cfe4     movff   0xfe4, 0         	MOVFF	PREINC1, r0x00
0038f6   f000
0038f8   0012     return  0                	RETURN	
                                           
                                           ; ; Starting pCode block
                                           S_main__GetDescriptor	code
                                           _GetDescriptor:
                                           ;	.line	109; /dvpt/pinguino/git/pinguino-ide/pinguino/p8/pinguino/libraries/usb/picUSB.c	static void GetDescriptor(void)
0038fa   c000     movff   0, 0xfe5         	MOVFF	r0x00, POSTDEC1
0038fc   ffe5
0038fe   c001     movff   0x1, 0xfe5       	MOVFF	r0x01, POSTDEC1
003900   ffe5
003902   c002     movff   0x2, 0xfe5       	MOVFF	r0x02, POSTDEC1
003904   ffe5
003906   c003     movff   0x3, 0xfe5       	MOVFF	r0x03, POSTDEC1
003908   ffe5
00390a   0105     movlb   0x5              	BANKSEL	_SetupPacket
                                           ;	.line	115; /dvpt/pinguino/git/pinguino-ide/pinguino/p8/pinguino/libraries/usb/picUSB.c	if(SetupPacket.bmRequestType == 0x80)
00390c   5100     movf    0, 0, 0x1        	MOVF	_SetupPacket, W, B
00390e   0a80     xorlw   0x80             	XORLW	0x80
003910   e001     bz      0x3914           	BZ	_00146_DS_
003912   d06b     bra     0x39ea           	BRA	_00128_DS_
                                           _00146_DS_:
                                           ;	.line	117; /dvpt/pinguino/git/pinguino-ide/pinguino/p8/pinguino/libraries/usb/picUSB.c	u8 descriptorType  = SetupPacket.wValue1;
003914   c503     movff   0x503, 0         	MOVFF	(_SetupPacket + 3), r0x00
003916   f000
                                           ;	.line	118; /dvpt/pinguino/git/pinguino-ide/pinguino/p8/pinguino/libraries/usb/picUSB.c	u8 descriptorIndex = SetupPacket.wValue0;
003918   c502     movff   0x502, 0x1       	MOVFF	(_SetupPacket + 2), r0x01
00391a   f001
                                           ;	.line	120; /dvpt/pinguino/git/pinguino-ide/pinguino/p8/pinguino/libraries/usb/picUSB.c	if (descriptorType == DEVICE_DESCRIPTOR)
00391c   5000     movf    0, 0, 0          	MOVF	r0x00, W
00391e   0a01     xorlw   0x1              	XORLW	0x01
003920   e10f     bnz     0x3940           	BNZ	_00124_DS_
                                           ;	.line	125; /dvpt/pinguino/git/pinguino-ide/pinguino/p8/pinguino/libraries/usb/picUSB.c	requestHandled = 1;
003922   0e01     movlw   0x1              	MOVLW	0x01
003924   0101     movlb   0x1              	BANKSEL	_requestHandled
003926   6f91     movwf   0x91, 0x1        	MOVWF	_requestHandled, B
                                           ;	.line	126; /dvpt/pinguino/git/pinguino-ide/pinguino/p8/pinguino/libraries/usb/picUSB.c	outPtr = (u8 *)&libdevice_descriptor;
003928   0e00     movlw   0                	MOVLW	UPPER(_libdevice_descriptor)
00392a   0101     movlb   0x1              	BANKSEL	(_outPtr + 2)
00392c   6f81     movwf   0x81, 0x1        	MOVWF	(_outPtr + 2), B
00392e   0e27     movlw   0x27             	MOVLW	HIGH(_libdevice_descriptor)
                                           ; removed redundant BANKSEL
003930   6f80     movwf   0x80, 0x1        	MOVWF	(_outPtr + 1), B
003932   0e16     movlw   0x16             	MOVLW	LOW(_libdevice_descriptor)
                                           ; removed redundant BANKSEL
003934   6f7f     movwf   0x7f, 0x1        	MOVWF	_outPtr, B
                                           ;	.line	127; /dvpt/pinguino/git/pinguino-ide/pinguino/p8/pinguino/libraries/usb/picUSB.c	wCount = sizeof(USB_Device_Descriptor);
003936   0e12     movlw   0x12             	MOVLW	0x12
003938   0101     movlb   0x1              	BANKSEL	_wCount
00393a   6f88     movwf   0x88, 0x1        	MOVWF	_wCount, B
                                           ; removed redundant BANKSEL
00393c   6b89     clrf    0x89, 0x1        	CLRF	(_wCount + 1), B
00393e   d055     bra     0x39ea           	BRA	_00128_DS_
                                           _00124_DS_:
                                           ;	.line	130; /dvpt/pinguino/git/pinguino-ide/pinguino/p8/pinguino/libraries/usb/picUSB.c	else if (descriptorType == CONFIGURATION_DESCRIPTOR)
003940   5000     movf    0, 0, 0          	MOVF	r0x00, W
003942   0a02     xorlw   0x2              	XORLW	0x02
003944   e117     bnz     0x3974           	BNZ	_00121_DS_
                                           ;	.line	136; /dvpt/pinguino/git/pinguino-ide/pinguino/p8/pinguino/libraries/usb/picUSB.c	requestHandled = 1;
003946   0e01     movlw   0x1              	MOVLW	0x01
003948   0101     movlb   0x1              	BANKSEL	_requestHandled
00394a   6f91     movwf   0x91, 0x1        	MOVWF	_requestHandled, B
                                           ;	.line	148; /dvpt/pinguino/git/pinguino-ide/pinguino/p8/pinguino/libraries/usb/picUSB.c	outPtr = (u8 *)&libconfiguration_descriptor;
00394c   0e00     movlw   0                	MOVLW	UPPER(_libconfiguration_descriptor)
00394e   0101     movlb   0x1              	BANKSEL	(_outPtr + 2)
003950   6f81     movwf   0x81, 0x1        	MOVWF	(_outPtr + 2), B
003952   0e27     movlw   0x27             	MOVLW	HIGH(_libconfiguration_descriptor)
                                           ; removed redundant BANKSEL
003954   6f80     movwf   0x80, 0x1        	MOVWF	(_outPtr + 1), B
003956   0e28     movlw   0x28             	MOVLW	LOW(_libconfiguration_descriptor)
                                           ; removed redundant BANKSEL
003958   6f7f     movwf   0x7f, 0x1        	MOVWF	_outPtr, B
                                           ;	.line	150; /dvpt/pinguino/git/pinguino-ide/pinguino/p8/pinguino/libraries/usb/picUSB.c	wCount = libconfiguration_descriptor.Header.wTotalLength;
00395a   0e2a     movlw   0x2a             	MOVLW	LOW(_libconfiguration_descriptor + 2)
00395c   6ef6     movwf   0xf6, 0          	MOVWF	TBLPTRL
00395e   0e27     movlw   0x27             	MOVLW	HIGH(_libconfiguration_descriptor + 2)
003960   6ef7     movwf   0xf7, 0          	MOVWF	TBLPTRH
003962   0e00     movlw   0                	MOVLW	UPPER(_libconfiguration_descriptor + 2)
003964   6ef8     movwf   0xf8, 0          	MOVWF	TBLPTRU
003966   0009     tblrd   *+               	TBLRD*+	
003968   cff5     movff   0xff5, 0x188     	MOVFF	TABLAT, _wCount
00396a   f188
00396c   0009     tblrd   *+               	TBLRD*+	
00396e   cff5     movff   0xff5, 0x189     	MOVFF	TABLAT, (_wCount + 1)
003970   f189
003972   d03b     bra     0x39ea           	BRA	_00128_DS_
                                           _00121_DS_:
                                           ;	.line	158; /dvpt/pinguino/git/pinguino-ide/pinguino/p8/pinguino/libraries/usb/picUSB.c	else if (descriptorType == STRING_DESCRIPTOR)
003974   5000     movf    0, 0, 0          	MOVF	r0x00, W
003976   0a03     xorlw   0x3              	XORLW	0x03
003978   e132     bnz     0x39de           	BNZ	_00118_DS_
                                           ;	.line	164; /dvpt/pinguino/git/pinguino-ide/pinguino/p8/pinguino/libraries/usb/picUSB.c	requestHandled = 1;
00397a   0e01     movlw   0x1              	MOVLW	0x01
00397c   0101     movlb   0x1              	BANKSEL	_requestHandled
00397e   6f91     movwf   0x91, 0x1        	MOVWF	_requestHandled, B
                                           ; ;multiply lit val:0x03 by variable r0x01 and store in r0x01
                                           ;	.line	166; /dvpt/pinguino/git/pinguino-ide/pinguino/p8/pinguino/libraries/usb/picUSB.c	outPtr = libstring_descriptor[descriptorIndex];
003980   5001     movf    0x1, 0, 0        	MOVF	r0x01, W
003982   0d03     mullw   0x3              	MULLW	0x03
003984   50f4     movf    0xf4, 0, 0       	MOVF	PRODH, W
003986   6e02     movwf   0x2, 0           	MOVWF	r0x02
003988   cff3     movff   0xff3, 0x1       	MOVFF	PRODL, r0x01
00398a   f001
00398c   6a03     clrf    0x3, 0           	CLRF	r0x03
00398e   0e98     movlw   0x98             	MOVLW	LOW(_libstring_descriptor)
003990   2601     addwf   0x1, 0x1, 0      	ADDWF	r0x01, F
003992   0e27     movlw   0x27             	MOVLW	HIGH(_libstring_descriptor)
003994   2202     addwfc  0x2, 0x1, 0      	ADDWFC	r0x02, F
003996   0e00     movlw   0                	MOVLW	UPPER(_libstring_descriptor)
003998   2203     addwfc  0x3, 0x1, 0      	ADDWFC	r0x03, F
00399a   c001     movff   0x1, 0xff6       	MOVFF	r0x01, TBLPTRL
00399c   fff6
00399e   c002     movff   0x2, 0xff7       	MOVFF	r0x02, TBLPTRH
0039a0   fff7
0039a2   c003     movff   0x3, 0xff8       	MOVFF	r0x03, TBLPTRU
0039a4   fff8
0039a6   0009     tblrd   *+               	TBLRD*+	
0039a8   cff5     movff   0xff5, 0x17f     	MOVFF	TABLAT, _outPtr
0039aa   f17f
0039ac   0009     tblrd   *+               	TBLRD*+	
0039ae   cff5     movff   0xff5, 0x180     	MOVFF	TABLAT, (_outPtr + 1)
0039b0   f180
0039b2   0009     tblrd   *+               	TBLRD*+	
0039b4   cff5     movff   0xff5, 0x181     	MOVFF	TABLAT, (_outPtr + 2)
0039b6   f181
                                           ;	.line	167; /dvpt/pinguino/git/pinguino-ide/pinguino/p8/pinguino/libraries/usb/picUSB.c	wCount = *outPtr;
0039b8   c17f     movff   0x17f, 0x1       	MOVFF	_outPtr, r0x01
0039ba   f001
0039bc   c180     movff   0x180, 0x2       	MOVFF	(_outPtr + 1), r0x02
0039be   f002
0039c0   c181     movff   0x181, 0x3       	MOVFF	(_outPtr + 2), r0x03
0039c2   f003
0039c4   c001     movff   0x1, 0xfe9       	MOVFF	r0x01, FSR0L
0039c6   ffe9
0039c8   c002     movff   0x2, 0xff3       	MOVFF	r0x02, PRODL
0039ca   fff3
0039cc   5003     movf    0x3, 0, 0        	MOVF	r0x03, W
0039ce   ec4b     call    0x4c96, 0        	CALL	__gptrget1
0039d0   f026
0039d2   6e01     movwf   0x1, 0           	MOVWF	r0x01
0039d4   c001     movff   0x1, 0x188       	MOVFF	r0x01, _wCount
0039d6   f188
0039d8   0101     movlb   0x1              	BANKSEL	(_wCount + 1)
0039da   6b89     clrf    0x89, 0x1        	CLRF	(_wCount + 1), B
0039dc   d006     bra     0x39ea           	BRA	_00128_DS_
                                           _00118_DS_:
                                           ;	.line	170; /dvpt/pinguino/git/pinguino-ide/pinguino/p8/pinguino/libraries/usb/picUSB.c	else if (descriptorType == DEVICE_QUALIFIER_DESCRIPTOR)
0039de   5000     movf    0, 0, 0          	MOVF	r0x00, W
0039e0   0a06     xorlw   0x6              	XORLW	0x06
0039e2   e103     bnz     0x39ea           	BNZ	_00128_DS_
                                           ;	.line	176; /dvpt/pinguino/git/pinguino-ide/pinguino/p8/pinguino/libraries/usb/picUSB.c	requestHandled = 1;
0039e4   0e01     movlw   0x1              	MOVLW	0x01
0039e6   0101     movlb   0x1              	BANKSEL	_requestHandled
0039e8   6f91     movwf   0x91, 0x1        	MOVWF	_requestHandled, B
                                           _00128_DS_:
0039ea   cfe4     movff   0xfe4, 0x3       	MOVFF	PREINC1, r0x03
0039ec   f003
0039ee   cfe4     movff   0xfe4, 0x2       	MOVFF	PREINC1, r0x02
0039f0   f002
0039f2   cfe4     movff   0xfe4, 0x1       	MOVFF	PREINC1, r0x01
0039f4   f001
0039f6   cfe4     movff   0xfe4, 0         	MOVFF	PREINC1, r0x00
0039f8   f000
0039fa   0012     return  0                	RETURN	
                                           
                                           ; ; Starting pCode block
                                           S_main___startup	code
                                           __startup:
                                           	; Initialize the stack pointer
003d68   ee14     lfsr    0x1, 0x4ff       	lfsr 1, _stack_end
003d6a   f0ff
003d6c   ee24     lfsr    0x2, 0x4ff       	lfsr 2, _stack_end
003d6e   f0ff
                                           	; 1st silicon does not do this on POR
003d70   6af8     clrf    0xf8, 0          	clrf _TBLPTRU, 0
                                           	; Initialize the flash memory access configuration.
                                           	; This is harmless for non-flash devices, so we do it on all parts.
003d72   8ea6     bsf     0xa6, 0x7, 0     	bsf 0xa6, 7, 0 ; EECON1.EEPGD = 1, TBLPTR accesses program memory
003d74   9ca6     bcf     0xa6, 0x6, 0     	bcf 0xa6, 6, 0 ; EECON1.CFGS = 0, TBLPTR accesses program memory
                                           	; Load FSR0 with top of RAM.
003d76   0ebf     movlw   0xbf             	movlw 0xbf
003d78   6ee9     movwf   0xe9, 0          	movwf _FSR0L, 0
003d7a   0e0e     movlw   0xe              	movlw 0x0e
003d7c   6eea     movwf   0xea, 0          	movwf _FSR0H, 0
                                           	; Place 0xff at address 0x00 as a sentinel.
003d7e   6800     setf    0, 0             	setf 0x00, 0
                                           clear_loop:
003d80   6aed     clrf    0xed, 0          	clrf _POSTDEC0, 0
003d82   5000     movf    0, 0, 0          	movf 0x00, w, 0
003d84   e1fd     bnz     0x3d80           	bnz clear_loop
                                           	; TBLPTR = &cinit
003d86   0e18     movlw   0x18             	movlw low(_cinit)
003d88   6ef6     movwf   0xf6, 0          	movwf _TBLPTRL, 0
003d8a   0e4d     movlw   0x4d             	movlw high(_cinit)
003d8c   6ef7     movwf   0xf7, 0          	movwf _TBLPTRH, 0
003d8e   0e00     movlw   0                	movlw upper(_cinit)
003d90   6ef8     movwf   0xf8, 0          	movwf _TBLPTRU, 0
                                           	; 0x05 = cinit.num_init
003d92   0009     tblrd   *+               	tblrd*+
003d94   cff5     movff   0xff5, 0x5       	movff _TABLAT, 0x05
003d96   f005
003d98   0009     tblrd   *+               	tblrd*+
003d9a   cff5     movff   0xff5, 0x6       	movff _TABLAT, (0x05 + 1)
003d9c   f006
                                           	; while (0x05)
003d9e   d034     bra     0x3e08           	bra entry_loop_dec
                                           entry_loop:
                                           	; Count down so we only have to look up the data in _cinit once.
                                           	; At this point we know that TBLPTR points to the top of the current
                                           	; entry in _cinit, so we can just start reading the from, to, and
                                           	; size values.
                                           	; Read the source address low.
                                           	; 0x00 = 0x07 ->from;
003da0   0009     tblrd   *+               	tblrd*+
003da2   cff5     movff   0xff5, 0         	movff _TABLAT, 0x00
003da4   f000
                                           	; source address high
003da6   0009     tblrd   *+               	tblrd*+
003da8   cff5     movff   0xff5, 0x1       	movff _TABLAT, (0x00 + 1)
003daa   f001
                                           	; source address upper
003dac   0009     tblrd   *+               	tblrd*+
003dae   cff5     movff   0xff5, 0x2       	movff _TABLAT, (0x00 + 2)
003db0   f002
                                           	; Skip a byte since it is stored as a 32bit int.
003db2   0009     tblrd   *+               	tblrd*+
                                           	; Read the destination address directly into FSR0
                                           	; destination address low.
                                           	; FSR0 = (unsigned short)0x07 ->to;
003db4   0009     tblrd   *+               	tblrd*+
003db6   cff5     movff   0xff5, 0xfe9     	movff _TABLAT, _FSR0L
003db8   ffe9
                                           	; destination address high
003dba   0009     tblrd   *+               	tblrd*+
003dbc   cff5     movff   0xff5, 0xfea     	movff _TABLAT, _FSR0H
003dbe   ffea
                                           	; Skip two bytes since it is stored as a 32bit int.
003dc0   0009     tblrd   *+               	tblrd*+
003dc2   0009     tblrd   *+               	tblrd*+
                                           	; Read the size of data to transfer to destination address.
                                           	; 0x03 = (unsigned short)0x07 ->size;
003dc4   0009     tblrd   *+               	tblrd*+
003dc6   cff5     movff   0xff5, 0x3       	movff _TABLAT, 0x03
003dc8   f003
003dca   0009     tblrd   *+               	tblrd*+
003dcc   cff5     movff   0xff5, 0x4       	movff _TABLAT, (0x03 + 1)
003dce   f004
                                           	; Skip two bytes since it is stored as a 32bit int.
003dd0   0009     tblrd   *+               	tblrd*+
003dd2   0009     tblrd   *+               	tblrd*+
                                           	; 0x00 = 0x07 ->from;
                                           	; FSR0 = (unsigned short)0x07 ->to;
                                           	; 0x03 = (unsigned short)0x07 ->size;
                                           	; The table pointer now points to the next entry. Save it
                                           	; off since we will be using the table pointer to do the copying
                                           	; for the entry.
                                           	; 0x07 = TBLPTR
003dd4   cff6     movff   0xff6, 0x7       	movff _TBLPTRL, 0x07
003dd6   f007
003dd8   cff7     movff   0xff7, 0x8       	movff _TBLPTRH, (0x07 + 1)
003dda   f008
003ddc   cff8     movff   0xff8, 0x9       	movff _TBLPTRU, (0x07 + 2)
003dde   f009
                                           	; Now assign the source address to the table pointer.
                                           	; TBLPTR = 0x00
003de0   c000     movff   0, 0xff6         	movff 0x00, _TBLPTRL
003de2   fff6
003de4   c001     movff   0x1, 0xff7       	movff (0x00 + 1), _TBLPTRH
003de6   fff7
003de8   c002     movff   0x2, 0xff8       	movff (0x00 + 2), _TBLPTRU
003dea   fff8
003dec   d003     bra     0x3df4           	bra copy_loop_dec
                                           copy_loop:
003dee   0009     tblrd   *+               	tblrd*+
003df0   cff5     movff   0xff5, 0xfee     	movff _TABLAT, _POSTINC0
003df2   ffee
                                           copy_loop_dec:
                                           	; while (--0x03);
                                           	; Decrement and test the byte counter.
                                           	; The cycle ends when the value of counter reaches the -1.
003df4   0603     decf    0x3, 0x1, 0      	decf 0x03, f, 0
003df6   e2fb     bc      0x3dee           	bc copy_loop
003df8   0604     decf    0x4, 0x1, 0      	decf (0x03 + 1), f, 0
003dfa   e2f9     bc      0x3dee           	bc copy_loop
                                           	; Restore the table pointer for the next entry.
                                           	; TBLPTR = 0x07
003dfc   c007     movff   0x7, 0xff6       	movff 0x07, _TBLPTRL
003dfe   fff6
003e00   c008     movff   0x8, 0xff7       	movff (0x07 + 1), _TBLPTRH
003e02   fff7
003e04   c009     movff   0x9, 0xff8       	movff (0x07 + 2), _TBLPTRU
003e06   fff8
                                           entry_loop_dec:
                                           	; while (--0x05);
                                           	; Decrement and test the entry counter.
                                           	; The cycle ends when the value of counter reaches the -1.
003e08   0605     decf    0x5, 0x1, 0      	decf 0x05, f, 0
003e0a   e2ca     bc      0x3da0           	bc entry_loop
003e0c   0606     decf    0x6, 0x1, 0      	decf (0x05 + 1), f, 0
003e0e   e2c8     bc      0x3da0           	bc entry_loop
                                           	
                                           ;	.line	259; /dvpt/pinguino/git/pinguino-ide/pinguino/source/crt0iz.c	main ();
003e10   ec5c     call    0x48b8, 0        	CALL	_main
003e12   f024
                                           lockup:
                                           	; Returning from main will lock up.
003e14   d7ff     bra     0x3e14           	bra lockup
                                           	
                                           ; ; Starting pCode block for Ival
                                           	code
                                           _libdevice_descriptor:
002716   0112     movlb   0x12             	DB	0x12, 0x01, 0x00, 0x02, 0x02, 0x00, 0x00, 0x40, 0xd8, 0x04, 0xab, 0xfe
002718   0200     mulwf   0, 0             
00271a   0002     dw      0x2              
00271c   4000     rrncf   0, 0, 0          
00271e   04d8     decf    0xd8, 0, 0       
002720   feab     dw      0xfeab           
002722   0000     nop                      	DB	0x00, 0x00, 0x01, 0x02, 0x00, 0x01
002724   0201     mulwf   0x1, 0           
002726   0100     movlb   0                
                                           ; ; Starting pCode block for Ival
                                           _libconfiguration_descriptor:
002728   0209     mulwf   0x9, 0           	DB	0x09, 0x02, 0x43, 0x00, 0x02, 0x01, 0x00, 0xc0, 0x14, 0x09, 0x04, 0x00
00272a   0043     dw      0x43             
00272c   0102     movlb   0x2              
00272e   c000     movff   0, 0x914         
002730   0914
002732   0004     clrwdt                   
002734   0100     movlb   0                	DB	0x00, 0x01, 0x02, 0x02, 0x01, 0x00, 0x05, 0x24, 0x00, 0x10, 0x01, 0x04
002736   0202     mulwf   0x2, 0           
002738   0001     halt                     
00273a   2405     addwf   0x5, 0, 0        
00273c   1000     iorwf   0, 0, 0          
00273e   0401     decf    0x1, 0, 0        
002740   0224     mulwf   0x24, 0          	DB	0x24, 0x02, 0x00, 0x05, 0x24, 0x06, 0x00, 0x01, 0x05, 0x24, 0x01, 0x00
002742   0500     decf    0, 0, 0x1        
002744   0624     decf    0x24, 0x1, 0     
002746   0100     movlb   0                
002748   2405     addwf   0x5, 0, 0        
00274a   0001     halt                     
00274c   0701     decf    0x1, 0x1, 0x1    	DB	0x01, 0x07, 0x05, 0x82, 0x03, 0x10, 0x00, 0x02, 0x09, 0x04, 0x01, 0x00
00274e   8205     bsf     0x5, 0x1, 0      
002750   1003     iorwf   0x3, 0, 0        
002752   0200     mulwf   0, 0             
002754   0409     decf    0x9, 0, 0        
002756   0001     halt                     
002758   0a02     xorlw   0x2              	DB	0x02, 0x0a, 0x00, 0x00, 0x00, 0x07, 0x05, 0x03, 0x02, 0x40, 0x00, 0x00
00275a   0000     nop                      
00275c   0700     decf    0, 0x1, 0x1      
00275e   0305     mulwf   0x5, 0x1         
002760   4002     rrncf   0x2, 0, 0        
002762   0000     nop                      
002764   0507     decf    0x7, 0, 0x1      	DB	0x07, 0x05, 0x83, 0x02, 0x40, 0x00, 0x00
002766   0283     mulwf   0x83, 0          
002768   0040     dw      0x40             
00276a   0000     nop                      
                                           ; ; Starting pCode block for Ival
                                           _lang:
00276c   0304     mulwf   0x4, 0x1         	DB	0x04, 0x03, 0x09, 0x04
00276e   0409     decf    0x9, 0, 0        
                                           ; ; Starting pCode block for Ival
                                           _manu:
002770   0316     mulwf   0x16, 0x1        	DB	0x16, 0x03, 0x4a, 0x00, 0x50, 0x00, 0x20, 0x00, 0x4d, 0x00, 0x41, 0x00
002772   004a     dw      0x4a             
002774   0050     dw      0x50             
002776   0020     dw      0x20             
002778   004d     dw      0x4d             
00277a   0041     dw      0x41             
00277c   004e     dw      0x4e             	DB	0x4e, 0x00, 0x44, 0x00, 0x4f, 0x00, 0x4e, 0x00, 0x20, 0x00
00277e   0044     dw      0x44             
002780   004f     dw      0x4f             
002782   004e     dw      0x4e             
002784   0020     dw      0x20             
                                           ; ; Starting pCode block for Ival
                                           _prod:
002786   0312     mulwf   0x12, 0x1        	DB	0x12, 0x03, 0x50, 0x00, 0x69, 0x00, 0x6e, 0x00, 0x67, 0x00, 0x75, 0x00
002788   0050     dw      0x50             
00278a   0069     dw      0x69             
00278c   006e     dw      0x6e             
00278e   0067     dw      0x67             
002790   0075     dw      0x75             
002792   0069     dw      0x69             	DB	0x69, 0x00, 0x6e, 0x00, 0x6f, 0x00
002794   006e     dw      0x6e             
002796   006f     dw      0x6f             
                                           ; ; Starting pCode block for Ival
                                           _libstring_descriptor:
002798   276c     addwf   0x6c, 0x1, 0x1   	DB	LOW(_lang), HIGH(_lang), UPPER(_lang), LOW(_manu), HIGH(_manu), UPPER(_manu), LOW(_prod), HIGH(_prod), UPPER(_prod)
00279a   7000     btg     0, 0, 0          
00279c   0027     dw      0x27             
00279e   2786     addwf   0x86, 0x1, 0x1   
0027a0   0000     nop                      
                                           ; ; Starting pCode block
                                           __str_0:
0027a2   6e28     movwf   0x28, 0          	DB	0x28, 0x6e, 0x75, 0x6c, 0x6c, 0x29, 0x00
0027a4   6c75     negf    0x75, 0          
0027a6   296c     incf    0x6c, 0, 0x1     
0027a8   0000     nop                      
                                           ; ; Starting pCode block
                                           __str_1:
0027aa   6625     tstfsz  0x25, 0          	DB	0x25, 0x66, 0x00
0027ac   0000     nop                      
                                           ; ; Starting pCode block
                                           __str_2:
0027ae   6425     cpfsgt  0x25, 0          	DB	0x25, 0x64, 0x00
0027b0   0000     nop                      
                                           ; ; Starting pCode block
                                           __str_3:
0027b2   7825     btg     0x25, 0x4, 0     	DB	0x25, 0x78, 0x00
0027b4   0000     nop                      
                                           ; ; Starting pCode block
                                           __str_4:
0027b6   6f25     movwf   0x25, 0x1        	DB	0x25, 0x6f, 0x00
0027b8   0000     nop                      
                                           ; ; Starting pCode block
                                           __str_5:
0027ba   6225     cpfseq  0x25, 0          	DB	0x25, 0x62, 0x00
0027bc   0000     nop                      
                                           ; ; Starting pCode block
                                           __str_6:
0027be   0d0a     mullw   0xa              	DB	0x0a, 0x0d, 0x00
0027c0   0000     nop                      
                                           ; ; Starting pCode block
                                           __str_7:
0027c2   6325     cpfseq  0x25, 0x1        	DB	0x25, 0x63, 0x00
0027c4   0000     nop                      
                                           ; ; Starting pCode block for Ival
                                           _mask:
0027c6   0201     mulwf   0x1, 0           	DB	0x01, 0x02, 0x04, 0x08, 0x10, 0x20, 0x40, 0x80, 0x01, 0x02, 0x04, 0x08
0027c8   0804     sublw   0x4              
0027ca   2010     addwfc  0x10, 0, 0       
0027cc   8040     bsf     0x40, 0, 0       
0027ce   0201     mulwf   0x1, 0           
0027d0   0804     sublw   0x4              
0027d2   0110     movlb   0x10             	DB	0x10, 0x01, 0x02, 0x04, 0x01, 0x02, 0x04, 0x08, 0x10, 0x20, 0x40, 0x80
0027d4   0402     decf    0x2, 0, 0        
0027d6   0201     mulwf   0x1, 0           
0027d8   0804     sublw   0x4              
0027da   2010     addwfc  0x10, 0, 0       
0027dc   8040     bsf     0x40, 0, 0       
0027de   0201     mulwf   0x1, 0           	DB	0x01, 0x02, 0x04, 0x08, 0x10, 0x20, 0x40, 0x80
0027e0   0804     sublw   0x4              
0027e2   2010     addwfc  0x10, 0, 0       
0027e4   8040     bsf     0x40, 0, 0       
                                           ; ; Starting pCode block for Ival
                                           _port:
0027e6   0101     movlb   0x1              	DB	0x01, 0x01, 0x01, 0x01, 0x01, 0x01, 0x01, 0x01, 0x00, 0x00, 0x00, 0x00
0027e8   0101     movlb   0x1              
0027ea   0101     movlb   0x1              
0027ec   0101     movlb   0x1              
0027ee   0000     nop                      
0027f0   0000     nop                      
0027f2   0400     decf    0, 0, 0          	DB	0x00, 0x04, 0x04, 0x04, 0x02, 0x02, 0x02, 0x02, 0x02, 0x02, 0x02, 0x02
0027f4   0404     decf    0x4, 0, 0        
0027f6   0202     mulwf   0x2, 0           
0027f8   0202     mulwf   0x2, 0           
0027fa   0202     mulwf   0x2, 0           
0027fc   0202     mulwf   0x2, 0           
0027fe   0303     mulwf   0x3, 0x1         	DB	0x03, 0x03, 0x03, 0x03, 0x03, 0x03, 0x03, 0x03
002800   0303     mulwf   0x3, 0x1         
002802   0303     mulwf   0x3, 0x1         
002804   0303     mulwf   0x3, 0x1         
                                           ; ; Starting pCode block
                                           __str_8:
002806   2d2d     decfsz  0x2d, 0, 0x1     	DB	0x2d, 0x2d, 0x2d, 0x2d, 0x2d, 0x2d, 0x2d, 0x2d, 0x2d, 0x2d, 0x2d, 0x2d
002808   2d2d     decfsz  0x2d, 0, 0x1     
00280a   2d2d     decfsz  0x2d, 0, 0x1     
00280c   2d2d     decfsz  0x2d, 0, 0x1     
00280e   2d2d     decfsz  0x2d, 0, 0x1     
002810   2d2d     decfsz  0x2d, 0, 0x1     
002812   2d2d     decfsz  0x2d, 0, 0x1     	DB	0x2d, 0x2d, 0x2d, 0x4c, 0x41, 0x53, 0x54, 0x2d, 0x2d, 0x2d, 0x2d, 0x2d
002814   4c2d     dcfsnz  0x2d, 0, 0       
002816   5341     movf    0x41, 0x1, 0x1   
002818   2d54     decfsz  0x54, 0, 0x1     
00281a   2d2d     decfsz  0x2d, 0, 0x1     
00281c   2d2d     decfsz  0x2d, 0, 0x1     
00281e   2d2d     decfsz  0x2d, 0, 0x1     	DB	0x2d, 0x2d, 0x2d, 0x2d, 0x2d, 0x2d, 0x2d, 0x2d, 0x00
002820   2d2d     decfsz  0x2d, 0, 0x1     
002822   2d2d     decfsz  0x2d, 0, 0x1     
002824   2d2d     decfsz  0x2d, 0, 0x1     
002826   0000     nop                      
                                           ; ; Starting pCode block
                                           __str_9:
002828   2d2d     decfsz  0x2d, 0, 0x1     	DB	0x2d, 0x2d, 0x2d, 0x2d, 0x2d, 0x2d, 0x2d, 0x2d, 0x2d, 0x2d, 0x2d, 0x2d
00282a   2d2d     decfsz  0x2d, 0, 0x1     
00282c   2d2d     decfsz  0x2d, 0, 0x1     
00282e   2d2d     decfsz  0x2d, 0, 0x1     
002830   2d2d     decfsz  0x2d, 0, 0x1     
002832   2d2d     decfsz  0x2d, 0, 0x1     
002834   2d2d     decfsz  0x2d, 0, 0x1     	DB	0x2d, 0x2d, 0x2d, 0x2d, 0x2d, 0x2d, 0x2d, 0x2d, 0x2d, 0x2d, 0x2d, 0x2d
002836   2d2d     decfsz  0x2d, 0, 0x1     
002838   2d2d     decfsz  0x2d, 0, 0x1     
00283a   2d2d     decfsz  0x2d, 0, 0x1     
00283c   2d2d     decfsz  0x2d, 0, 0x1     
00283e   2d2d     decfsz  0x2d, 0, 0x1     
002840   2d2d     decfsz  0x2d, 0, 0x1     	DB	0x2d, 0x2d, 0x2d, 0x2d, 0x2d, 0x2d, 0x2d, 0x2d, 0x00
002842   2d2d     decfsz  0x2d, 0, 0x1     
002844   2d2d     decfsz  0x2d, 0, 0x1     
002846   2d2d     decfsz  0x2d, 0, 0x1     
002848   0000     nop                      
                                           ; ; Starting pCode block
                                           __str_10:
00284a   7525     btg     0x25, 0x2, 0x1   	DB	0x25, 0x75, 0x20, 0x64, 0x61, 0x74, 0x61, 0x5f, 0x77, 0x72, 0x69, 0x74
00284c   6420     cpfsgt  0x20, 0          
00284e   7461     btg     0x61, 0x2, 0     
002850   5f61     subwf   0x61, 0x1, 0x1   
002852   7277     btg     0x77, 0x1, 0     
002854   7469     btg     0x69, 0x2, 0     
002856   2065     addwfc  0x65, 0, 0       	DB	0x65, 0x20, 0x00
002858   0000     nop                      
                                           ; ; Starting pCode block
                                           __str_11:
00285a   7525     btg     0x25, 0x2, 0x1   	DB	0x25, 0x75, 0x20, 0x64, 0x61, 0x74, 0x61, 0x5f, 0x72, 0x65, 0x61, 0x64
00285c   6420     cpfsgt  0x20, 0          
00285e   7461     btg     0x61, 0x2, 0     
002860   5f61     subwf   0x61, 0x1, 0x1   
002862   6572     cpfsgt  0x72, 0x1        
002864   6461     cpfsgt  0x61, 0          
002866   725f     btg     0x5f, 0x1, 0     	DB	0x5f, 0x72, 0x65, 0x61, 0x64, 0x20, 0x00
002868   6165     cpfslt  0x65, 0x1        
00286a   2064     addwfc  0x64, 0, 0       
00286c   0000     nop                      
                                           ; ; Starting pCode block
                                           __str_12:
00286e   7525     btg     0x25, 0x2, 0x1   	DB	0x25, 0x75, 0x20, 0x64, 0x61, 0x74, 0x61, 0x5f, 0x72, 0x65, 0x61, 0x64
002870   6420     cpfsgt  0x20, 0          
002872   7461     btg     0x61, 0x2, 0     
002874   5f61     subwf   0x61, 0x1, 0x1   
002876   6572     cpfsgt  0x72, 0x1        
002878   6461     cpfsgt  0x61, 0          
00287a   725f     btg     0x5f, 0x1, 0     	DB	0x5f, 0x72, 0x65, 0x61, 0x64, 0x5f, 0x65, 0x6e, 0x64, 0x20, 0x00
00287c   6165     cpfslt  0x65, 0x1        
00287e   5f64     subwf   0x64, 0x1, 0x1   
002880   6e65     movwf   0x65, 0          
002882   2064     addwfc  0x64, 0, 0       
002884   0000     nop                      
                                           ; ; Starting pCode block
                                           __str_13:
002886   0d0a     mullw   0xa              	DB	0x0a, 0x0d, 0x0a, 0x0d, 0x2a, 0x2a, 0x2a, 0x20, 0x32, 0x34, 0x78, 0x78
002888   0d0a     mullw   0xa              
00288a   2a2a     incf    0x2a, 0x1, 0     
00288c   202a     addwfc  0x2a, 0, 0       
00288e   3432     rlcf    0x32, 0, 0       
002890   7878     btg     0x78, 0x4, 0     
002892   3135     rrcf    0x35, 0, 0x1     	DB	0x35, 0x31, 0x32, 0x20, 0x69, 0x32, 0x63, 0x20, 0x45, 0x65, 0x70, 0x72
002894   2032     addwfc  0x32, 0, 0       
002896   3269     rrcf    0x69, 0x1, 0     
002898   2063     addwfc  0x63, 0, 0       
00289a   6545     cpfsgt  0x45, 0x1        
00289c   7270     btg     0x70, 0x1, 0     
00289e   6d6f     negf    0x6f, 0x1        	DB	0x6f, 0x6d, 0x20, 0x44, 0x65, 0x6d, 0x6f, 0x2e, 0x20, 0x2a, 0x2a, 0x2a
0028a0   4420     rlncf   0x20, 0, 0       
0028a2   6d65     negf    0x65, 0x1        
0028a4   2e6f     decfsz  0x6f, 0x1, 0     
0028a6   2a20     incf    0x20, 0x1, 0     
0028a8   2a2a     incf    0x2a, 0x1, 0     
0028aa   0d0a     mullw   0xa              	DB	0x0a, 0x0d, 0x0a, 0x0d, 0x00
0028ac   0d0a     mullw   0xa              
0028ae   0000     nop                      
                                           ; ; Starting pCode block
                                           __str_14:
0028b0   7257     btg     0x57, 0x1, 0     	DB	0x57, 0x72, 0x69, 0x74, 0x69, 0x6e, 0x67, 0x20, 0x2e, 0x2e, 0x2e, 0x0a
0028b2   7469     btg     0x69, 0x2, 0     
0028b4   6e69     movwf   0x69, 0          
0028b6   2067     addwfc  0x67, 0, 0       
0028b8   2e2e     decfsz  0x2e, 0x1, 0     
0028ba   0a2e     xorlw   0x2e             
0028bc   000d     tblwt   *+               	DB	0x0d, 0x00
                                           ; ; Starting pCode block
                                           __str_15:
0028be   6552     cpfsgt  0x52, 0x1        	DB	0x52, 0x65, 0x61, 0x64, 0x69, 0x6e, 0x67, 0x20, 0x2e, 0x2e, 0x2e, 0x0a
0028c0   6461     cpfsgt  0x61, 0          
0028c2   6e69     movwf   0x69, 0          
0028c4   2067     addwfc  0x67, 0, 0       
0028c6   2e2e     decfsz  0x2e, 0x1, 0     
0028c8   0a2e     xorlw   0x2e             
0028ca   000d     tblwt   *+               	DB	0x0d, 0x00
                                           ; ; Starting pCode block
                                           __str_16:
0028cc   6425     cpfsgt  0x25, 0          	DB	0x25, 0x64, 0x20, 0x76, 0x61, 0x6c, 0x75, 0x65, 0x20, 0x72, 0x65, 0x64
0028ce   7620     btg     0x20, 0x3, 0     
0028d0   6c61     negf    0x61, 0          
0028d2   6575     cpfsgt  0x75, 0x1        
0028d4   7220     btg     0x20, 0x1, 0     
0028d6   6465     cpfsgt  0x65, 0          
0028d8   6620     tstfsz  0x20, 0          	DB	0x20, 0x66, 0x72, 0x6f, 0x6d, 0x20, 0x65, 0x65, 0x70, 0x72, 0x6f, 0x6d
0028da   6f72     movwf   0x72, 0x1        
0028dc   206d     addwfc  0x6d, 0, 0       
0028de   6565     cpfsgt  0x65, 0x1        
0028e0   7270     btg     0x70, 0x1, 0     
0028e2   6d6f     negf    0x6f, 0x1        
0028e4   0000     nop                      	DB	0x00
                                           
                                           
                                           ; Statistics:
                                           ; code size:	15472 (0x3c70) bytes (11.80%)
                                           ;           	 7736 (0x1e38) words
                                           ; udata size:	  691 (0x02b3) bytes (19.63%)
                                           ; access size:	   33 (0x0021) bytes
                                           
                                           
                                           	end
                                           ;--------------------------------------------------------------------------
                                           ;  delay1ktcy.S
                                           ;
                                           ;  Copyright (C) 2005, Vangelis Rokas <vrokas at otenet.gr>
                                           ;
                                           ;  This library is free software; you can redistribute it and/or modify it
                                           ;  under the terms of the GNU General Public License as published by the
                                           ;  Free Software Foundation; either version 2, or (at your option) any
                                           ;  later version.
                                           ;
                                           ;  This library is distributed in the hope that it will be useful,
                                           ;  but WITHOUT ANY WARRANTY; without even the implied warranty of
                                           ;  MERCHANTABILITY or FITNESS FOR A PARTICULAR PURPOSE. See the
                                           ;  GNU General Public License for more details.
                                           ;
                                           ;  You should have received a copy of the GNU General Public License 
                                           ;  along with this library; see the file COPYING. If not, write to the
                                           ;  Free Software Foundation, 51 Franklin Street, Fifth Floor, Boston,
                                           ;   MA 02110-1301, USA.
                                           ;
                                           ;  As a special exception, if you link this library with other files,
                                           ;  some of which are compiled with SDCC, to produce an executable,
                                           ;  this library does not by itself cause the resulting executable to
                                           ;  be covered by the GNU General Public License. This exception does
                                           ;  not however invalidate any other reasons why the executable file
                                           ;  might be covered by the GNU General Public License.
                                           ;--------------------------------------------------------------------------
                                           
                                                   include <p18fxxx.inc>
                                           ;--------------------------------------------------------------------------
                                           ;  p18fxxx.inc
                                           ;
                                           ;  Copyright (C) 2005, Vangelis Rokas <vrokas AT otenet.gr>
                                           ;
                                           ;  This library is free software; you can redistribute it and/or modify it
                                           ;  under the terms of the GNU General Public License as published by the
                                           ;  Free Software Foundation; either version 2, or (at your option) any
                                           ;  later version.
                                           ;
                                           ;  This library is distributed in the hope that it will be useful,
                                           ;  but WITHOUT ANY WARRANTY; without even the implied warranty of
                                           ;  MERCHANTABILITY or FITNESS FOR A PARTICULAR PURPOSE. See the
                                           ;  GNU General Public License for more details.
                                           ;
                                           ;  You should have received a copy of the GNU General Public License 
                                           ;  along with this library; see the file COPYING. If not, write to the
                                           ;  Free Software Foundation, 51 Franklin Street, Fifth Floor, Boston,
                                           ;   MA 02110-1301, USA.
                                           ;
                                           ;  As a special exception, if you link this library with other files,
                                           ;  some of which are compiled with SDCC, to produce an executable,
                                           ;  this library does not by itself cause the resulting executable to
                                           ;  be covered by the GNU General Public License. This exception does
                                           ;  not however invalidate any other reasons why the executable file
                                           ;  might be covered by the GNU General Public License.
                                           ;--------------------------------------------------------------------------
                                           
                                           #ifndef __P18FXXX__
                                           #define	__P18FXXX__	1
                                           
                                           
                                           		list	r=dec, n=96, st=off, mm=off
                                           
                                           	        nolist
                                           #endif
                                           
                                                   extern  _delay10tcy
                                           
                                                   global  _delay1ktcy
                                               
                                                   code
                                           
                                           _delay1ktcy:
                                                   ; polynomial for 1ktcy delay is f(x) = 1000 * (x-1) + 1000
0028e6   06e8     decf    0xe8, 0x1, 0             decf    WREG, f
                                           
0028e8   6ee5     movwf   0xe5, 0                  movwf   POSTDEC1
0028ea   0e63     movlw   0x63                     movlw    99
0028ec   ec86     call    0x290c, 0                call    _delay10tcy
0028ee   f014
                                           
0028f0   50e4     movf    0xe4, 0, 0               movf    PREINC1, w
                                            
0028f2   e00b     bz      0x290a                   bz      @delay1k_end
0028f4   d000     bra     0x28f6                   bra     $+2
                                               
                                           @delay1k_loop:
0028f6   6ee5     movwf   0xe5, 0                  movwf   POSTDEC1
0028f8   0e63     movlw   0x63                     movlw   99
0028fa   ec86     call    0x290c, 0                call    _delay10tcy
0028fc   f014
                                           
0028fe   d000     bra     0x2900                   bra     $+2
002900   d000     bra     0x2902                   bra     $+2
002902   0000     nop                              nop
                                           
002904   50e4     movf    0xe4, 0, 0               movf    PREINC1, w
002906   2ee8     decfsz  0xe8, 0x1, 0             decfsz  WREG, f
002908   d7f6     bra     0x28f6                   bra     @delay1k_loop
                                           
                                           @delay1k_end:
00290a   0012     return  0                        return
                                           
                                                   end
                                           ;--------------------------------------------------------------------------
                                           ;  delay10tcy.S
                                           ;
                                           ;  Copyright (C) 2005, Vangelis Rokas <vrokas at otenet.gr>
                                           ;
                                           ;  This library is free software; you can redistribute it and/or modify it
                                           ;  under the terms of the GNU General Public License as published by the
                                           ;  Free Software Foundation; either version 2, or (at your option) any
                                           ;  later version.
                                           ;
                                           ;  This library is distributed in the hope that it will be useful,
                                           ;  but WITHOUT ANY WARRANTY; without even the implied warranty of
                                           ;  MERCHANTABILITY or FITNESS FOR A PARTICULAR PURPOSE. See the
                                           ;  GNU General Public License for more details.
                                           ;
                                           ;  You should have received a copy of the GNU General Public License 
                                           ;  along with this library; see the file COPYING. If not, write to the
                                           ;  Free Software Foundation, 51 Franklin Street, Fifth Floor, Boston,
                                           ;   MA 02110-1301, USA.
                                           ;
                                           ;  As a special exception, if you link this library with other files,
                                           ;  some of which are compiled with SDCC, to produce an executable,
                                           ;  this library does not by itself cause the resulting executable to
                                           ;  be covered by the GNU General Public License. This exception does
                                           ;  not however invalidate any other reasons why the executable file
                                           ;  might be covered by the GNU General Public License.
                                           ;--------------------------------------------------------------------------
                                           
                                               include <p18fxxx.inc>
                                           ;--------------------------------------------------------------------------
                                           ;  p18fxxx.inc
                                           ;
                                           ;  Copyright (C) 2005, Vangelis Rokas <vrokas AT otenet.gr>
                                           ;
                                           ;  This library is free software; you can redistribute it and/or modify it
                                           ;  under the terms of the GNU General Public License as published by the
                                           ;  Free Software Foundation; either version 2, or (at your option) any
                                           ;  later version.
                                           ;
                                           ;  This library is distributed in the hope that it will be useful,
                                           ;  but WITHOUT ANY WARRANTY; without even the implied warranty of
                                           ;  MERCHANTABILITY or FITNESS FOR A PARTICULAR PURPOSE. See the
                                           ;  GNU General Public License for more details.
                                           ;
                                           ;  You should have received a copy of the GNU General Public License 
                                           ;  along with this library; see the file COPYING. If not, write to the
                                           ;  Free Software Foundation, 51 Franklin Street, Fifth Floor, Boston,
                                           ;   MA 02110-1301, USA.
                                           ;
                                           ;  As a special exception, if you link this library with other files,
                                           ;  some of which are compiled with SDCC, to produce an executable,
                                           ;  this library does not by itself cause the resulting executable to
                                           ;  be covered by the GNU General Public License. This exception does
                                           ;  not however invalidate any other reasons why the executable file
                                           ;  might be covered by the GNU General Public License.
                                           ;--------------------------------------------------------------------------
                                           
                                           #ifndef __P18FXXX__
                                           #define	__P18FXXX__	1
                                           
                                           
                                           		list	r=dec, n=96, st=off, mm=off
                                           
                                           	        nolist
                                           #endif
                                           
                                               global    _delay10tcy
                                               
                                               code
                                           
                                           _delay10tcy:
                                                 ; polynomial for 10tcy delay is f(x) = 10 * (x-1) + 10
00290c   06e8     decf    0xe8, 0x1, 0           decf      WREG, f
00290e   0000     nop                            nop
                                           
002910   50e8     movf    0xe8, 0, 0             movf      WREG, w
002912   e007     bz      0x2922                 bz        @delay10_end
                                           
002914   d000     bra     0x2916                 bra       $+2
                                           
                                           @delay10_loop:
002916   d000     bra     0x2918                 bra       $+2
002918   d000     bra     0x291a                 bra       $+2
00291a   d000     bra     0x291c                 bra       $+2
                                           
00291c   0000     nop                            nop
00291e   2ee8     decfsz  0xe8, 0x1, 0           decfsz    WREG, f
002920   d7fa     bra     0x2916                 bra       @delay10_loop
                                           
                                           @delay10_end:
                                           
002922   0012     return  0                      return
                                           
                                                 end
                                           ;--------------------------------------------------------------------------
                                           ;  stack.S - automatically allocate stack for PIC16 targets
                                           ;            with out the need for using the #pragma stack
                                           ;            directive
                                           ;
                                           ;  Copyright (C) 2006, Vangelis Rokas <vrokas AT otenet.gr>
                                           ;
                                           ;  This library is free software; you can redistribute it and/or modify it
                                           ;  under the terms of the GNU General Public License as published by the
                                           ;  Free Software Foundation; either version 2, or (at your option) any
                                           ;  later version.
                                           ;
                                           ;  This library is distributed in the hope that it will be useful,
                                           ;  but WITHOUT ANY WARRANTY; without even the implied warranty of
                                           ;  MERCHANTABILITY or FITNESS FOR A PARTICULAR PURPOSE. See the
                                           ;  GNU General Public License for more details.
                                           ;
                                           ;  You should have received a copy of the GNU General Public License 
                                           ;  along with this library; see the file COPYING. If not, write to the
                                           ;  Free Software Foundation, 51 Franklin Street, Fifth Floor, Boston,
                                           ;   MA 02110-1301, USA.
                                           ;
                                           ;  As a special exception, if you link this library with other files,
                                           ;  some of which are compiled with SDCC, to produce an executable,
                                           ;  this library does not by itself cause the resulting executable to
                                           ;  be covered by the GNU General Public License. This exception does
                                           ;  not however invalidate any other reasons why the executable file
                                           ;  might be covered by the GNU General Public License.
                                           ;--------------------------------------------------------------------------
                                           
                                                   radix dec
                                           
                                           ;--------------------------------------------------------
                                           ; public variables in this module
                                           ;--------------------------------------------------------
                                                   global _stack
                                                   global _stack_end
                                           
                                           ; allocate space for stack
                                           stack_section   udata
                                           _stack          res     0xff
                                           _stack_end      res     1
                                           
                                                   end
                                           	radix dec
                                           
                                           	global	___eeprom_gptrget1
                                           	global	___eeprom_gptrget2
                                           	global	___eeprom_gptrget3
                                           	global	___eeprom_gptrget4
                                           	global	___eeprom_gptrput1
                                           	global	___eeprom_gptrput2
                                           	global	___eeprom_gptrput3
                                           	global	___eeprom_gptrput4
                                           
                                           S___eeprom_gptr_stubs	code
                                           ___eeprom_gptrget1:
                                           ___eeprom_gptrget2:
                                           ___eeprom_gptrget3:
                                           ___eeprom_gptrget4:
                                           ___eeprom_gptrput1:
                                           ___eeprom_gptrput2:
                                           ___eeprom_gptrput3:
                                           ___eeprom_gptrput4:
004d3e   0012     return  0                	return
                                           
                                           	end
